

Microchip MPLAB XC8 Assembler V2.40 build 20220703182018 
                                                                                               Fri Feb 17 14:53:13 2023

Microchip MPLAB XC8 C Compiler v2.40 (Free license) build 20220703182018 Og1 
     1                           	processor	18F46K22
     2                           	fnconf	rparam,??,?,0
     3                           	pagewidth 120
     4                           	opt	flic
     5                           	psect	idataBANK0,global,class=CODE,delta=1,noexec
     6                           	psect	idataBANK1,global,class=CODE,delta=1,noexec
     7                           	psect	smallconst,global,reloc=2,class=SMALLCONST,delta=1,noexec
     8                           	psect	cinit,global,reloc=2,class=CODE,delta=1
     9                           	psect	bssCOMRAM,global,class=COMRAM,space=1,delta=1,lowdata,noexec
    10                           	psect	bssBANK0,global,class=BANK0,space=1,delta=1,lowdata,noexec
    11                           	psect	dataBANK0,global,class=BANK0,space=1,delta=1,lowdata,noexec
    12                           	psect	dataBANK1,global,class=BANK1,space=1,delta=1,lowdata,noexec
    13                           	psect	bssBIGRAM,global,class=BIGRAM,space=1,delta=1,noexec
    14                           	psect	cstackBANK1,global,class=BANK1,space=1,delta=1,lowdata,noexec
    15                           	psect	cstackBANK0,global,class=BANK0,space=1,delta=1,lowdata,noexec
    16                           	psect	cstackCOMRAM,global,class=COMRAM,space=1,delta=1,lowdata,noexec
    17                           	psect	text0,global,reloc=2,class=CODE,delta=1
    18                           	psect	text1,global,reloc=2,class=CODE,delta=1
    19                           	psect	text2,global,reloc=2,class=CODE,delta=1
    20                           	psect	text3,global,reloc=2,class=CODE,delta=1
    21                           	psect	text4,global,reloc=2,class=CODE,delta=1
    22                           	psect	text5,global,reloc=2,class=CODE,delta=1
    23                           	psect	text6,global,reloc=2,class=CODE,delta=1
    24                           	psect	text7,global,reloc=2,class=CODE,delta=1,group=2
    25                           	psect	text8,global,reloc=2,class=CODE,delta=1,group=2
    26                           	psect	text9,global,reloc=2,class=CODE,delta=1,group=2
    27                           	psect	text10,global,reloc=2,class=CODE,delta=1,group=1
    28                           	psect	text11,global,reloc=2,class=CODE,delta=1,group=2
    29                           	psect	text12,global,reloc=2,class=CODE,delta=1,group=1
    30                           	psect	text13,global,reloc=2,class=CODE,delta=1,group=2
    31                           	psect	text14,global,reloc=2,class=CODE,delta=1,group=1
    32                           	psect	text15,global,reloc=2,class=CODE,delta=1,group=1
    33                           	psect	text16,global,reloc=2,class=CODE,delta=1,group=1
    34                           	psect	text17,global,reloc=2,class=CODE,delta=1,group=1
    35                           	psect	text18,global,reloc=2,class=CODE,delta=1,group=1
    36                           	psect	text19,global,reloc=2,class=CODE,delta=1,group=1
    37                           	psect	text20,global,reloc=2,class=CODE,delta=1
    38                           	psect	text21,global,reloc=2,class=CODE,delta=1
    39                           	psect	text22,global,reloc=2,class=CODE,delta=1
    40                           	psect	text23,global,reloc=2,class=CODE,delta=1
    41                           	psect	text24,global,reloc=2,class=CODE,delta=1,group=1
    42                           	psect	text25,global,reloc=2,class=CODE,delta=1,group=1
    43                           	psect	text26,global,reloc=2,class=CODE,delta=1
    44                           	psect	text27,global,reloc=2,class=CODE,delta=1
    45                           	psect	text28,global,reloc=2,class=CODE,delta=1
    46                           	psect	text29,global,reloc=2,class=CODE,delta=1
    47                           	psect	text30,global,reloc=2,class=CODE,delta=1
    48                           	psect	intsave_regs,global,class=BIGRAM,space=1,delta=1,noexec
    49                           	psect	rparam,global,class=COMRAM,space=1,delta=1,noexec
    50                           	psect	idloc,global,abs,ovrld,class=IDLOC,space=5,delta=1,noexec
    51                           	psect	config,global,abs,ovrld,class=CONFIG,space=4,delta=1,noexec
    52   000000                     
    53                           ; Generated 06/04/2022 GMT
    54                           ; 
    55                           ; Copyright © 2022, Microchip Technology Inc. and its subsidiaries ("Microchip")
    56                           ; All rights reserved.
    57                           ; 
    58                           ; This software is developed by Microchip Technology Inc. and its subsidiaries ("Microch
      +                          ip").
    59                           ; 
    60                           ; Redistribution and use in source and binary forms, with or without modification, are
    61                           ; permitted provided that the following conditions are met:
    62                           ; 
    63                           ;     1. Redistributions of source code must retain the above copyright notice, this lis
      +                          t of
    64                           ;        conditions and the following disclaimer.
    65                           ; 
    66                           ;     2. Redistributions in binary form must reproduce the above copyright notice, this 
      +                          list
    67                           ;        of conditions and the following disclaimer in the documentation and/or other
    68                           ;        materials provided with the distribution. Publication is not required when
    69                           ;        this file is used in an embedded application.
    70                           ; 
    71                           ;     3. Microchip's name may not be used to endorse or promote products derived from th
      +                          is
    72                           ;        software without specific prior written permission.
    73                           ; 
    74                           ; THIS SOFTWARE IS PROVIDED BY MICROCHIP "AS IS" AND ANY EXPRESS OR IMPLIED WARRANTIES,
    75                           ; INCLUDING, BUT NOT LIMITED TO, THE IMPLIED WARRANTIES OF MERCHANTABILITY AND FITNESS F
      +                          OR
    76                           ; PURPOSE ARE DISCLAIMED.  IN NO EVENT SHALL MICROCHIP BE LIABLE FOR ANY DIRECT, INDIREC
      +                          T,
    77                           ; INCIDENTAL, SPECIAL, EXEMPLARY, OR CONSEQUENTIAL DAMAGES (INCLUDING BUT NOT LIMITED TO
    78                           ; PROCUREMENT OF SUBSTITUTE GOODS OR SERVICES; LOSS OF USE, DATA OR PROFITS; OR BUSINESS
    79                           ; INTERRUPTION) HOWSOEVER CAUSED AND ON ANY THEORY OF LIABILITY, WHETHER IN CONTRACT, ST
      +                          RICT
    80                           ; LIABILITY, OR TORT (INCLUDING NEGLIGENCE OR OTHERWISE) ARISING IN ANY WAY OUT OF THE U
      +                          SE OF
    81                           ; THIS SOFTWARE, EVEN IF ADVISED OF THE POSSIBILITY OF SUCH DAMAGE.
    82                           ; 
    83                           ; 
    84                           ; Code-generator required, PIC18F46K22 Definitions
    85                           ; 
    86                           ; SFR Addresses
    87   000000                     
    88                           	psect	idataBANK0
    89   0061D0                     __pidataBANK0:
    90                           	callstack 0
    91                           
    92                           ;initializer for _address
    93   0061D0  F0                 	db	240
    94                           
    95                           ;initializer for _value1
    96   0061D1  64                 	db	100
    97                           
    98                           	psect	idataBANK1
    99   0060B0                     __pidataBANK1:
   100                           	callstack 0
   101                           
   102                           ;initializer for _arr
   103   0060B0  57                 	db	87
   104   0060B1  45                 	db	69
   105   0060B2  4C                 	db	76
   106   0060B3  43                 	db	67
   107   0060B4  4F                 	db	79
   108   0060B5  4D                 	db	77
   109   0060B6  45                 	db	69
   110   0060B7  00                 	db	0
   111   0060B8  00                 	db	0
   112   0060B9  00                 	db	0
   113   0060BA  00                 	db	0
   114   0060BB  00                 	db	0
   115   0060BC  00                 	db	0
   116   0060BD  00                 	db	0
   117   0060BE  00                 	db	0
   118   0060BF  00                 	db	0
   119   0060C0  31                 	db	49
   120   0060C1  2E                 	db	46
   121   0060C2  4C                 	db	76
   122   0060C3  4F                 	db	79
   123   0060C4  4F                 	db	79
   124   0060C5  4D                 	db	77
   125   0060C6  20                 	db	32
   126   0060C7  53                 	db	83
   127   0060C8  45                 	db	69
   128   0060C9  54                 	db	84
   129   0060CA  54                 	db	84
   130   0060CB  49                 	db	73
   131   0060CC  4E                 	db	78
   132   0060CD  47                 	db	71
   133   0060CE  53                 	db	83
   134   0060CF  00                 	db	0
   135   0060D0  32                 	db	50
   136   0060D1  2E                 	db	46
   137   0060D2  44                 	db	68
   138   0060D3  48                 	db	72
   139   0060D4  4F                 	db	79
   140   0060D5  54                 	db	84
   141   0060D6  49                 	db	73
   142   0060D7  20                 	db	32
   143   0060D8  53                 	db	83
   144   0060D9  45                 	db	69
   145   0060DA  54                 	db	84
   146   0060DB  54                 	db	84
   147   0060DC  49                 	db	73
   148   0060DD  4E                 	db	78
   149   0060DE  47                 	db	71
   150   0060DF  53                 	db	83
   151   0060E0  33                 	db	51
   152   0060E1  2E                 	db	46
   153   0060E2  52                 	db	82
   154   0060E3  45                 	db	69
   155   0060E4  53                 	db	83
   156   0060E5  45                 	db	69
   157   0060E6  54                 	db	84
   158   0060E7  20                 	db	32
   159   0060E8  53                 	db	83
   160   0060E9  45                 	db	69
   161   0060EA  54                 	db	84
   162   0060EB  54                 	db	84
   163   0060EC  49                 	db	73
   164   0060ED  4E                 	db	78
   165   0060EE  47                 	db	71
   166   0060EF  53                 	db	83
   167                           
   168                           	psect	smallconst
   169   001000                     __psmallconst:
   170                           	callstack 0
   171   001000  00                 	db	0
   172   001001                     _dp_l:
   173                           	callstack 0
   174   001001  0000               	dw	0
   175   001003  0000               	dw	0
   176   001005  CFDC               	dw	53212
   177   001007  35D1               	dw	13777
   178   001009                     __end_of_dp_l:
   179                           	callstack 0
   180   001009                     _dp_h:
   181                           	callstack 0
   182   001009  0000               	dw	0
   183   00100B  0000               	dw	0
   184   00100D  C000               	dw	49152
   185   00100F  3F15               	dw	16149
   186   001011                     __end_of_dp_h:
   187                           	callstack 0
   188   001011  4260               	dw	16992
   189   001013  0DA2               	dw	3490
   190   001015                     __end_of_tiny@sqrtf$F1112:
   191                           	callstack 0
   192   001015  A570               	dw	42352
   193   001017  36EC               	dw	14060
   194   001019                     __end_of_ivln2_l:
   195                           	callstack 0
   196   001019  AA3B               	dw	43579
   197   00101B  3FB8               	dw	16312
   198   00101D                     __end_of_ivln2:
   199                           	callstack 0
   200   00101D  384F               	dw	14415
   201   00101F  3F76               	dw	16246
   202   001021                     __end_of_cp:
   203                           	callstack 0
   204   001021  AA3C               	dw	43580
   205   001023  3338               	dw	13112
   206   001025                     __end_of_ovt:
   207                           	callstack 0
   208   001025  BE8C               	dw	48780
   209   001027  35BF               	dw	13759
   210   001029                     __end_of_lg2_l:
   211                           	callstack 0
   212   001029  7200               	dw	29184
   213   00102B  3F31               	dw	16177
   214   00102D                     __end_of_lg2_h:
   215                           	callstack 0
   216   00102D  7218               	dw	29208
   217   00102F  3F31               	dw	16177
   218   001031                     __end_of_lg2:
   219                           	callstack 0
   220   001031  BB4C               	dw	47948
   221   001033  3331               	dw	13105
   222   001035                     __end_of_P5:
   223                           	callstack 0
   224   001035  EA0E               	dw	59918
   225   001037  B5DD               	dw	46557
   226   001039                     __end_of_P4:
   227                           	callstack 0
   228   001039  B355               	dw	45909
   229   00103B  388A               	dw	14474
   230   00103D                     __end_of_P3:
   231                           	callstack 0
   232   00103D  0B61               	dw	2913
   233   00103F  BB36               	dw	47926
   234   001041                     __end_of_P2:
   235                           	callstack 0
   236   001041  AAAB               	dw	43691
   237   001043  3E2A               	dw	15914
   238   001045                     __end_of_P1:
   239                           	callstack 0
   240   001045  F142               	dw	61762
   241   001047  3E53               	dw	15955
   242   001049                     __end_of_L6:
   243                           	callstack 0
   244   001049  3255               	dw	12885
   245   00104B  3E6C               	dw	15980
   246   00104D                     __end_of_L5:
   247                           	callstack 0
   248   00104D  A305               	dw	41733
   249   00104F  3E8B               	dw	16011
   250   001051                     __end_of_L4:
   251                           	callstack 0
   252   001051  AAAB               	dw	43691
   253   001053  3EAA               	dw	16042
   254   001055                     __end_of_L3:
   255                           	callstack 0
   256   001055  6DB7               	dw	28087
   257   001057  3EDB               	dw	16091
   258   001059                     __end_of_L2:
   259                           	callstack 0
   260   001059  999A               	dw	39322
   261   00105B  3F19               	dw	16153
   262   00105D                     __end_of_L1:
   263                           	callstack 0
   264   00105D  4260               	dw	16992
   265   00105F  0DA2               	dw	3490
   266   001061                     __end_of_tiny:
   267                           	callstack 0
   268   001061  F2CA               	dw	62154
   269   001063  7149               	dw	29001
   270   001065                     __end_of_huge:
   271                           	callstack 0
   272   001065  0000               	dw	0
   273   001067  4B80               	dw	19328
   274   001069                     __end_of_two24:
   275                           	callstack 0
   276   001069                     _bp:
   277                           	callstack 0
   278   001069  0000               	dw	0
   279   00106B  3F80               	dw	16256
   280   00106D  0000               	dw	0
   281   00106F  3FC0               	dw	16320
   282   001071                     __end_of_bp:
   283                           	callstack 0
   284   001071  AA00               	dw	43520
   285   001073  3FB8               	dw	16312
   286   001075                     __end_of_ivln2_h:
   287                           	callstack 0
   288   001075  23C6               	dw	9158
   289   001077  B8F6               	dw	47350
   290   001079                     __end_of_cp_l:
   291                           	callstack 0
   292   001079  4000               	dw	16384
   293   00107B  3F76               	dw	16246
   294   00107D                     __end_of_cp_h:
   295                           	callstack 0
   296   000000                     _PORTBbits	set	3969
   297   000000                     _LATD	set	3980
   298   000000                     _TRISD	set	3989
   299   000000                     _PORTCbits	set	3970
   300   00107D                     STR_10:
   301   00107D  4E                 	db	78	;'N'
   302   00107E  4F                 	db	79	;'O'
   303   00107F  20                 	db	32
   304   001080  4F                 	db	79	;'O'
   305   001081  46                 	db	70	;'F'
   306   001082  20                 	db	32
   307   001083  53                 	db	83	;'S'
   308   001084  54                 	db	84	;'T'
   309   001085  45                 	db	69	;'E'
   310   001086  50                 	db	80	;'P'
   311   001087  53                 	db	83	;'S'
   312   001088  3A                 	db	58	;':'
   313   001089  30                 	db	48	;'0'
   314   00108A  30                 	db	48	;'0'
   315   00108B  00                 	db	0
   316   00108C                     STR_4:
   317   00108C  49                 	db	73	;'I'
   318   00108D  4E                 	db	78	;'N'
   319   00108E  56                 	db	86	;'V'
   320   00108F  41                 	db	65	;'A'
   321   001090  4C                 	db	76	;'L'
   322   001091  49                 	db	73	;'I'
   323   001092  44                 	db	68	;'D'
   324   001093  20                 	db	32
   325   001094  4F                 	db	79	;'O'
   326   001095  50                 	db	80	;'P'
   327   001096  54                 	db	84	;'T'
   328   001097  49                 	db	73	;'I'
   329   001098  4F                 	db	79	;'O'
   330   001099  4E                 	db	78	;'N'
   331   00109A  00                 	db	0
   332   00109B                     STR_12:
   333   00109B  46                 	db	70	;'F'
   334   00109C  3A                 	db	58	;':'
   335   00109D  30                 	db	48	;'0'
   336   00109E  4E                 	db	78	;'N'
   337   00109F  3A                 	db	58	;':'
   338   0010A0  30                 	db	48	;'0'
   339   0010A1  50                 	db	80	;'P'
   340   0010A2  3A                 	db	58	;':'
   341   0010A3  30                 	db	48	;'0'
   342   0010A4  00                 	db	0
   343   0010A5                     STR_2:
   344   0010A5  48                 	db	72	;'H'
   345   0010A6  65                 	db	101	;'e'
   346   0010A7  6C                 	db	108	;'l'
   347   0010A8  6C                 	db	108	;'l'
   348   0010A9  6F                 	db	111	;'o'
   349   0010AA  00                 	db	0
   350   0010AB                     STR_6:
   351   0010AB  4D                 	db	77	;'M'
   352   0010AC  45                 	db	69	;'E'
   353   0010AD  4E                 	db	78	;'N'
   354   0010AE  55                 	db	85	;'U'
   355   0010AF  00                 	db	0
   356   0010B0                     STR_1:
   357   0010B0  30                 	db	48	;'0'
   358   0010B1  30                 	db	48	;'0'
   359   0010B2  30                 	db	48	;'0'
   360   0010B3  30                 	db	48	;'0'
   361   0010B4  00                 	db	0
   362   0010B5                     STR_9:
   363   0010B5  50                 	db	80	;'P'
   364   0010B6  3A                 	db	58	;':'
   365   0010B7  00                 	db	0
   366   0010B8                     STR_8:
   367   0010B8  53                 	db	83	;'S'
   368   0010B9  3A                 	db	58	;':'
   369   0010BA  00                 	db	0
   370   0010BB                     STR_7:
   371   0010BB  57                 	db	87	;'W'
   372   0010BC  3A                 	db	58	;':'
   373   0010BD  00                 	db	0
   374   0010BE  00                 	db	0	; dummy byte at the end
   375   000000                     
   376                           ; #config settings
   377                           
   378                           	psect	cinit
   379   005E5A                     __pcinit:
   380                           	callstack 0
   381   005E5A                     start_initialization:
   382                           	callstack 0
   383   005E5A                     __initialization:
   384                           	callstack 0
   385                           
   386                           ; Initialize objects allocated to BANK1 (64 bytes)
   387                           ; load TBLPTR registers with __pidataBANK1
   388   005E5A  0EB0               	movlw	low __pidataBANK1
   389   005E5C  6EF6               	movwf	tblptrl,c
   390   005E5E  0E60               	movlw	high __pidataBANK1
   391   005E60  6EF7               	movwf	tblptrh,c
   392   005E62  0E00               	movlw	low (__pidataBANK1 shr (0+16))
   393   005E64  6EF8               	movwf	tblptru,c
   394   005E66  EE01  F0BC         	lfsr	0,__pdataBANK1
   395   005E6A  EE10 F040          	lfsr	1,64
   396   005E6E                     copy_data0:
   397   005E6E  0009               	tblrd		*+
   398   005E70  CFF5 FFEE          	movff	tablat,postinc0
   399   005E74  50E5               	movf	postdec1,w,c
   400   005E76  50E1               	movf	fsr1l,w,c
   401   005E78  E1FA               	bnz	copy_data0
   402                           
   403                           ; Initialize objects allocated to BANK0 (2 bytes)
   404                           ; load TBLPTR registers with __pidataBANK0
   405   005E7A  0ED0               	movlw	low __pidataBANK0
   406   005E7C  6EF6               	movwf	tblptrl,c
   407   005E7E  0E61               	movlw	high __pidataBANK0
   408   005E80  6EF7               	movwf	tblptrh,c
   409   005E82  0E00               	movlw	low (__pidataBANK0 shr (0+16))
   410   005E84  6EF8               	movwf	tblptru,c
   411   005E86  0009               	tblrd		*+	;fetch initializer
   412   005E88  CFF5 F0F5          	movff	tablat,__pdataBANK0
   413   005E8C  0009               	tblrd		*+	;fetch initializer
   414   005E8E  CFF5 F0F6          	movff	tablat,__pdataBANK0+1
   415                           
   416                           ; Clear objects allocated to BIGRAM (1074 bytes)
   417   005E92  EE01  F0FC         	lfsr	0,__pbssBIGRAM
   418   005E96  EE14 F032          	lfsr	1,1074
   419   005E9A                     clear_0:
   420   005E9A  6AEE               	clrf	postinc0,c
   421   005E9C  50E5               	movf	postdec1,w,c
   422   005E9E  50E1               	movf	fsr1l,w,c
   423   005EA0  E1FC               	bnz	clear_0
   424   005EA2  50E2               	movf	fsr1h,w,c
   425   005EA4  E1FA               	bnz	clear_0
   426                           
   427                           ; Clear objects allocated to BANK0 (67 bytes)
   428   005EA6  EE00  F0B2         	lfsr	0,__pbssBANK0
   429   005EAA  0E43               	movlw	67
   430   005EAC                     clear_1:
   431   005EAC  6AEE               	clrf	postinc0,c
   432   005EAE  06E8               	decf	wreg,f,c
   433   005EB0  E1FD               	bnz	clear_1
   434                           
   435                           ; Clear objects allocated to COMRAM (1 bytes)
   436   005EB2  6A5F               	clrf	__pbssCOMRAM& (0+255),c
   437   005EB4                     end_of_initialization:
   438                           	callstack 0
   439   005EB4                     __end_of__initialization:
   440                           	callstack 0
   441   005EB4  0E00               	movlw	low (__Lmediumconst shr (0+16))
   442   005EB6  6EF8               	movwf	tblptru,c
   443   005EB8  0100               	movlb	0
   444   005EBA  EFCE  F02D         	goto	_main	;jump to C main() function
   445                           
   446                           	psect	bssCOMRAM
   447   00005F                     __pbssCOMRAM:
   448                           	callstack 0
   449   00005F                     ___TotalDhotiSettingCount:
   450                           	callstack 0
   451   00005F                     	ds	1
   452                           
   453                           	psect	bssBANK0
   454   0000B2                     __pbssBANK0:
   455                           	callstack 0
   456   0000B2                     fabsf@F465:
   457                           	callstack 0
   458   0000B2                     	ds	4
   459   0000B6                     _errno:
   460                           	callstack 0
   461   0000B6                     	ds	2
   462   0000B8                     _dhoti_steps:
   463                           	callstack 0
   464   0000B8                     	ds	2
   465   0000BA                     _option:
   466                           	callstack 0
   467   0000BA                     	ds	2
   468   0000BC                     _loom_p:
   469                           	callstack 0
   470   0000BC                     	ds	2
   471   0000BE                     _loom_w:
   472                           	callstack 0
   473   0000BE                     	ds	2
   474   0000C0                     _loom_s:
   475                           	callstack 0
   476   0000C0                     	ds	2
   477   0000C2                     _pos:
   478                           	callstack 0
   479   0000C2                     	ds	2
   480   0000C4                     ___LcdDelay:
   481                           	callstack 0
   482   0000C4                     	ds	2
   483   0000C6                     ___RelayOnOffDelay:
   484                           	callstack 0
   485   0000C6                     	ds	2
   486   0000C8                     ___MeterCount:
   487                           	callstack 0
   488   0000C8                     	ds	2
   489   0000CA                     ___MeterPulseCount:
   490                           	callstack 0
   491   0000CA                     	ds	2
   492   0000CC                     ___MeterPulseSettings:
   493                           	callstack 0
   494   0000CC                     	ds	2
   495   0000CE                     ___PulseTimeOut:
   496                           	callstack 0
   497   0000CE                     	ds	2
   498   0000D0                     ___StopPulseCount:
   499                           	callstack 0
   500   0000D0                     	ds	2
   501   0000D2                     ___DispPulseCount:
   502                           	callstack 0
   503   0000D2                     	ds	2
   504   0000D4                     ___Relay2Timing:
   505                           	callstack 0
   506   0000D4                     	ds	2
   507   0000D6                     ___Relay1Timing:
   508                           	callstack 0
   509   0000D6                     	ds	2
   510   0000D8                     ___SinglePickTiming:
   511                           	callstack 0
   512   0000D8                     	ds	2
   513   0000DA                     ___WeftTiming:
   514                           	callstack 0
   515   0000DA                     	ds	2
   516   0000DC                     	ds	1
   517   0000DD                     ___PneumaticIndex:
   518                           	callstack 0
   519   0000DD                     	ds	1
   520   0000DE                     ___SubMenuState:
   521                           	callstack 0
   522   0000DE                     	ds	1
   523   0000DF                     ___PrevLcdScreenState:
   524                           	callstack 0
   525   0000DF                     	ds	1
   526   0000E0                     ___LcdScreenState:
   527                           	callstack 0
   528   0000E0                     	ds	1
   529   0000E1                     ___SystemState:
   530                           	callstack 0
   531   0000E1                     	ds	1
   532   0000E2                     ___ProtectMultipleWrite:
   533                           	callstack 0
   534   0000E2                     	ds	1
   535   0000E3                     ___PneumaticSensor:
   536                           	callstack 0
   537   0000E3                     	ds	1
   538   0000E4                     ___AntiWeftCount:
   539                           	callstack 0
   540   0000E4                     	ds	1
   541   0000E5                     ___CoilSensor:
   542                           	callstack 0
   543   0000E5                     	ds	1
   544   0000E6                     ___SinglePickNoSensorTiming:
   545                           	callstack 0
   546   0000E6                     	ds	1
   547   0000E7                     ___WeftHighOrLow:
   548                           	callstack 0
   549   0000E7                     	ds	1
   550   0000E8                     ___LoomStopped:
   551                           	callstack 0
   552   0000E8                     	ds	1
   553   0000E9                     ___ms10TickPulse:
   554                           	callstack 0
   555   0000E9                     	ds	1
   556   0000EA                     ___PrevPulseState:
   557                           	callstack 0
   558   0000EA                     	ds	1
   559   0000EB                     ___PulseCount:
   560                           	callstack 0
   561   0000EB                     	ds	1
   562   0000EC                     ___DhotiStepArrayIndex:
   563                           	callstack 0
   564   0000EC                     	ds	1
   565   0000ED                     _DataArray:
   566                           	callstack 0
   567   0000ED                     	ds	5
   568   0000F2                     _DataArray2:
   569                           	callstack 0
   570   0000F2                     	ds	3
   571                           
   572                           	psect	dataBANK0
   573   0000F5                     __pdataBANK0:
   574                           	callstack 0
   575   0000F5                     _address:
   576                           	callstack 0
   577   0000F5                     	ds	1
   578   0000F6                     _value1:
   579                           	callstack 0
   580   0000F6                     	ds	1
   581                           
   582                           	psect	dataBANK1
   583   0001BC                     __pdataBANK1:
   584                           	callstack 0
   585   0001BC                     _arr:
   586                           	callstack 0
   587   0001BC                     	ds	64
   588                           
   589                           	psect	bssBIGRAM
   590   0001FC                     __pbssBIGRAM:
   591                           	callstack 0
   592   0001FC                     ___DhotiSetting_t:
   593                           	callstack 0
   594   0001FC                     	ds	594
   595   00044E                     _dhoti_values:
   596                           	callstack 0
   597   00044E                     	ds	480
   598                           
   599                           	psect	cstackBANK1
   600   000100                     __pcstackBANK1:
   601                           	callstack 0
   602   000100                     _powf$1356:
   603                           	callstack 0
   604                           
   605                           ; 4 bytes @ 0x0
   606   000100                     	ds	4
   607   000104                     _powf$1357:
   608                           	callstack 0
   609                           
   610                           ; 4 bytes @ 0x4
   611   000104                     	ds	4
   612   000108                     _powf$1361:
   613                           	callstack 0
   614                           
   615                           ; 4 bytes @ 0x8
   616   000108                     	ds	4
   617   00010C                     _powf$1362:
   618                           	callstack 0
   619                           
   620                           ; 4 bytes @ 0xC
   621   00010C                     	ds	4
   622   000110                     _powf$1363:
   623                           	callstack 0
   624                           
   625                           ; 4 bytes @ 0x10
   626   000110                     	ds	4
   627   000114                     _powf$1364:
   628                           	callstack 0
   629                           
   630                           ; 4 bytes @ 0x14
   631   000114                     	ds	4
   632   000118                     _powf$1365:
   633                           	callstack 0
   634                           
   635                           ; 4 bytes @ 0x18
   636   000118                     	ds	4
   637   00011C                     powf@t2:
   638                           	callstack 0
   639                           
   640                           ; 4 bytes @ 0x1C
   641   00011C                     	ds	4
   642   000120                     powf@z_h:
   643                           	callstack 0
   644                           
   645                           ; 4 bytes @ 0x20
   646   000120                     	ds	4
   647   000124                     powf@z_l:
   648                           	callstack 0
   649                           
   650                           ; 4 bytes @ 0x24
   651   000124                     	ds	4
   652   000128                     powf@y1:
   653                           	callstack 0
   654                           
   655                           ; 4 bytes @ 0x28
   656   000128                     	ds	4
   657   00012C                     powf@i:
   658                           	callstack 0
   659                           
   660                           ; 4 bytes @ 0x2C
   661   00012C                     	ds	4
   662   000130                     powf@s_l:
   663                           	callstack 0
   664                           
   665                           ; 4 bytes @ 0x30
   666   000130                     	ds	4
   667   000134                     powf@t_l:
   668                           	callstack 0
   669                           
   670                           ; 4 bytes @ 0x34
   671   000134                     	ds	4
   672   000138                     _powf$1355:
   673                           	callstack 0
   674                           
   675                           ; 4 bytes @ 0x38
   676   000138                     	ds	4
   677   00013C                     _powf$1359:
   678                           	callstack 0
   679                           
   680                           ; 4 bytes @ 0x3C
   681   00013C                     	ds	4
   682   000140                     _powf$1360:
   683                           	callstack 0
   684                           
   685                           ; 4 bytes @ 0x40
   686   000140                     	ds	4
   687   000144                     powf@w:
   688                           	callstack 0
   689                           
   690                           ; 4 bytes @ 0x44
   691   000144                     	ds	4
   692   000148                     _powf$1353:
   693                           	callstack 0
   694                           
   695                           ; 4 bytes @ 0x48
   696   000148                     	ds	4
   697   00014C                     powf@r:
   698                           	callstack 0
   699                           
   700                           ; 4 bytes @ 0x4C
   701   00014C                     	ds	4
   702   000150                     powf@yisint:
   703                           	callstack 0
   704                           
   705                           ; 4 bytes @ 0x50
   706   000150                     	ds	4
   707   000154                     _powf$1352:
   708                           	callstack 0
   709                           
   710                           ; 4 bytes @ 0x54
   711   000154                     	ds	4
   712   000158                     _powf$1358:
   713                           	callstack 0
   714                           
   715                           ; 4 bytes @ 0x58
   716   000158                     	ds	4
   717   00015C                     powf@s:
   718                           	callstack 0
   719                           
   720                           ; 4 bytes @ 0x5C
   721   00015C                     	ds	4
   722   000160                     powf@hx:
   723                           	callstack 0
   724                           
   725                           ; 4 bytes @ 0x60
   726   000160                     	ds	4
   727   000164                     powf@p_l:
   728                           	callstack 0
   729                           
   730                           ; 4 bytes @ 0x64
   731   000164                     	ds	4
   732   000168                     powf@t_h:
   733                           	callstack 0
   734                           
   735                           ; 4 bytes @ 0x68
   736   000168                     	ds	4
   737   00016C                     powf@s_h:
   738                           	callstack 0
   739                           
   740                           ; 4 bytes @ 0x6C
   741   00016C                     	ds	4
   742   000170                     powf@ax:
   743                           	callstack 0
   744                           
   745                           ; 4 bytes @ 0x70
   746   000170                     	ds	4
   747   000174                     powf@u:
   748                           	callstack 0
   749                           
   750                           ; 4 bytes @ 0x74
   751   000174                     	ds	4
   752   000178                     powf@v:
   753                           	callstack 0
   754                           
   755                           ; 4 bytes @ 0x78
   756   000178                     	ds	4
   757   00017C                     powf@n:
   758                           	callstack 0
   759                           
   760                           ; 4 bytes @ 0x7C
   761   00017C                     	ds	4
   762   000180                     powf@t1:
   763                           	callstack 0
   764                           
   765                           ; 4 bytes @ 0x80
   766   000180                     	ds	4
   767   000184                     powf@hy:
   768                           	callstack 0
   769                           
   770                           ; 4 bytes @ 0x84
   771   000184                     	ds	4
   772   000188                     powf@sn:
   773                           	callstack 0
   774                           
   775                           ; 4 bytes @ 0x88
   776   000188                     	ds	4
   777   00018C                     powf@s2:
   778                           	callstack 0
   779                           
   780                           ; 4 bytes @ 0x8C
   781   00018C                     	ds	4
   782   000190                     powf@is:
   783                           	callstack 0
   784                           
   785                           ; 4 bytes @ 0x90
   786   000190                     	ds	4
   787   000194                     _powf$1354:
   788                           	callstack 0
   789                           
   790                           ; 4 bytes @ 0x94
   791   000194                     	ds	4
   792   000198                     powf@iy:
   793                           	callstack 0
   794                           
   795                           ; 4 bytes @ 0x98
   796   000198                     	ds	4
   797   00019C                     powf@p_h:
   798                           	callstack 0
   799                           
   800                           ; 4 bytes @ 0x9C
   801   00019C                     	ds	4
   802   0001A0                     powf@k:
   803                           	callstack 0
   804                           
   805                           ; 4 bytes @ 0xA0
   806   0001A0                     	ds	4
   807   0001A4                     _powf$1351:
   808                           	callstack 0
   809                           
   810                           ; 4 bytes @ 0xA4
   811   0001A4                     	ds	4
   812   0001A8                     powf@ix:
   813                           	callstack 0
   814                           
   815                           ; 4 bytes @ 0xA8
   816   0001A8                     	ds	4
   817   0001AC                     powf@j:
   818                           	callstack 0
   819                           
   820                           ; 4 bytes @ 0xAC
   821   0001AC                     	ds	4
   822   0001B0                     powf@t:
   823                           	callstack 0
   824                           
   825                           ; 4 bytes @ 0xB0
   826   0001B0                     	ds	4
   827   0001B4                     powf@z:
   828                           	callstack 0
   829                           
   830                           ; 4 bytes @ 0xB4
   831   0001B4                     	ds	4
   832   0001B8                     powf@__xc8_float_word:
   833                           	callstack 0
   834                           
   835                           ; 4 bytes @ 0xB8
   836   0001B8                     	ds	4
   837                           
   838                           	psect	cstackBANK0
   839   000060                     __pcstackBANK0:
   840                           	callstack 0
   841   000060                     sqrtf@s:
   842                           	callstack 0
   843                           
   844                           ; 4 bytes @ 0x0
   845   000060                     	ds	4
   846   000064                     sqrtf@i:
   847                           	callstack 0
   848                           
   849                           ; 4 bytes @ 0x4
   850   000064                     	ds	4
   851   000068                     sqrtf@__xc8_float_word:
   852                           	callstack 0
   853                           
   854                           ; 4 bytes @ 0x8
   855   000068                     	ds	4
   856   00006C                     sqrtf@q:
   857                           	callstack 0
   858                           
   859                           ; 4 bytes @ 0xC
   860   00006C                     	ds	4
   861   000070                     sqrtf@t:
   862                           	callstack 0
   863                           
   864                           ; 4 bytes @ 0x10
   865   000070                     	ds	4
   866   000074                     sqrtf@z:
   867                           	callstack 0
   868                           
   869                           ; 4 bytes @ 0x14
   870   000074                     	ds	4
   871   000078                     sqrtf@m:
   872                           	callstack 0
   873                           
   874                           ; 4 bytes @ 0x18
   875   000078                     	ds	4
   876   00007C                     sqrtf@r:
   877                           	callstack 0
   878                           
   879                           ; 4 bytes @ 0x1C
   880   00007C                     	ds	4
   881   000080                     sqrtf@ix:
   882                           	callstack 0
   883                           
   884                           ; 4 bytes @ 0x20
   885   000080                     	ds	4
   886   000084                     ?_powf:
   887                           	callstack 0
   888   000084                     powf@x:
   889                           	callstack 0
   890                           
   891                           ; 4 bytes @ 0x24
   892   000084                     	ds	4
   893   000088                     powf@y:
   894                           	callstack 0
   895                           
   896                           ; 4 bytes @ 0x28
   897   000088                     	ds	4
   898   00008C                     ?___fltol:
   899                           	callstack 0
   900   00008C                     ___fltol@f1:
   901                           	callstack 0
   902                           
   903                           ; 4 bytes @ 0x2C
   904   00008C                     	ds	4
   905   000090                     ?_increment:
   906                           	callstack 0
   907   000090                     increment@fixed:
   908                           	callstack 0
   909                           
   910                           ; 2 bytes @ 0x30
   911   000090                     	ds	2
   912   000092                     increment@count:
   913                           	callstack 0
   914                           
   915                           ; 2 bytes @ 0x32
   916   000092                     	ds	2
   917   000094                     increment@line:
   918                           	callstack 0
   919                           
   920                           ; 1 bytes @ 0x34
   921   000094                     	ds	1
   922   000095                     increment@pos:
   923                           	callstack 0
   924                           
   925                           ; 1 bytes @ 0x35
   926   000095                     	ds	1
   927   000096                     _increment$1349:
   928                           	callstack 0
   929                           
   930                           ; 4 bytes @ 0x36
   931   000096                     	ds	4
   932   00009A                     _increment$1350:
   933                           	callstack 0
   934                           
   935                           ; 4 bytes @ 0x3A
   936   00009A                     	ds	4
   937   00009E                     increment@dynamic:
   938                           	callstack 0
   939                           
   940                           ; 2 bytes @ 0x3E
   941   00009E                     	ds	2
   942   0000A0                     increment@i:
   943                           	callstack 0
   944                           
   945                           ; 2 bytes @ 0x40
   946   0000A0                     	ds	2
   947   0000A2                     Loom_settings@count:
   948                           	callstack 0
   949   0000A2                     Dothi_settings@pos:
   950                           	callstack 0
   951                           
   952                           ; 2 bytes @ 0x42
   953   0000A2                     	ds	2
   954   0000A4                     Loom_settings@i:
   955                           	callstack 0
   956   0000A4                     Dothi_settings@pos_553:
   957                           	callstack 0
   958                           
   959                           ; 2 bytes @ 0x44
   960   0000A4                     	ds	2
   961   0000A6                     Loom_settings@i_531:
   962                           	callstack 0
   963   0000A6                     Dothi_settings@k:
   964                           	callstack 0
   965                           
   966                           ; 2 bytes @ 0x46
   967   0000A6                     	ds	2
   968   0000A8                     Loom_settings@i_532:
   969                           	callstack 0
   970   0000A8                     Dothi_settings@k_550:
   971                           	callstack 0
   972                           
   973                           ; 2 bytes @ 0x48
   974   0000A8                     	ds	2
   975   0000AA                     Dothi_settings@k_552:
   976                           	callstack 0
   977                           
   978                           ; 2 bytes @ 0x4A
   979   0000AA                     	ds	2
   980   0000AC                     Dothi_settings@i:
   981                           	callstack 0
   982                           
   983                           ; 2 bytes @ 0x4C
   984   0000AC                     	ds	2
   985   0000AE                     ??_main:
   986                           
   987                           ; 1 bytes @ 0x4E
   988   0000AE                     	ds	2
   989   0000B0                     main@opt:
   990                           	callstack 0
   991                           
   992                           ; 2 bytes @ 0x50
   993   0000B0                     	ds	2
   994                           
   995                           	psect	cstackCOMRAM
   996   000001                     __pcstackCOMRAM:
   997                           	callstack 0
   998   000001                     ??_SendLcdCommand:
   999   000001                     ??_SendLcdData:
  1000   000001                     ?___lwdiv:
  1001                           	callstack 0
  1002   000001                     ?___fladd:
  1003                           	callstack 0
  1004   000001                     ?_fabsf:
  1005                           	callstack 0
  1006   000001                     ?_nanf:
  1007                           	callstack 0
  1008   000001                     ?___flneg:
  1009                           	callstack 0
  1010   000001                     ?___xxtofl:
  1011                           	callstack 0
  1012   000001                     ValidateNumber@Data:
  1013                           	callstack 0
  1014   000001                     ___lwdiv@dividend:
  1015                           	callstack 0
  1016   000001                     nanf@s:
  1017                           	callstack 0
  1018   000001                     ___flneg@f1:
  1019                           	callstack 0
  1020   000001                     ___fladd@b:
  1021                           	callstack 0
  1022   000001                     ___xxtofl@val:
  1023                           	callstack 0
  1024   000001                     fabsf@x:
  1025                           	callstack 0
  1026                           
  1027                           ; 4 bytes @ 0x0
  1028   000001                     	ds	2
  1029   000003                     SendLcdCommand@Command:
  1030                           	callstack 0
  1031   000003                     SendLcdData@Data:
  1032                           	callstack 0
  1033   000003                     ___lwdiv@divisor:
  1034                           	callstack 0
  1035                           
  1036                           ; 2 bytes @ 0x2
  1037   000003                     	ds	1
  1038   000004                     ??_LcdInit:
  1039   000004                     LcdDisplayString@Pos:
  1040                           	callstack 0
  1041   000004                     LcdDisplayChar@Pos:
  1042                           	callstack 0
  1043   000004                     LcdDisplayOnCursorOn@Pos:
  1044                           	callstack 0
  1045                           
  1046                           ; 1 bytes @ 0x3
  1047   000004                     	ds	1
  1048   000005                     ??___xxtofl:
  1049   000005                     LcdDisplayChar@Data:
  1050                           	callstack 0
  1051   000005                     LcdDisplayOnCursorOn@RowNum:
  1052                           	callstack 0
  1053   000005                     LcdDisplayString@Data:
  1054                           	callstack 0
  1055   000005                     ___lwdiv@quotient:
  1056                           	callstack 0
  1057   000005                     ___fladd@a:
  1058                           	callstack 0
  1059   000005                     fabsf@u:
  1060                           	callstack 0
  1061   000005                     nanf@u:
  1062                           	callstack 0
  1063                           
  1064                           ; 4 bytes @ 0x4
  1065   000005                     	ds	1
  1066   000006                     LcdDisplayChar@RowNum:
  1067                           	callstack 0
  1068                           
  1069                           ; 1 bytes @ 0x5
  1070   000006                     	ds	1
  1071   000007                     LcdDisplayString@RowNum:
  1072                           	callstack 0
  1073   000007                     ___lwdiv@counter:
  1074                           	callstack 0
  1075                           
  1076                           ; 1 bytes @ 0x6
  1077   000007                     	ds	1
  1078   000008                     ?_main_menu:
  1079                           	callstack 0
  1080   000008                     ?___lwmod:
  1081                           	callstack 0
  1082   000008                     ___lwmod@dividend:
  1083                           	callstack 0
  1084                           
  1085                           ; 2 bytes @ 0x7
  1086   000008                     	ds	1
  1087   000009                     ??___fladd:
  1088   000009                     ___xxtofl@sign:
  1089                           	callstack 0
  1090                           
  1091                           ; 1 bytes @ 0x8
  1092   000009                     	ds	1
  1093   00000A                     ??_main_menu:
  1094   00000A                     ___xxtofl@exp:
  1095                           	callstack 0
  1096   00000A                     ___lwmod@divisor:
  1097                           	callstack 0
  1098                           
  1099                           ; 2 bytes @ 0x9
  1100   00000A                     	ds	1
  1101   00000B                     ___xxtofl@arg:
  1102                           	callstack 0
  1103                           
  1104                           ; 4 bytes @ 0xA
  1105   00000B                     	ds	1
  1106   00000C                     ___lwmod@counter:
  1107                           	callstack 0
  1108                           
  1109                           ; 1 bytes @ 0xB
  1110   00000C                     	ds	1
  1111   00000D                     LcdDisplayNumber@Pos:
  1112                           	callstack 0
  1113   00000D                     LcdDisplaytwo@Pos:
  1114                           	callstack 0
  1115   00000D                     ___fladd@signs:
  1116                           	callstack 0
  1117                           
  1118                           ; 1 bytes @ 0xC
  1119   00000D                     	ds	1
  1120   00000E                     ___fladd@aexp:
  1121                           	callstack 0
  1122   00000E                     LcdDisplayNumber@Data:
  1123                           	callstack 0
  1124   00000E                     LcdDisplaytwo@Data:
  1125                           	callstack 0
  1126                           
  1127                           ; 2 bytes @ 0xD
  1128   00000E                     	ds	1
  1129   00000F                     ___fladd@bexp:
  1130                           	callstack 0
  1131                           
  1132                           ; 1 bytes @ 0xE
  1133   00000F                     	ds	1
  1134   000010                     LcdDisplayNumber@RowNum:
  1135                           	callstack 0
  1136   000010                     LcdDisplaytwo@RowNum:
  1137                           	callstack 0
  1138   000010                     ___fladd@grs:
  1139                           	callstack 0
  1140                           
  1141                           ; 1 bytes @ 0xF
  1142   000010                     	ds	1
  1143   000011                     ?___flmul:
  1144                           	callstack 0
  1145   000011                     ___flmul@b:
  1146                           	callstack 0
  1147                           
  1148                           ; 4 bytes @ 0x10
  1149   000011                     	ds	4
  1150   000015                     ___flmul@a:
  1151                           	callstack 0
  1152                           
  1153                           ; 4 bytes @ 0x14
  1154   000015                     	ds	4
  1155   000019                     ??___flmul:
  1156                           
  1157                           ; 1 bytes @ 0x18
  1158   000019                     	ds	4
  1159   00001D                     ___flmul@sign:
  1160                           	callstack 0
  1161                           
  1162                           ; 1 bytes @ 0x1C
  1163   00001D                     	ds	1
  1164   00001E                     ___flmul@grs:
  1165                           	callstack 0
  1166                           
  1167                           ; 4 bytes @ 0x1D
  1168   00001E                     	ds	4
  1169   000022                     ___flmul@aexp:
  1170                           	callstack 0
  1171                           
  1172                           ; 1 bytes @ 0x21
  1173   000022                     	ds	1
  1174   000023                     ___flmul@bexp:
  1175                           	callstack 0
  1176                           
  1177                           ; 1 bytes @ 0x22
  1178   000023                     	ds	1
  1179   000024                     ___flmul@prod:
  1180                           	callstack 0
  1181                           
  1182                           ; 4 bytes @ 0x23
  1183   000024                     	ds	4
  1184   000028                     ___flmul@temp:
  1185                           	callstack 0
  1186                           
  1187                           ; 2 bytes @ 0x27
  1188   000028                     	ds	2
  1189   00002A                     ?___flsub:
  1190                           	callstack 0
  1191   00002A                     ?_scalbnf:
  1192                           	callstack 0
  1193   00002A                     ___flsub@b:
  1194                           	callstack 0
  1195   00002A                     scalbnf@x:
  1196                           	callstack 0
  1197                           
  1198                           ; 4 bytes @ 0x29
  1199   00002A                     	ds	4
  1200   00002E                     scalbnf@n:
  1201                           	callstack 0
  1202   00002E                     ___flsub@a:
  1203                           	callstack 0
  1204                           
  1205                           ; 4 bytes @ 0x2D
  1206   00002E                     	ds	2
  1207   000030                     ??_scalbnf:
  1208                           
  1209                           ; 1 bytes @ 0x2F
  1210   000030                     	ds	2
  1211   000032                     ?___fldiv:
  1212                           	callstack 0
  1213   000032                     ___flge@ff1:
  1214                           	callstack 0
  1215   000032                     ___fldiv@b:
  1216                           	callstack 0
  1217                           
  1218                           ; 4 bytes @ 0x31
  1219   000032                     	ds	2
  1220   000034                     scalbnf@u:
  1221                           	callstack 0
  1222                           
  1223                           ; 4 bytes @ 0x33
  1224   000034                     	ds	2
  1225   000036                     ___flge@ff2:
  1226                           	callstack 0
  1227   000036                     ___fldiv@a:
  1228                           	callstack 0
  1229                           
  1230                           ; 4 bytes @ 0x35
  1231   000036                     	ds	2
  1232   000038                     scalbnf@y:
  1233                           	callstack 0
  1234                           
  1235                           ; 4 bytes @ 0x37
  1236   000038                     	ds	2
  1237   00003A                     ??___fldiv:
  1238   00003A                     ??___flge:
  1239                           
  1240                           ; 1 bytes @ 0x39
  1241   00003A                     	ds	4
  1242   00003E                     ?_sqrtf:
  1243                           	callstack 0
  1244   00003E                     ___fldiv@rem:
  1245                           	callstack 0
  1246   00003E                     sqrtf@x:
  1247                           	callstack 0
  1248                           
  1249                           ; 4 bytes @ 0x3D
  1250   00003E                     	ds	4
  1251   000042                     ??_sqrtf:
  1252   000042                     ___fldiv@sign:
  1253                           	callstack 0
  1254                           
  1255                           ; 1 bytes @ 0x41
  1256   000042                     	ds	1
  1257   000043                     ___fldiv@new_exp:
  1258                           	callstack 0
  1259                           
  1260                           ; 2 bytes @ 0x42
  1261   000043                     	ds	2
  1262   000045                     ___fldiv@grs:
  1263                           	callstack 0
  1264                           
  1265                           ; 4 bytes @ 0x44
  1266   000045                     	ds	4
  1267   000049                     ___fldiv@bexp:
  1268                           	callstack 0
  1269                           
  1270                           ; 1 bytes @ 0x48
  1271   000049                     	ds	1
  1272   00004A                     ___fldiv@aexp:
  1273                           	callstack 0
  1274                           
  1275                           ; 1 bytes @ 0x49
  1276   00004A                     	ds	1
  1277   00004B                     ??_powf:
  1278                           
  1279                           ; 1 bytes @ 0x4A
  1280   00004B                     	ds	9
  1281   000054                     ??___fltol:
  1282                           
  1283                           ; 1 bytes @ 0x53
  1284   000054                     	ds	4
  1285   000058                     ___fltol@sign1:
  1286                           	callstack 0
  1287                           
  1288                           ; 1 bytes @ 0x57
  1289   000058                     	ds	1
  1290   000059                     ___fltol@exp1:
  1291                           	callstack 0
  1292                           
  1293                           ; 1 bytes @ 0x58
  1294   000059                     	ds	1
  1295   00005A                     ??_increment:
  1296                           
  1297                           ; 1 bytes @ 0x59
  1298   00005A                     	ds	1
  1299   00005B                     ??_Loom_settings:
  1300   00005B                     ??_Dothi_settings:
  1301                           
  1302                           ; 1 bytes @ 0x5A
  1303   00005B                     	ds	4
  1304                           
  1305 ;;
  1306 ;;Main: autosize = 0, tempsize = 2, incstack = 0, save=0
  1307 ;;
  1308 ;; *************** function _main *****************
  1309 ;; Defined at:
  1310 ;;		line 39 in file "main.c"
  1311 ;; Parameters:    Size  Location     Type
  1312 ;;		None
  1313 ;; Auto vars:     Size  Location     Type
  1314 ;;  opt             2   80[BANK0 ] int 
  1315 ;; Return value:  Size  Location     Type
  1316 ;;                  1    wreg      void 
  1317 ;; Registers used:
  1318 ;;		wreg, fsr0l, fsr0h, fsr2l, fsr2h, status,2, status,0, tblptrl, tblptrh, tblptru, prodl, prodh, cstack
  1319 ;; Tracked objects:
  1320 ;;		On entry : 0/0
  1321 ;;		On exit  : 0/0
  1322 ;;		Unchanged: 0/0
  1323 ;; Data sizes:     COMRAM   BANK0   BANK1   BANK2   BANK3   BANK4   BANK5   BANK6   BANK7   BANK8   BANK9  BANK10  BANK1
      +1  BANK12  BANK13  BANK14  BANK15
  1324 ;;      Params:         0       0       0       0       0       0       0       0       0       0       0       0       
      +0       0       0       0       0
  1325 ;;      Locals:         0       2       0       0       0       0       0       0       0       0       0       0       
      +0       0       0       0       0
  1326 ;;      Temps:          0       2       0       0       0       0       0       0       0       0       0       0       
      +0       0       0       0       0
  1327 ;;      Totals:         0       4       0       0       0       0       0       0       0       0       0       0       
      +0       0       0       0       0
  1328 ;;Total ram usage:        4 bytes
  1329 ;; Hardware stack levels required when called: 5
  1330 ;; This function calls:
  1331 ;;		_Dothi_settings
  1332 ;;		_LcdClearDisplay
  1333 ;;		_LcdDisplayString
  1334 ;;		_LcdInit
  1335 ;;		_Loom_settings
  1336 ;;		_Reset_settings
  1337 ;;		_main_menu
  1338 ;; This function is called by:
  1339 ;;		Startup code after reset
  1340 ;; This function uses a non-reentrant model
  1341 ;;
  1342                           
  1343                           	psect	text0
  1344   005B9C                     __ptext0:
  1345                           	callstack 0
  1346   005B9C                     _main:
  1347                           	callstack 26
  1348   005B9C                     
  1349                           ;main.c: 40:     LcdInit();
  1350   005B9C  EC6C  F02E         	call	_LcdInit	;wreg free
  1351   005BA0                     
  1352                           ;main.c: 41:     int opt = main_menu();
  1353   005BA0  EC73  F02D         	call	_main_menu	;wreg free
  1354   005BA4  C008  F0B0         	movff	?_main_menu,main@opt
  1355   005BA8  C009  F0B1         	movff	?_main_menu+1,main@opt+1
  1356   005BAC                     
  1357                           ;main.c: 42:     LcdClearDisplay();
  1358   005BAC  ECE4  F030         	call	_LcdClearDisplay	;wreg free
  1359                           
  1360                           ;main.c: 43:     switch(opt+1){
  1361   005BB0  EFFC  F02D         	goto	l4553
  1362   005BB4                     l4541:
  1363                           
  1364                           ; BSR set to: 0
  1365                           ;main.c: 45:             LcdDisplayString(1,0,"INVALID OPTION");
  1366   005BB4  0E00               	movlw	0
  1367   005BB6  6E04               	movwf	LcdDisplayString@Pos^0,c
  1368   005BB8  0E8C               	movlw	low STR_4
  1369   005BBA  6E05               	movwf	LcdDisplayString@Data^0,c
  1370   005BBC  0E10               	movlw	high STR_4
  1371   005BBE  6E06               	movwf	(LcdDisplayString@Data+1)^0,c
  1372   005BC0  0E01               	movlw	1
  1373   005BC2  EC1F  F02E         	call	_LcdDisplayString
  1374                           
  1375                           ;main.c: 46:             break;
  1376   005BC6  EF1D  F02E         	goto	l274
  1377   005BCA                     l4543:
  1378                           
  1379                           ; BSR set to: 0
  1380                           ;main.c: 48:             Loom_settings();
  1381   005BCA  EC7F  F029         	call	_Loom_settings	;wreg free
  1382                           
  1383                           ;main.c: 49:             break;
  1384   005BCE  EF1D  F02E         	goto	l274
  1385   005BD2                     l4545:
  1386                           
  1387                           ; BSR set to: 0
  1388                           ;main.c: 51:             Dothi_settings();
  1389   005BD2  ECDC  F01C         	call	_Dothi_settings	;wreg free
  1390                           
  1391                           ;main.c: 52:             break;
  1392   005BD6  EF1D  F02E         	goto	l274
  1393   005BDA                     l4547:
  1394                           
  1395                           ; BSR set to: 0
  1396                           ;main.c: 54:             Reset_settings();
  1397   005BDA  ECDF  F030         	call	_Reset_settings	;wreg free
  1398                           
  1399                           ;main.c: 55:             break;
  1400   005BDE  EF1D  F02E         	goto	l274
  1401   005BE2                     l4549:
  1402                           
  1403                           ; BSR set to: 0
  1404                           ;main.c: 57:             LcdDisplayString(1,0,"INVALID OPTION");
  1405   005BE2  0E00               	movlw	0
  1406   005BE4  6E04               	movwf	LcdDisplayString@Pos^0,c
  1407   005BE6  0E8C               	movlw	low STR_4
  1408   005BE8  6E05               	movwf	LcdDisplayString@Data^0,c
  1409   005BEA  0E10               	movlw	high STR_4
  1410   005BEC  6E06               	movwf	(LcdDisplayString@Data+1)^0,c
  1411   005BEE  0E01               	movlw	1
  1412   005BF0  EC1F  F02E         	call	_LcdDisplayString
  1413                           
  1414                           ;main.c: 58:             break;
  1415   005BF4  EF1D  F02E         	goto	l274
  1416   005BF8                     l4553:
  1417   005BF8  0E01               	movlw	1
  1418   005BFA  0100               	movlb	0	; () banked
  1419   005BFC  25B0               	addwf	main@opt& (0+255),w,b
  1420   005BFE  6FAE               	movwf	??_main& (0+255),b
  1421   005C00  0E00               	movlw	0
  1422   005C02  21B1               	addwfc	(main@opt+1)& (0+255),w,b
  1423   005C04  6FAF               	movwf	(??_main+1)& (0+255),b
  1424                           
  1425                           ; Switch on 2 bytes has been partitioned into a top level switch of size 1, and 1 sub-sw
      +                          itches
  1426                           ; Switch size 1, requested type "simple"
  1427                           ; Number of cases is 1, Range of values is 0 to 0
  1428                           ; switch strategies available:
  1429                           ; Name         Instructions Cycles
  1430                           ; simple_byte            4     3 (average)
  1431                           ;	Chosen strategy is simple_byte
  1432   005C06  51AF               	movf	(??_main+1)& (0+255),w,b
  1433   005C08  0A00               	xorlw	0	; case 0
  1434   005C0A  B4D8               	btfsc	status,2,c
  1435   005C0C  EF0A  F02E         	goto	l4579
  1436   005C10  EFF1  F02D         	goto	l4549
  1437   005C14                     l4579:
  1438                           
  1439                           ; BSR set to: 0
  1440                           ; Switch size 1, requested type "simple"
  1441                           ; Number of cases is 4, Range of values is 1 to 4
  1442                           ; switch strategies available:
  1443                           ; Name         Instructions Cycles
  1444                           ; simple_byte           13     7 (average)
  1445                           ;	Chosen strategy is simple_byte
  1446   005C14  51AE               	movf	??_main& (0+255),w,b
  1447   005C16  0A01               	xorlw	1	; case 1
  1448   005C18  B4D8               	btfsc	status,2,c
  1449   005C1A  EFDA  F02D         	goto	l4541
  1450   005C1E  0A03               	xorlw	3	; case 2
  1451   005C20  B4D8               	btfsc	status,2,c
  1452   005C22  EFE5  F02D         	goto	l4543
  1453   005C26  0A01               	xorlw	1	; case 3
  1454   005C28  B4D8               	btfsc	status,2,c
  1455   005C2A  EFE9  F02D         	goto	l4545
  1456   005C2E  0A07               	xorlw	7	; case 4
  1457   005C30  B4D8               	btfsc	status,2,c
  1458   005C32  EFED  F02D         	goto	l4547
  1459   005C36  EFF1  F02D         	goto	l4549
  1460   005C3A                     l274:
  1461   005C3A  EF00  F000         	goto	start
  1462   005C3E                     __end_of_main:
  1463                           	callstack 0
  1464                           
  1465 ;; *************** function _main_menu *****************
  1466 ;; Defined at:
  1467 ;;		line 62 in file "main.c"
  1468 ;; Parameters:    Size  Location     Type
  1469 ;;		None
  1470 ;; Auto vars:     Size  Location     Type
  1471 ;;		None
  1472 ;; Return value:  Size  Location     Type
  1473 ;;                  2    7[COMRAM] int 
  1474 ;; Registers used:
  1475 ;;		wreg, fsr0l, fsr0h, status,2, status,0, tblptrl, tblptrh, tblptru, cstack
  1476 ;; Tracked objects:
  1477 ;;		On entry : 0/0
  1478 ;;		On exit  : 0/0
  1479 ;;		Unchanged: 0/0
  1480 ;; Data sizes:     COMRAM   BANK0   BANK1   BANK2   BANK3   BANK4   BANK5   BANK6   BANK7   BANK8   BANK9  BANK10  BANK1
      +1  BANK12  BANK13  BANK14  BANK15
  1481 ;;      Params:         2       0       0       0       0       0       0       0       0       0       0       0       
      +0       0       0       0       0
  1482 ;;      Locals:         0       0       0       0       0       0       0       0       0       0       0       0       
      +0       0       0       0       0
  1483 ;;      Temps:          2       0       0       0       0       0       0       0       0       0       0       0       
      +0       0       0       0       0
  1484 ;;      Totals:         4       0       0       0       0       0       0       0       0       0       0       0       
      +0       0       0       0       0
  1485 ;;Total ram usage:        4 bytes
  1486 ;; Hardware stack levels used: 1
  1487 ;; Hardware stack levels required when called: 2
  1488 ;; This function calls:
  1489 ;;		_LcdClearDisplay
  1490 ;;		_LcdDisplayString
  1491 ;; This function is called by:
  1492 ;;		_main
  1493 ;; This function uses a non-reentrant model
  1494 ;;
  1495                           
  1496                           	psect	text1
  1497   005AE6                     __ptext1:
  1498                           	callstack 0
  1499   005AE6                     _main_menu:
  1500                           	callstack 28
  1501   005AE6                     l277:
  1502   005AE6                     
  1503                           ;main.c: 64:         LcdDisplayString(1,6,"MENU");
  1504   005AE6  0E06               	movlw	6
  1505   005AE8  6E04               	movwf	LcdDisplayString@Pos^0,c
  1506   005AEA  0EAB               	movlw	low STR_6
  1507   005AEC  6E05               	movwf	LcdDisplayString@Data^0,c
  1508   005AEE  0E10               	movlw	high STR_6
  1509   005AF0  6E06               	movwf	(LcdDisplayString@Data+1)^0,c
  1510   005AF2  0E01               	movlw	1
  1511   005AF4  EC1F  F02E         	call	_LcdDisplayString
  1512                           
  1513                           ;main.c: 65:         LcdDisplayString(2,0,arr[option]);
  1514   005AF8  0E00               	movlw	0
  1515   005AFA  6E04               	movwf	LcdDisplayString@Pos^0,c
  1516   005AFC  C0BA  F00A         	movff	_option,??_main_menu
  1517   005B00  C0BB  F00B         	movff	_option+1,??_main_menu+1
  1518   005B04  3A0A               	swapf	??_main_menu^0,f,c
  1519   005B06  3A0B               	swapf	(??_main_menu+1)^0,f,c
  1520   005B08  0EF0               	movlw	240
  1521   005B0A  160B               	andwf	(??_main_menu+1)^0,f,c
  1522   005B0C  500A               	movf	??_main_menu^0,w,c
  1523   005B0E  0B0F               	andlw	15
  1524   005B10  120B               	iorwf	(??_main_menu+1)^0,f,c
  1525   005B12  0EF0               	movlw	240
  1526   005B14  160A               	andwf	??_main_menu^0,f,c
  1527   005B16  0EBC               	movlw	low _arr
  1528   005B18  240A               	addwf	??_main_menu^0,w,c
  1529   005B1A  6E05               	movwf	LcdDisplayString@Data^0,c
  1530   005B1C  0E01               	movlw	high _arr
  1531   005B1E  200B               	addwfc	(??_main_menu+1)^0,w,c
  1532   005B20  6E06               	movwf	(LcdDisplayString@Data+1)^0,c
  1533   005B22  0E02               	movlw	2
  1534   005B24  EC1F  F02E         	call	_LcdDisplayString
  1535                           
  1536                           ;main.c: 66:         while(PORTBbits.RB5 == 0 ){
  1537   005B28  EFA3  F02D         	goto	l278
  1538   005B2C                     l279:
  1539                           
  1540                           ;main.c: 67:             if(PORTBbits.RB0 == 1)
  1541   005B2C  A081               	btfss	129,0,c	;volatile
  1542   005B2E  EF9B  F02D         	goto	u4281
  1543   005B32  EF9D  F02D         	goto	u4280
  1544   005B36                     u4281:
  1545   005B36  EFA3  F02D         	goto	l278
  1546   005B3A                     u4280:
  1547   005B3A                     
  1548                           ;main.c: 68:                 return option;
  1549   005B3A  C0BA  F008         	movff	_option,?_main_menu
  1550   005B3E  C0BB  F009         	movff	_option+1,?_main_menu+1
  1551   005B42  EFCD  F02D         	goto	l281
  1552   005B46                     l278:
  1553                           
  1554                           ;main.c: 66:         while(PORTBbits.RB5 == 0 ){
  1555   005B46  AA81               	btfss	129,5,c	;volatile
  1556   005B48  EFA8  F02D         	goto	u4291
  1557   005B4C  EFAA  F02D         	goto	u4290
  1558   005B50                     u4291:
  1559   005B50  EF96  F02D         	goto	l279
  1560   005B54                     u4290:
  1561   005B54                     
  1562                           ;main.c: 70:         _delay((unsigned long)((10)*(20000000/4000.0)));
  1563   005B54  0E41               	movlw	65
  1564   005B56  6E0A               	movwf	??_main_menu^0,c
  1565   005B58  0EEE               	movlw	238
  1566   005B5A                     u4457:
  1567   005B5A  2EE8               	decfsz	wreg,f,c
  1568   005B5C  D7FE               	bra	u4457
  1569   005B5E  2E0A               	decfsz	??_main_menu^0,f,c
  1570   005B60  D7FC               	bra	u4457
  1571   005B62  D000               	nop2	
  1572   005B64                     
  1573                           ;main.c: 71:         if(option < 3)
  1574   005B64  0100               	movlb	0	; () banked
  1575   005B66  BFBB               	btfsc	(_option+1)& (0+255),7,b
  1576   005B68  EFC1  F02D         	goto	u4300
  1577   005B6C  51BB               	movf	(_option+1)& (0+255),w,b
  1578   005B6E  E107               	bnz	u4301
  1579   005B70  0E03               	movlw	3
  1580   005B72  5DBA               	subwf	_option& (0+255),w,b
  1581   005B74  B0D8               	btfsc	status,0,c
  1582   005B76  EFBF  F02D         	goto	u4301
  1583   005B7A  EFC1  F02D         	goto	u4300
  1584   005B7E                     u4301:
  1585   005B7E  EFC5  F02D         	goto	l4301
  1586   005B82                     u4300:
  1587   005B82                     
  1588                           ; BSR set to: 0
  1589                           ;main.c: 72:             ++option;
  1590   005B82  4BBA               	infsnz	_option& (0+255),f,b
  1591   005B84  2BBB               	incf	(_option+1)& (0+255),f,b
  1592   005B86  EFC9  F02D         	goto	l4303
  1593   005B8A                     l4301:
  1594                           
  1595                           ; BSR set to: 0
  1596                           ;main.c: 74:             option = 0;
  1597   005B8A  0E00               	movlw	0
  1598   005B8C  6FBB               	movwf	(_option+1)& (0+255),b
  1599   005B8E  0E00               	movlw	0
  1600   005B90  6FBA               	movwf	_option& (0+255),b
  1601   005B92                     l4303:
  1602                           
  1603                           ; BSR set to: 0
  1604                           ;main.c: 75:         LcdClearDisplay();
  1605   005B92  ECE4  F030         	call	_LcdClearDisplay	;wreg free
  1606   005B96  EF73  F02D         	goto	l277
  1607   005B9A                     l281:
  1608   005B9A  0012               	return		;funcret
  1609   005B9C                     __end_of_main_menu:
  1610                           	callstack 0
  1611                           
  1612 ;; *************** function _Reset_settings *****************
  1613 ;; Defined at:
  1614 ;;		line 183 in file "main.c"
  1615 ;; Parameters:    Size  Location     Type
  1616 ;;		None
  1617 ;; Auto vars:     Size  Location     Type
  1618 ;;		None
  1619 ;; Return value:  Size  Location     Type
  1620 ;;                  1    wreg      void 
  1621 ;; Registers used:
  1622 ;;		wreg, status,2, status,0, cstack
  1623 ;; Tracked objects:
  1624 ;;		On entry : 0/0
  1625 ;;		On exit  : 0/0
  1626 ;;		Unchanged: 0/0
  1627 ;; Data sizes:     COMRAM   BANK0   BANK1   BANK2   BANK3   BANK4   BANK5   BANK6   BANK7   BANK8   BANK9  BANK10  BANK1
      +1  BANK12  BANK13  BANK14  BANK15
  1628 ;;      Params:         0       0       0       0       0       0       0       0       0       0       0       0       
      +0       0       0       0       0
  1629 ;;      Locals:         0       0       0       0       0       0       0       0       0       0       0       0       
      +0       0       0       0       0
  1630 ;;      Temps:          0       0       0       0       0       0       0       0       0       0       0       0       
      +0       0       0       0       0
  1631 ;;      Totals:         0       0       0       0       0       0       0       0       0       0       0       0       
      +0       0       0       0       0
  1632 ;;Total ram usage:        0 bytes
  1633 ;; Hardware stack levels used: 1
  1634 ;; Hardware stack levels required when called: 2
  1635 ;; This function calls:
  1636 ;;		_LcdClearDisplay
  1637 ;; This function is called by:
  1638 ;;		_main
  1639 ;; This function uses a non-reentrant model
  1640 ;;
  1641                           
  1642                           	psect	text2
  1643   0061BE                     __ptext2:
  1644                           	callstack 0
  1645   0061BE                     _Reset_settings:
  1646                           	callstack 28
  1647   0061BE                     
  1648                           ;main.c: 184:     LcdClearDisplay();
  1649   0061BE  ECE4  F030         	call	_LcdClearDisplay	;wreg free
  1650   0061C2                     l327:
  1651   0061C2  EFE1  F030         	goto	l327
  1652   0061C6  0012               	return		;funcret
  1653   0061C8                     __end_of_Reset_settings:
  1654                           	callstack 0
  1655                           
  1656 ;; *************** function _Loom_settings *****************
  1657 ;; Defined at:
  1658 ;;		line 98 in file "main.c"
  1659 ;; Parameters:    Size  Location     Type
  1660 ;;		None
  1661 ;; Auto vars:     Size  Location     Type
  1662 ;;  i               2   72[BANK0 ] int 
  1663 ;;  i               2   70[BANK0 ] int 
  1664 ;;  i               2   68[BANK0 ] int 
  1665 ;;  count           2   66[BANK0 ] int 
  1666 ;; Return value:  Size  Location     Type
  1667 ;;                  1    wreg      void 
  1668 ;; Registers used:
  1669 ;;		wreg, fsr0l, fsr0h, fsr2l, fsr2h, status,2, status,0, tblptrl, tblptrh, tblptru, prodl, prodh, cstack
  1670 ;; Tracked objects:
  1671 ;;		On entry : 0/0
  1672 ;;		On exit  : 0/0
  1673 ;;		Unchanged: 0/0
  1674 ;; Data sizes:     COMRAM   BANK0   BANK1   BANK2   BANK3   BANK4   BANK5   BANK6   BANK7   BANK8   BANK9  BANK10  BANK1
      +1  BANK12  BANK13  BANK14  BANK15
  1675 ;;      Params:         0       0       0       0       0       0       0       0       0       0       0       0       
      +0       0       0       0       0
  1676 ;;      Locals:         0       8       0       0       0       0       0       0       0       0       0       0       
      +0       0       0       0       0
  1677 ;;      Temps:          1       0       0       0       0       0       0       0       0       0       0       0       
      +0       0       0       0       0
  1678 ;;      Totals:         1       8       0       0       0       0       0       0       0       0       0       0       
      +0       0       0       0       0
  1679 ;;Total ram usage:        9 bytes
  1680 ;; Hardware stack levels used: 1
  1681 ;; Hardware stack levels required when called: 4
  1682 ;; This function calls:
  1683 ;;		_LcdClearDisplay
  1684 ;;		_LcdDisplayNumber
  1685 ;;		_LcdDisplayString
  1686 ;;		_increment
  1687 ;; This function is called by:
  1688 ;;		_main
  1689 ;; This function uses a non-reentrant model
  1690 ;;
  1691                           
  1692                           	psect	text3
  1693   0052FE                     __ptext3:
  1694                           	callstack 0
  1695   0052FE                     _Loom_settings:
  1696                           	callstack 26
  1697   0052FE                     
  1698                           ;main.c: 99:     LcdClearDisplay();
  1699   0052FE  ECE4  F030         	call	_LcdClearDisplay	;wreg free
  1700   005302                     
  1701                           ;main.c: 100:     int count = 3;
  1702   005302  0E00               	movlw	0
  1703   005304  0100               	movlb	0	; () banked
  1704   005306  6FA3               	movwf	(Loom_settings@count+1)& (0+255),b
  1705   005308  0E03               	movlw	3
  1706   00530A  6FA2               	movwf	Loom_settings@count& (0+255),b
  1707   00530C                     
  1708                           ; BSR set to: 0
  1709                           ;main.c: 101:     LcdDisplayString(1, 0, "W:");
  1710   00530C  0E00               	movlw	0
  1711   00530E  6E04               	movwf	LcdDisplayString@Pos^0,c
  1712   005310  0EBB               	movlw	low STR_7
  1713   005312  6E05               	movwf	LcdDisplayString@Data^0,c
  1714   005314  0E10               	movlw	high STR_7
  1715   005316  6E06               	movwf	(LcdDisplayString@Data+1)^0,c
  1716   005318  0E01               	movlw	1
  1717   00531A  EC1F  F02E         	call	_LcdDisplayString
  1718   00531E                     
  1719                           ;main.c: 102:     LcdDisplayNumber(1,2,loom_w);
  1720   00531E  0E02               	movlw	2
  1721   005320  6E0D               	movwf	LcdDisplayNumber@Pos^0,c
  1722   005322  C0BE  F00E         	movff	_loom_w,LcdDisplayNumber@Data
  1723   005326  C0BF  F00F         	movff	_loom_w+1,LcdDisplayNumber@Data+1
  1724   00532A  0E01               	movlw	1
  1725   00532C  EC01  F02D         	call	_LcdDisplayNumber
  1726   005330                     
  1727                           ;main.c: 103:     LcdDisplayString(1,8,"S:");
  1728   005330  0E08               	movlw	8
  1729   005332  6E04               	movwf	LcdDisplayString@Pos^0,c
  1730   005334  0EB8               	movlw	low STR_8
  1731   005336  6E05               	movwf	LcdDisplayString@Data^0,c
  1732   005338  0E10               	movlw	high STR_8
  1733   00533A  6E06               	movwf	(LcdDisplayString@Data+1)^0,c
  1734   00533C  0E01               	movlw	1
  1735   00533E  EC1F  F02E         	call	_LcdDisplayString
  1736   005342                     
  1737                           ;main.c: 104:     LcdDisplayNumber(1,10, loom_s);
  1738   005342  0E0A               	movlw	10
  1739   005344  6E0D               	movwf	LcdDisplayNumber@Pos^0,c
  1740   005346  C0C0  F00E         	movff	_loom_s,LcdDisplayNumber@Data
  1741   00534A  C0C1  F00F         	movff	_loom_s+1,LcdDisplayNumber@Data+1
  1742   00534E  0E01               	movlw	1
  1743   005350  EC01  F02D         	call	_LcdDisplayNumber
  1744   005354                     
  1745                           ;main.c: 105:     LcdDisplayString(2,0,"P:");
  1746   005354  0E00               	movlw	0
  1747   005356  6E04               	movwf	LcdDisplayString@Pos^0,c
  1748   005358  0EB5               	movlw	low STR_9
  1749   00535A  6E05               	movwf	LcdDisplayString@Data^0,c
  1750   00535C  0E10               	movlw	high STR_9
  1751   00535E  6E06               	movwf	(LcdDisplayString@Data+1)^0,c
  1752   005360  0E02               	movlw	2
  1753   005362  EC1F  F02E         	call	_LcdDisplayString
  1754   005366                     
  1755                           ;main.c: 106:     LcdDisplayNumber(2,2,loom_p);
  1756   005366  0E02               	movlw	2
  1757   005368  6E0D               	movwf	LcdDisplayNumber@Pos^0,c
  1758   00536A  C0BC  F00E         	movff	_loom_p,LcdDisplayNumber@Data
  1759   00536E  C0BD  F00F         	movff	_loom_p+1,LcdDisplayNumber@Data+1
  1760   005372  0E02               	movlw	2
  1761   005374  EC01  F02D         	call	_LcdDisplayNumber
  1762   005378                     
  1763                           ;main.c: 107:     pos = 2;
  1764   005378  0E00               	movlw	0
  1765   00537A  0100               	movlb	0	; () banked
  1766   00537C  6FC3               	movwf	(_pos+1)& (0+255),b
  1767   00537E  0E02               	movlw	2
  1768   005380  6FC2               	movwf	_pos& (0+255),b
  1769   005382                     
  1770                           ; BSR set to: 0
  1771                           ;main.c: 108:     for(int i=count;i>=0;--i){
  1772   005382  0E00               	movlw	0
  1773   005384  6FA5               	movwf	(Loom_settings@i+1)& (0+255),b
  1774   005386  0E03               	movlw	3
  1775   005388  6FA4               	movwf	Loom_settings@i& (0+255),b
  1776   00538A                     l4329:
  1777                           
  1778                           ; BSR set to: 0
  1779                           ;main.c: 109:         loom_w = increment(loom_w, i, 1,pos);
  1780   00538A  C0BE  F090         	movff	_loom_w,increment@fixed
  1781   00538E  C0BF  F091         	movff	_loom_w+1,increment@fixed+1
  1782   005392  C0A4  F092         	movff	Loom_settings@i,increment@count
  1783   005396  C0A5  F093         	movff	Loom_settings@i+1,increment@count+1
  1784   00539A  0E01               	movlw	1
  1785   00539C  6F94               	movwf	increment@line& (0+255),b
  1786   00539E  C0C2  F095         	movff	_pos,increment@pos
  1787   0053A2  EC4E  F02B         	call	_increment	;wreg free
  1788   0053A6  C090  F0BE         	movff	?_increment,_loom_w
  1789   0053AA  C091  F0BF         	movff	?_increment+1,_loom_w+1
  1790   0053AE                     
  1791                           ;main.c: 110:         _delay((unsigned long)((20)*(20000000/4000.0)));
  1792   0053AE  0E82               	movlw	130
  1793   0053B0  6E5B               	movwf	??_Loom_settings^0,c
  1794   0053B2  0EDE               	movlw	222
  1795   0053B4                     u4467:
  1796   0053B4  2EE8               	decfsz	wreg,f,c
  1797   0053B6  D7FE               	bra	u4467
  1798   0053B8  2E5B               	decfsz	??_Loom_settings^0,f,c
  1799   0053BA  D7FC               	bra	u4467
  1800   0053BC                     
  1801                           ;main.c: 111:         ++pos;
  1802   0053BC  0100               	movlb	0	; () banked
  1803   0053BE  4BC2               	infsnz	_pos& (0+255),f,b
  1804   0053C0  2BC3               	incf	(_pos+1)& (0+255),f,b
  1805   0053C2                     
  1806                           ; BSR set to: 0
  1807                           ;main.c: 112:     }
  1808   0053C2  07A4               	decf	Loom_settings@i& (0+255),f,b
  1809   0053C4  A0D8               	btfss	status,0,c
  1810   0053C6  07A5               	decf	(Loom_settings@i+1)& (0+255),f,b
  1811   0053C8                     
  1812                           ; BSR set to: 0
  1813   0053C8  BFA5               	btfsc	(Loom_settings@i+1)& (0+255),7,b
  1814   0053CA  EFEB  F029         	goto	u4310
  1815   0053CE  EFE9  F029         	goto	u4311
  1816   0053D2                     u4311:
  1817   0053D2  EFC5  F029         	goto	l4329
  1818   0053D6                     u4310:
  1819   0053D6                     
  1820                           ; BSR set to: 0
  1821                           ;main.c: 113:     pos = 10;
  1822   0053D6  0E00               	movlw	0
  1823   0053D8  6FC3               	movwf	(_pos+1)& (0+255),b
  1824   0053DA  0E0A               	movlw	10
  1825   0053DC  6FC2               	movwf	_pos& (0+255),b
  1826   0053DE                     
  1827                           ; BSR set to: 0
  1828                           ;main.c: 114:     for(int i=count;i>=0;--i){
  1829   0053DE  C0A2  F0A6         	movff	Loom_settings@count,Loom_settings@i_531
  1830   0053E2  C0A3  F0A7         	movff	Loom_settings@count+1,Loom_settings@i_531+1
  1831   0053E6                     l4343:
  1832                           
  1833                           ; BSR set to: 0
  1834   0053E6  BFA7               	btfsc	(Loom_settings@i_531+1)& (0+255),7,b
  1835   0053E8  EFFA  F029         	goto	u4320
  1836   0053EC  EFF8  F029         	goto	u4321
  1837   0053F0                     u4321:
  1838   0053F0  EFFC  F029         	goto	l4347
  1839   0053F4                     u4320:
  1840   0053F4  EF1D  F02A         	goto	l4357
  1841   0053F8                     l4347:
  1842                           
  1843                           ; BSR set to: 0
  1844                           ;main.c: 115:         loom_s = increment(loom_s, i, 1,pos);
  1845   0053F8  C0C0  F090         	movff	_loom_s,increment@fixed
  1846   0053FC  C0C1  F091         	movff	_loom_s+1,increment@fixed+1
  1847   005400  C0A6  F092         	movff	Loom_settings@i_531,increment@count
  1848   005404  C0A7  F093         	movff	Loom_settings@i_531+1,increment@count+1
  1849   005408  0E01               	movlw	1
  1850   00540A  6F94               	movwf	increment@line& (0+255),b
  1851   00540C  C0C2  F095         	movff	_pos,increment@pos
  1852   005410  EC4E  F02B         	call	_increment	;wreg free
  1853   005414  C090  F0C0         	movff	?_increment,_loom_s
  1854   005418  C091  F0C1         	movff	?_increment+1,_loom_s+1
  1855   00541C                     
  1856                           ;main.c: 116:         _delay((unsigned long)((20)*(20000000/4000.0)));
  1857   00541C  0E82               	movlw	130
  1858   00541E  6E5B               	movwf	??_Loom_settings^0,c
  1859   005420  0EDE               	movlw	222
  1860   005422                     u4477:
  1861   005422  2EE8               	decfsz	wreg,f,c
  1862   005424  D7FE               	bra	u4477
  1863   005426  2E5B               	decfsz	??_Loom_settings^0,f,c
  1864   005428  D7FC               	bra	u4477
  1865   00542A                     
  1866                           ;main.c: 117:         ++pos;
  1867   00542A  0100               	movlb	0	; () banked
  1868   00542C  4BC2               	infsnz	_pos& (0+255),f,b
  1869   00542E  2BC3               	incf	(_pos+1)& (0+255),f,b
  1870   005430                     
  1871                           ; BSR set to: 0
  1872                           ;main.c: 118:     }
  1873   005430  07A6               	decf	Loom_settings@i_531& (0+255),f,b
  1874   005432  A0D8               	btfss	status,0,c
  1875   005434  07A7               	decf	(Loom_settings@i_531+1)& (0+255),f,b
  1876   005436  EFF3  F029         	goto	l4343
  1877   00543A                     l4357:
  1878                           
  1879                           ; BSR set to: 0
  1880                           ;main.c: 119:     pos = 2;
  1881   00543A  0E00               	movlw	0
  1882   00543C  6FC3               	movwf	(_pos+1)& (0+255),b
  1883   00543E  0E02               	movlw	2
  1884   005440  6FC2               	movwf	_pos& (0+255),b
  1885   005442                     
  1886                           ; BSR set to: 0
  1887                           ;main.c: 120:     for(int i=count;i>=0;--i){
  1888   005442  C0A2  F0A8         	movff	Loom_settings@count,Loom_settings@i_532
  1889   005446  C0A3  F0A9         	movff	Loom_settings@count+1,Loom_settings@i_532+1
  1890   00544A                     l4361:
  1891                           
  1892                           ; BSR set to: 0
  1893   00544A  BFA9               	btfsc	(Loom_settings@i_532+1)& (0+255),7,b
  1894   00544C  EF2C  F02A         	goto	u4330
  1895   005450  EF2A  F02A         	goto	u4331
  1896   005454                     u4331:
  1897   005454  EF2E  F02A         	goto	l4365
  1898   005458                     u4330:
  1899   005458  EF4F  F02A         	goto	l307
  1900   00545C                     l4365:
  1901                           
  1902                           ; BSR set to: 0
  1903                           ;main.c: 121:         loom_p = increment(loom_p, i, 2,pos);
  1904   00545C  C0BC  F090         	movff	_loom_p,increment@fixed
  1905   005460  C0BD  F091         	movff	_loom_p+1,increment@fixed+1
  1906   005464  C0A8  F092         	movff	Loom_settings@i_532,increment@count
  1907   005468  C0A9  F093         	movff	Loom_settings@i_532+1,increment@count+1
  1908   00546C  0E02               	movlw	2
  1909   00546E  6F94               	movwf	increment@line& (0+255),b
  1910   005470  C0C2  F095         	movff	_pos,increment@pos
  1911   005474  EC4E  F02B         	call	_increment	;wreg free
  1912   005478  C090  F0BC         	movff	?_increment,_loom_p
  1913   00547C  C091  F0BD         	movff	?_increment+1,_loom_p+1
  1914   005480                     
  1915                           ;main.c: 122:         _delay((unsigned long)((20)*(20000000/4000.0)));
  1916   005480  0E82               	movlw	130
  1917   005482  6E5B               	movwf	??_Loom_settings^0,c
  1918   005484  0EDE               	movlw	222
  1919   005486                     u4487:
  1920   005486  2EE8               	decfsz	wreg,f,c
  1921   005488  D7FE               	bra	u4487
  1922   00548A  2E5B               	decfsz	??_Loom_settings^0,f,c
  1923   00548C  D7FC               	bra	u4487
  1924   00548E                     
  1925                           ;main.c: 123:         ++pos;
  1926   00548E  0100               	movlb	0	; () banked
  1927   005490  4BC2               	infsnz	_pos& (0+255),f,b
  1928   005492  2BC3               	incf	(_pos+1)& (0+255),f,b
  1929   005494                     
  1930                           ; BSR set to: 0
  1931                           ;main.c: 124:     }
  1932   005494  07A8               	decf	Loom_settings@i_532& (0+255),f,b
  1933   005496  A0D8               	btfss	status,0,c
  1934   005498  07A9               	decf	(Loom_settings@i_532+1)& (0+255),f,b
  1935   00549A  EF25  F02A         	goto	l4361
  1936   00549E                     l307:
  1937                           
  1938                           ;main.c: 125:     while(PORTCbits.RC0 == 0){
  1939   00549E  A082               	btfss	130,0,c	;volatile
  1940   0054A0  EF54  F02A         	goto	u4341
  1941   0054A4  EF56  F02A         	goto	u4340
  1942   0054A8                     u4341:
  1943   0054A8  EF4F  F02A         	goto	l307
  1944   0054AC                     u4340:
  1945   0054AC                     
  1946                           ;main.c: 127:     LcdClearDisplay();
  1947   0054AC  ECE4  F030         	call	_LcdClearDisplay	;wreg free
  1948   0054B0                     
  1949                           ;main.c: 128:     LcdDisplayNumber(1,0,loom_s);
  1950   0054B0  0E00               	movlw	0
  1951   0054B2  6E0D               	movwf	LcdDisplayNumber@Pos^0,c
  1952   0054B4  C0C0  F00E         	movff	_loom_s,LcdDisplayNumber@Data
  1953   0054B8  C0C1  F00F         	movff	_loom_s+1,LcdDisplayNumber@Data+1
  1954   0054BC  0E01               	movlw	1
  1955   0054BE  EC01  F02D         	call	_LcdDisplayNumber
  1956   0054C2                     
  1957                           ;main.c: 129:     LcdDisplayNumber(1,8,loom_w);
  1958   0054C2  0E08               	movlw	8
  1959   0054C4  6E0D               	movwf	LcdDisplayNumber@Pos^0,c
  1960   0054C6  C0BE  F00E         	movff	_loom_w,LcdDisplayNumber@Data
  1961   0054CA  C0BF  F00F         	movff	_loom_w+1,LcdDisplayNumber@Data+1
  1962   0054CE  0E01               	movlw	1
  1963   0054D0  EC01  F02D         	call	_LcdDisplayNumber
  1964   0054D4                     
  1965                           ;main.c: 130:     LcdDisplayNumber(2,0,loom_p);
  1966   0054D4  0E00               	movlw	0
  1967   0054D6  6E0D               	movwf	LcdDisplayNumber@Pos^0,c
  1968   0054D8  C0BC  F00E         	movff	_loom_p,LcdDisplayNumber@Data
  1969   0054DC  C0BD  F00F         	movff	_loom_p+1,LcdDisplayNumber@Data+1
  1970   0054E0  0E02               	movlw	2
  1971   0054E2  EC01  F02D         	call	_LcdDisplayNumber
  1972   0054E6  0012               	return		;funcret
  1973   0054E8                     __end_of_Loom_settings:
  1974                           	callstack 0
  1975                           
  1976 ;; *************** function _LcdInit *****************
  1977 ;; Defined at:
  1978 ;;		line 54 in file "lcd.c"
  1979 ;; Parameters:    Size  Location     Type
  1980 ;;		None
  1981 ;; Auto vars:     Size  Location     Type
  1982 ;;		None
  1983 ;; Return value:  Size  Location     Type
  1984 ;;                  1    wreg      void 
  1985 ;; Registers used:
  1986 ;;		wreg, status,2, status,0, cstack
  1987 ;; Tracked objects:
  1988 ;;		On entry : 0/0
  1989 ;;		On exit  : 0/0
  1990 ;;		Unchanged: 0/0
  1991 ;; Data sizes:     COMRAM   BANK0   BANK1   BANK2   BANK3   BANK4   BANK5   BANK6   BANK7   BANK8   BANK9  BANK10  BANK1
      +1  BANK12  BANK13  BANK14  BANK15
  1992 ;;      Params:         0       0       0       0       0       0       0       0       0       0       0       0       
      +0       0       0       0       0
  1993 ;;      Locals:         0       0       0       0       0       0       0       0       0       0       0       0       
      +0       0       0       0       0
  1994 ;;      Temps:          1       0       0       0       0       0       0       0       0       0       0       0       
      +0       0       0       0       0
  1995 ;;      Totals:         1       0       0       0       0       0       0       0       0       0       0       0       
      +0       0       0       0       0
  1996 ;;Total ram usage:        1 bytes
  1997 ;; Hardware stack levels used: 1
  1998 ;; Hardware stack levels required when called: 1
  1999 ;; This function calls:
  2000 ;;		_SendLcdCommand
  2001 ;; This function is called by:
  2002 ;;		_main
  2003 ;; This function uses a non-reentrant model
  2004 ;;
  2005                           
  2006                           	psect	text4
  2007   005CD8                     __ptext4:
  2008                           	callstack 0
  2009   005CD8                     _LcdInit:
  2010                           	callstack 29
  2011   005CD8                     
  2012                           ;lcd.c: 56:     TRISD = 0;
  2013   005CD8  0E00               	movlw	0
  2014   005CDA  6E95               	movwf	149,c	;volatile
  2015                           
  2016                           ;lcd.c: 57:     LATD = 0;
  2017   005CDC  0E00               	movlw	0
  2018   005CDE  6E8C               	movwf	140,c	;volatile
  2019   005CE0                     
  2020                           ;lcd.c: 58:     _delay((unsigned long)((1)*(20000000/4000.0)));
  2021   005CE0  0E07               	movlw	7
  2022   005CE2  6E04               	movwf	??_LcdInit^0,c
  2023   005CE4  0E7D               	movlw	125
  2024   005CE6                     u4497:
  2025   005CE6  2EE8               	decfsz	wreg,f,c
  2026   005CE8  D7FE               	bra	u4497
  2027   005CEA  2E04               	decfsz	??_LcdInit^0,f,c
  2028   005CEC  D7FC               	bra	u4497
  2029   005CEE  F000               	nop	
  2030   005CF0                     
  2031                           ;lcd.c: 59:     SendLcdCommand( 0X03 );
  2032   005CF0  0E03               	movlw	3
  2033   005CF2  ECE9  F02F         	call	_SendLcdCommand
  2034   005CF6                     
  2035                           ;lcd.c: 60:     _delay((unsigned long)((5)*(20000000/4000.0)));
  2036   005CF6  0E21               	movlw	33
  2037   005CF8  6E04               	movwf	??_LcdInit^0,c
  2038   005CFA  0E76               	movlw	118
  2039   005CFC                     u4507:
  2040   005CFC  2EE8               	decfsz	wreg,f,c
  2041   005CFE  D7FE               	bra	u4507
  2042   005D00  2E04               	decfsz	??_LcdInit^0,f,c
  2043   005D02  D7FC               	bra	u4507
  2044   005D04  D000               	nop2	
  2045   005D06                     
  2046                           ;lcd.c: 61:     SendLcdCommand( 0X03 );
  2047   005D06  0E03               	movlw	3
  2048   005D08  ECE9  F02F         	call	_SendLcdCommand
  2049   005D0C                     
  2050                           ;lcd.c: 62:     _delay((unsigned long)((5)*(20000000/4000.0)));
  2051   005D0C  0E21               	movlw	33
  2052   005D0E  6E04               	movwf	??_LcdInit^0,c
  2053   005D10  0E76               	movlw	118
  2054   005D12                     u4517:
  2055   005D12  2EE8               	decfsz	wreg,f,c
  2056   005D14  D7FE               	bra	u4517
  2057   005D16  2E04               	decfsz	??_LcdInit^0,f,c
  2058   005D18  D7FC               	bra	u4517
  2059   005D1A  D000               	nop2	
  2060   005D1C                     
  2061                           ;lcd.c: 63:     SendLcdCommand(0X03);
  2062   005D1C  0E03               	movlw	3
  2063   005D1E  ECE9  F02F         	call	_SendLcdCommand
  2064   005D22                     
  2065                           ;lcd.c: 64:     _delay((unsigned long)((5)*(20000000/4000.0)));
  2066   005D22  0E21               	movlw	33
  2067   005D24  6E04               	movwf	??_LcdInit^0,c
  2068   005D26  0E76               	movlw	118
  2069   005D28                     u4527:
  2070   005D28  2EE8               	decfsz	wreg,f,c
  2071   005D2A  D7FE               	bra	u4527
  2072   005D2C  2E04               	decfsz	??_LcdInit^0,f,c
  2073   005D2E  D7FC               	bra	u4527
  2074   005D30  D000               	nop2	
  2075   005D32                     
  2076                           ;lcd.c: 65:     SendLcdCommand(0X03);
  2077   005D32  0E03               	movlw	3
  2078   005D34  ECE9  F02F         	call	_SendLcdCommand
  2079   005D38                     
  2080                           ;lcd.c: 66:     _delay((unsigned long)((5)*(20000000/4000.0)));
  2081   005D38  0E21               	movlw	33
  2082   005D3A  6E04               	movwf	??_LcdInit^0,c
  2083   005D3C  0E76               	movlw	118
  2084   005D3E                     u4537:
  2085   005D3E  2EE8               	decfsz	wreg,f,c
  2086   005D40  D7FE               	bra	u4537
  2087   005D42  2E04               	decfsz	??_LcdInit^0,f,c
  2088   005D44  D7FC               	bra	u4537
  2089   005D46  D000               	nop2	
  2090   005D48                     
  2091                           ;lcd.c: 67:     SendLcdCommand( 0X02);
  2092   005D48  0E02               	movlw	2
  2093   005D4A  ECE9  F02F         	call	_SendLcdCommand
  2094   005D4E                     
  2095                           ;lcd.c: 68:     SendLcdCommand( 0X28);
  2096   005D4E  0E28               	movlw	40
  2097   005D50  ECE9  F02F         	call	_SendLcdCommand
  2098   005D54                     
  2099                           ;lcd.c: 69:     SendLcdCommand( 0X14);
  2100   005D54  0E14               	movlw	20
  2101   005D56  ECE9  F02F         	call	_SendLcdCommand
  2102   005D5A                     
  2103                           ;lcd.c: 71:     SendLcdCommand( 0X0C);
  2104   005D5A  0E0C               	movlw	12
  2105   005D5C  ECE9  F02F         	call	_SendLcdCommand
  2106   005D60  0012               	return		;funcret
  2107   005D62                     __end_of_LcdInit:
  2108                           	callstack 0
  2109                           
  2110 ;; *************** function _Dothi_settings *****************
  2111 ;; Defined at:
  2112 ;;		line 133 in file "main.c"
  2113 ;; Parameters:    Size  Location     Type
  2114 ;;		None
  2115 ;; Auto vars:     Size  Location     Type
  2116 ;;  k               2   74[BANK0 ] int 
  2117 ;;  pos             2   68[BANK0 ] int 
  2118 ;;  k               2   72[BANK0 ] int 
  2119 ;;  pos             2   66[BANK0 ] int 
  2120 ;;  i               2   76[BANK0 ] int 
  2121 ;;  k               2   70[BANK0 ] int 
  2122 ;; Return value:  Size  Location     Type
  2123 ;;                  1    wreg      void 
  2124 ;; Registers used:
  2125 ;;		wreg, fsr0l, fsr0h, fsr2l, fsr2h, status,2, status,0, tblptrl, tblptrh, tblptru, prodl, prodh, cstack
  2126 ;; Tracked objects:
  2127 ;;		On entry : 0/0
  2128 ;;		On exit  : 0/0
  2129 ;;		Unchanged: 0/0
  2130 ;; Data sizes:     COMRAM   BANK0   BANK1   BANK2   BANK3   BANK4   BANK5   BANK6   BANK7   BANK8   BANK9  BANK10  BANK1
      +1  BANK12  BANK13  BANK14  BANK15
  2131 ;;      Params:         0       0       0       0       0       0       0       0       0       0       0       0       
      +0       0       0       0       0
  2132 ;;      Locals:         0      12       0       0       0       0       0       0       0       0       0       0       
      +0       0       0       0       0
  2133 ;;      Temps:          4       0       0       0       0       0       0       0       0       0       0       0       
      +0       0       0       0       0
  2134 ;;      Totals:         4      12       0       0       0       0       0       0       0       0       0       0       
      +0       0       0       0       0
  2135 ;;Total ram usage:       16 bytes
  2136 ;; Hardware stack levels used: 1
  2137 ;; Hardware stack levels required when called: 4
  2138 ;; This function calls:
  2139 ;;		_LcdClearDisplay
  2140 ;;		_LcdDisplayNumber
  2141 ;;		_LcdDisplayString
  2142 ;;		_LcdDisplaytwo
  2143 ;;		_increment
  2144 ;; This function is called by:
  2145 ;;		_main
  2146 ;; This function uses a non-reentrant model
  2147 ;;
  2148                           
  2149                           	psect	text5
  2150   0039B8                     __ptext5:
  2151                           	callstack 0
  2152   0039B8                     _Dothi_settings:
  2153                           	callstack 26
  2154   0039B8                     
  2155                           ;main.c: 134:     LcdDisplayString(1,0,"NO OF STEPS:00");
  2156   0039B8  0E00               	movlw	0
  2157   0039BA  6E04               	movwf	LcdDisplayString@Pos^0,c
  2158   0039BC  0E7D               	movlw	low STR_10
  2159   0039BE  6E05               	movwf	LcdDisplayString@Data^0,c
  2160   0039C0  0E10               	movlw	high STR_10
  2161   0039C2  6E06               	movwf	(LcdDisplayString@Data+1)^0,c
  2162   0039C4  0E01               	movlw	1
  2163   0039C6  EC1F  F02E         	call	_LcdDisplayString
  2164   0039CA                     
  2165                           ;main.c: 135:     pos = 12;
  2166   0039CA  0E00               	movlw	0
  2167   0039CC  0100               	movlb	0	; () banked
  2168   0039CE  6FC3               	movwf	(_pos+1)& (0+255),b
  2169   0039D0  0E0C               	movlw	12
  2170   0039D2  6FC2               	movwf	_pos& (0+255),b
  2171   0039D4                     
  2172                           ; BSR set to: 0
  2173                           ;main.c: 136:     for(int k=1;k>=0;--k){
  2174   0039D4  0E00               	movlw	0
  2175   0039D6  6FA7               	movwf	(Dothi_settings@k+1)& (0+255),b
  2176   0039D8  0E01               	movlw	1
  2177   0039DA  6FA6               	movwf	Dothi_settings@k& (0+255),b
  2178   0039DC                     l4393:
  2179                           
  2180                           ; BSR set to: 0
  2181                           ;main.c: 137:         dhoti_steps = increment(dhoti_steps, k, 1, pos);
  2182   0039DC  C0B8  F090         	movff	_dhoti_steps,increment@fixed
  2183   0039E0  C0B9  F091         	movff	_dhoti_steps+1,increment@fixed+1
  2184   0039E4  C0A6  F092         	movff	Dothi_settings@k,increment@count
  2185   0039E8  C0A7  F093         	movff	Dothi_settings@k+1,increment@count+1
  2186   0039EC  0E01               	movlw	1
  2187   0039EE  6F94               	movwf	increment@line& (0+255),b
  2188   0039F0  C0C2  F095         	movff	_pos,increment@pos
  2189   0039F4  EC4E  F02B         	call	_increment	;wreg free
  2190   0039F8  C090  F0B8         	movff	?_increment,_dhoti_steps
  2191   0039FC  C091  F0B9         	movff	?_increment+1,_dhoti_steps+1
  2192   003A00                     
  2193                           ;main.c: 138:         _delay((unsigned long)((20)*(20000000/4000.0)));
  2194   003A00  0E82               	movlw	130
  2195   003A02  6E5B               	movwf	??_Dothi_settings^0,c
  2196   003A04  0EDE               	movlw	222
  2197   003A06                     u4547:
  2198   003A06  2EE8               	decfsz	wreg,f,c
  2199   003A08  D7FE               	bra	u4547
  2200   003A0A  2E5B               	decfsz	??_Dothi_settings^0,f,c
  2201   003A0C  D7FC               	bra	u4547
  2202   003A0E                     
  2203                           ;main.c: 139:         ++pos;
  2204   003A0E  0100               	movlb	0	; () banked
  2205   003A10  4BC2               	infsnz	_pos& (0+255),f,b
  2206   003A12  2BC3               	incf	(_pos+1)& (0+255),f,b
  2207   003A14                     
  2208                           ; BSR set to: 0
  2209                           ;main.c: 140:     }
  2210   003A14  07A6               	decf	Dothi_settings@k& (0+255),f,b
  2211   003A16  A0D8               	btfss	status,0,c
  2212   003A18  07A7               	decf	(Dothi_settings@k+1)& (0+255),f,b
  2213   003A1A                     
  2214                           ; BSR set to: 0
  2215   003A1A  BFA7               	btfsc	(Dothi_settings@k+1)& (0+255),7,b
  2216   003A1C  EF14  F01D         	goto	u4350
  2217   003A20  EF12  F01D         	goto	u4351
  2218   003A24                     u4351:
  2219   003A24  EFEE  F01C         	goto	l4393
  2220   003A28                     u4350:
  2221   003A28                     
  2222                           ; BSR set to: 0
  2223                           ;main.c: 141:     if(dhoti_steps<=60){
  2224   003A28  BFB9               	btfsc	(_dhoti_steps+1)& (0+255),7,b
  2225   003A2A  EF22  F01D         	goto	u4360
  2226   003A2E  51B9               	movf	(_dhoti_steps+1)& (0+255),w,b
  2227   003A30  E107               	bnz	u4361
  2228   003A32  0E3D               	movlw	61
  2229   003A34  5DB8               	subwf	_dhoti_steps& (0+255),w,b
  2230   003A36  B0D8               	btfsc	status,0,c
  2231   003A38  EF20  F01D         	goto	u4361
  2232   003A3C  EF22  F01D         	goto	u4360
  2233   003A40                     u4361:
  2234   003A40  EFB7  F01F         	goto	l4485
  2235   003A44                     u4360:
  2236   003A44                     
  2237                           ; BSR set to: 0
  2238                           ;main.c: 142:         for(int i=1;i<=dhoti_steps;){
  2239   003A44  0E00               	movlw	0
  2240   003A46  6FAD               	movwf	(Dothi_settings@i+1)& (0+255),b
  2241   003A48  0E01               	movlw	1
  2242   003A4A  6FAC               	movwf	Dothi_settings@i& (0+255),b
  2243   003A4C  EFA5  F01F         	goto	l4483
  2244   003A50                     l4407:
  2245                           
  2246                           ; BSR set to: 0
  2247                           ;main.c: 143:             LcdClearDisplay();
  2248   003A50  ECE4  F030         	call	_LcdClearDisplay	;wreg free
  2249   003A54                     
  2250                           ;main.c: 144:             LcdDisplaytwo(1,0,i);
  2251   003A54  0E00               	movlw	0
  2252   003A56  6E0D               	movwf	LcdDisplaytwo@Pos^0,c
  2253   003A58  C0AC  F00E         	movff	Dothi_settings@i,LcdDisplaytwo@Data
  2254   003A5C  C0AD  F00F         	movff	Dothi_settings@i+1,LcdDisplaytwo@Data+1
  2255   003A60  0E01               	movlw	1
  2256   003A62  ECB1  F02E         	call	_LcdDisplaytwo
  2257   003A66                     
  2258                           ;main.c: 145:             LcdDisplayString(1,2,":");
  2259   003A66  0E02               	movlw	2
  2260   003A68  6E04               	movwf	LcdDisplayString@Pos^0,c
  2261   003A6A  0EB6               	movlw	low (STR_9+1)
  2262   003A6C  6E05               	movwf	LcdDisplayString@Data^0,c
  2263   003A6E  0E10               	movlw	high (STR_9+1)
  2264   003A70  6E06               	movwf	(LcdDisplayString@Data+1)^0,c
  2265   003A72  0E01               	movlw	1
  2266   003A74  EC1F  F02E         	call	_LcdDisplayString
  2267   003A78                     
  2268                           ;main.c: 146:             LcdDisplayNumber(1,3,0);
  2269   003A78  0E03               	movlw	3
  2270   003A7A  6E0D               	movwf	LcdDisplayNumber@Pos^0,c
  2271   003A7C  0E00               	movlw	0
  2272   003A7E  6E0F               	movwf	(LcdDisplayNumber@Data+1)^0,c
  2273   003A80  0E00               	movlw	0
  2274   003A82  6E0E               	movwf	LcdDisplayNumber@Data^0,c
  2275   003A84  0E01               	movlw	1
  2276   003A86  EC01  F02D         	call	_LcdDisplayNumber
  2277   003A8A                     
  2278                           ;main.c: 147:             LcdDisplayString(1,7,"F:0N:0P:0");
  2279   003A8A  0E07               	movlw	7
  2280   003A8C  6E04               	movwf	LcdDisplayString@Pos^0,c
  2281   003A8E  0E9B               	movlw	low STR_12
  2282   003A90  6E05               	movwf	LcdDisplayString@Data^0,c
  2283   003A92  0E10               	movlw	high STR_12
  2284   003A94  6E06               	movwf	(LcdDisplayString@Data+1)^0,c
  2285   003A96  0E01               	movlw	1
  2286   003A98  EC1F  F02E         	call	_LcdDisplayString
  2287   003A9C                     
  2288                           ;main.c: 148:             ++i;
  2289   003A9C  0100               	movlb	0	; () banked
  2290   003A9E  4BAC               	infsnz	Dothi_settings@i& (0+255),f,b
  2291   003AA0  2BAD               	incf	(Dothi_settings@i+1)& (0+255),f,b
  2292   003AA2                     
  2293                           ; BSR set to: 0
  2294                           ;main.c: 149:             LcdDisplaytwo(2,0,i);
  2295   003AA2  0E00               	movlw	0
  2296   003AA4  6E0D               	movwf	LcdDisplaytwo@Pos^0,c
  2297   003AA6  C0AC  F00E         	movff	Dothi_settings@i,LcdDisplaytwo@Data
  2298   003AAA  C0AD  F00F         	movff	Dothi_settings@i+1,LcdDisplaytwo@Data+1
  2299   003AAE  0E02               	movlw	2
  2300   003AB0  ECB1  F02E         	call	_LcdDisplaytwo
  2301   003AB4                     
  2302                           ;main.c: 150:             LcdDisplayString(2,2,":");
  2303   003AB4  0E02               	movlw	2
  2304   003AB6  6E04               	movwf	LcdDisplayString@Pos^0,c
  2305   003AB8  0EB6               	movlw	low (STR_9+1)
  2306   003ABA  6E05               	movwf	LcdDisplayString@Data^0,c
  2307   003ABC  0E10               	movlw	high (STR_9+1)
  2308   003ABE  6E06               	movwf	(LcdDisplayString@Data+1)^0,c
  2309   003AC0  0E02               	movlw	2
  2310   003AC2  EC1F  F02E         	call	_LcdDisplayString
  2311   003AC6                     
  2312                           ;main.c: 151:             LcdDisplayNumber(2,3,0);
  2313   003AC6  0E03               	movlw	3
  2314   003AC8  6E0D               	movwf	LcdDisplayNumber@Pos^0,c
  2315   003ACA  0E00               	movlw	0
  2316   003ACC  6E0F               	movwf	(LcdDisplayNumber@Data+1)^0,c
  2317   003ACE  0E00               	movlw	0
  2318   003AD0  6E0E               	movwf	LcdDisplayNumber@Data^0,c
  2319   003AD2  0E02               	movlw	2
  2320   003AD4  EC01  F02D         	call	_LcdDisplayNumber
  2321   003AD8                     
  2322                           ;main.c: 152:             LcdDisplayString(2,7,"F:0N:0P:0");
  2323   003AD8  0E07               	movlw	7
  2324   003ADA  6E04               	movwf	LcdDisplayString@Pos^0,c
  2325   003ADC  0E9B               	movlw	low STR_12
  2326   003ADE  6E05               	movwf	LcdDisplayString@Data^0,c
  2327   003AE0  0E10               	movlw	high STR_12
  2328   003AE2  6E06               	movwf	(LcdDisplayString@Data+1)^0,c
  2329   003AE4  0E02               	movlw	2
  2330   003AE6  EC1F  F02E         	call	_LcdDisplayString
  2331   003AEA                     
  2332                           ;main.c: 153:             for(int k=3, pos = 3;k>=0;--k){
  2333   003AEA  0E00               	movlw	0
  2334   003AEC  0100               	movlb	0	; () banked
  2335   003AEE  6FA9               	movwf	(Dothi_settings@k_550+1)& (0+255),b
  2336   003AF0  0E03               	movlw	3
  2337   003AF2  6FA8               	movwf	Dothi_settings@k_550& (0+255),b
  2338   003AF4                     
  2339                           ; BSR set to: 0
  2340   003AF4  0E00               	movlw	0
  2341   003AF6  6FA3               	movwf	(Dothi_settings@pos+1)& (0+255),b
  2342   003AF8  0E03               	movlw	3
  2343   003AFA  6FA2               	movwf	Dothi_settings@pos& (0+255),b
  2344   003AFC                     l4435:
  2345                           
  2346                           ; BSR set to: 0
  2347                           ;main.c: 154:                 dhoti_values[i-1][0] = increment(dhoti_values[i-1][0],k,1,
      +                          pos);
  2348   003AFC  C0AC  F05B         	movff	Dothi_settings@i,??_Dothi_settings
  2349   003B00  C0AD  F05C         	movff	Dothi_settings@i+1,??_Dothi_settings+1
  2350   003B04  90D8               	bcf	status,0,c
  2351   003B06  365B               	rlcf	??_Dothi_settings^0,f,c
  2352   003B08  365C               	rlcf	(??_Dothi_settings+1)^0,f,c
  2353   003B0A  90D8               	bcf	status,0,c
  2354   003B0C  365B               	rlcf	??_Dothi_settings^0,f,c
  2355   003B0E  365C               	rlcf	(??_Dothi_settings+1)^0,f,c
  2356   003B10  90D8               	bcf	status,0,c
  2357   003B12  365B               	rlcf	??_Dothi_settings^0,f,c
  2358   003B14  365C               	rlcf	(??_Dothi_settings+1)^0,f,c
  2359   003B16  0E46               	movlw	low (_dhoti_values+65528)
  2360   003B18  245B               	addwf	??_Dothi_settings^0,w,c
  2361   003B1A  6ED9               	movwf	fsr2l,c
  2362   003B1C  0E04               	movlw	high (_dhoti_values+65528)
  2363   003B1E  205C               	addwfc	(??_Dothi_settings+1)^0,w,c
  2364   003B20  6EDA               	movwf	fsr2h,c
  2365   003B22  CFDE F090          	movff	postinc2,increment@fixed
  2366   003B26  CFDD F091          	movff	postdec2,increment@fixed+1
  2367   003B2A  C0A8  F092         	movff	Dothi_settings@k_550,increment@count
  2368   003B2E  C0A9  F093         	movff	Dothi_settings@k_550+1,increment@count+1
  2369   003B32  0E01               	movlw	1
  2370   003B34  6F94               	movwf	increment@line& (0+255),b
  2371   003B36  C0A2  F095         	movff	Dothi_settings@pos,increment@pos
  2372   003B3A  EC4E  F02B         	call	_increment	;wreg free
  2373   003B3E  C0AC  F05D         	movff	Dothi_settings@i,??_Dothi_settings+2
  2374   003B42  C0AD  F05E         	movff	Dothi_settings@i+1,??_Dothi_settings+3
  2375   003B46  90D8               	bcf	status,0,c
  2376   003B48  365D               	rlcf	(??_Dothi_settings+2)^0,f,c
  2377   003B4A  365E               	rlcf	(??_Dothi_settings+3)^0,f,c
  2378   003B4C  90D8               	bcf	status,0,c
  2379   003B4E  365D               	rlcf	(??_Dothi_settings+2)^0,f,c
  2380   003B50  365E               	rlcf	(??_Dothi_settings+3)^0,f,c
  2381   003B52  90D8               	bcf	status,0,c
  2382   003B54  365D               	rlcf	(??_Dothi_settings+2)^0,f,c
  2383   003B56  365E               	rlcf	(??_Dothi_settings+3)^0,f,c
  2384   003B58  0E46               	movlw	low (_dhoti_values+65528)
  2385   003B5A  245D               	addwf	(??_Dothi_settings+2)^0,w,c
  2386   003B5C  6ED9               	movwf	fsr2l,c
  2387   003B5E  0E04               	movlw	high (_dhoti_values+65528)
  2388   003B60  205E               	addwfc	(??_Dothi_settings+3)^0,w,c
  2389   003B62  6EDA               	movwf	fsr2h,c
  2390   003B64  0100               	movlb	0	; () banked
  2391   003B66  C090  FFDE         	movff	?_increment,postinc2
  2392   003B6A  C091  FFDD         	movff	?_increment+1,postdec2
  2393   003B6E                     
  2394                           ; BSR set to: 0
  2395                           ;main.c: 155:                 _delay((unsigned long)((20)*(20000000/4000.0)));
  2396   003B6E  0E82               	movlw	130
  2397   003B70  6E5B               	movwf	??_Dothi_settings^0,c
  2398   003B72  0EDE               	movlw	222
  2399   003B74                     u4557:
  2400   003B74  2EE8               	decfsz	wreg,f,c
  2401   003B76  D7FE               	bra	u4557
  2402   003B78  2E5B               	decfsz	??_Dothi_settings^0,f,c
  2403   003B7A  D7FC               	bra	u4557
  2404   003B7C                     
  2405                           ;main.c: 156:                 ++pos;
  2406   003B7C  0100               	movlb	0	; () banked
  2407   003B7E  4BA2               	infsnz	Dothi_settings@pos& (0+255),f,b
  2408   003B80  2BA3               	incf	(Dothi_settings@pos+1)& (0+255),f,b
  2409   003B82                     
  2410                           ; BSR set to: 0
  2411                           ;main.c: 157:             }
  2412   003B82  07A8               	decf	Dothi_settings@k_550& (0+255),f,b
  2413   003B84  A0D8               	btfss	status,0,c
  2414   003B86  07A9               	decf	(Dothi_settings@k_550+1)& (0+255),f,b
  2415   003B88                     
  2416                           ; BSR set to: 0
  2417   003B88  BFA9               	btfsc	(Dothi_settings@k_550+1)& (0+255),7,b
  2418   003B8A  EFCB  F01D         	goto	u4370
  2419   003B8E  EFC9  F01D         	goto	u4371
  2420   003B92                     u4371:
  2421   003B92  EF7E  F01D         	goto	l4435
  2422   003B96                     u4370:
  2423   003B96                     
  2424                           ; BSR set to: 0
  2425                           ;main.c: 158:             dhoti_values[i-1][1] = increment(dhoti_values[i][1],0,1,9);
  2426   003B96  C0AC  F05B         	movff	Dothi_settings@i,??_Dothi_settings
  2427   003B9A  C0AD  F05C         	movff	Dothi_settings@i+1,??_Dothi_settings+1
  2428   003B9E  90D8               	bcf	status,0,c
  2429   003BA0  365B               	rlcf	??_Dothi_settings^0,f,c
  2430   003BA2  365C               	rlcf	(??_Dothi_settings+1)^0,f,c
  2431   003BA4  90D8               	bcf	status,0,c
  2432   003BA6  365B               	rlcf	??_Dothi_settings^0,f,c
  2433   003BA8  365C               	rlcf	(??_Dothi_settings+1)^0,f,c
  2434   003BAA  90D8               	bcf	status,0,c
  2435   003BAC  365B               	rlcf	??_Dothi_settings^0,f,c
  2436   003BAE  365C               	rlcf	(??_Dothi_settings+1)^0,f,c
  2437   003BB0  0E50               	movlw	low (_dhoti_values+2)
  2438   003BB2  245B               	addwf	??_Dothi_settings^0,w,c
  2439   003BB4  6ED9               	movwf	fsr2l,c
  2440   003BB6  0E04               	movlw	high (_dhoti_values+2)
  2441   003BB8  205C               	addwfc	(??_Dothi_settings+1)^0,w,c
  2442   003BBA  6EDA               	movwf	fsr2h,c
  2443   003BBC  CFDE F090          	movff	postinc2,increment@fixed
  2444   003BC0  CFDD F091          	movff	postdec2,increment@fixed+1
  2445   003BC4  0E00               	movlw	0
  2446   003BC6  6F93               	movwf	(increment@count+1)& (0+255),b
  2447   003BC8  0E00               	movlw	0
  2448   003BCA  6F92               	movwf	increment@count& (0+255),b
  2449   003BCC  0E01               	movlw	1
  2450   003BCE  6F94               	movwf	increment@line& (0+255),b
  2451   003BD0  0E09               	movlw	9
  2452   003BD2  6F95               	movwf	increment@pos& (0+255),b
  2453   003BD4  EC4E  F02B         	call	_increment	;wreg free
  2454   003BD8  C0AC  F05D         	movff	Dothi_settings@i,??_Dothi_settings+2
  2455   003BDC  C0AD  F05E         	movff	Dothi_settings@i+1,??_Dothi_settings+3
  2456   003BE0  90D8               	bcf	status,0,c
  2457   003BE2  365D               	rlcf	(??_Dothi_settings+2)^0,f,c
  2458   003BE4  365E               	rlcf	(??_Dothi_settings+3)^0,f,c
  2459   003BE6  90D8               	bcf	status,0,c
  2460   003BE8  365D               	rlcf	(??_Dothi_settings+2)^0,f,c
  2461   003BEA  365E               	rlcf	(??_Dothi_settings+3)^0,f,c
  2462   003BEC  90D8               	bcf	status,0,c
  2463   003BEE  365D               	rlcf	(??_Dothi_settings+2)^0,f,c
  2464   003BF0  365E               	rlcf	(??_Dothi_settings+3)^0,f,c
  2465   003BF2  0E48               	movlw	low (_dhoti_values+65530)
  2466   003BF4  245D               	addwf	(??_Dothi_settings+2)^0,w,c
  2467   003BF6  6ED9               	movwf	fsr2l,c
  2468   003BF8  0E04               	movlw	high (_dhoti_values+65530)
  2469   003BFA  205E               	addwfc	(??_Dothi_settings+3)^0,w,c
  2470   003BFC  6EDA               	movwf	fsr2h,c
  2471   003BFE  0100               	movlb	0	; () banked
  2472   003C00  C090  FFDE         	movff	?_increment,postinc2
  2473   003C04  C091  FFDD         	movff	?_increment+1,postdec2
  2474   003C08                     
  2475                           ; BSR set to: 0
  2476                           ;main.c: 159:             _delay((unsigned long)((20)*(20000000/4000.0)));
  2477   003C08  0E82               	movlw	130
  2478   003C0A  6E5B               	movwf	??_Dothi_settings^0,c
  2479   003C0C  0EDE               	movlw	222
  2480   003C0E                     u4567:
  2481   003C0E  2EE8               	decfsz	wreg,f,c
  2482   003C10  D7FE               	bra	u4567
  2483   003C12  2E5B               	decfsz	??_Dothi_settings^0,f,c
  2484   003C14  D7FC               	bra	u4567
  2485   003C16                     
  2486                           ;main.c: 160:             dhoti_values[i-1][2] = increment(dhoti_values[i][2],0,1,12);
  2487   003C16  C0AC  F05B         	movff	Dothi_settings@i,??_Dothi_settings
  2488   003C1A  C0AD  F05C         	movff	Dothi_settings@i+1,??_Dothi_settings+1
  2489   003C1E  90D8               	bcf	status,0,c
  2490   003C20  365B               	rlcf	??_Dothi_settings^0,f,c
  2491   003C22  365C               	rlcf	(??_Dothi_settings+1)^0,f,c
  2492   003C24  90D8               	bcf	status,0,c
  2493   003C26  365B               	rlcf	??_Dothi_settings^0,f,c
  2494   003C28  365C               	rlcf	(??_Dothi_settings+1)^0,f,c
  2495   003C2A  90D8               	bcf	status,0,c
  2496   003C2C  365B               	rlcf	??_Dothi_settings^0,f,c
  2497   003C2E  365C               	rlcf	(??_Dothi_settings+1)^0,f,c
  2498   003C30  0E52               	movlw	low (_dhoti_values+4)
  2499   003C32  245B               	addwf	??_Dothi_settings^0,w,c
  2500   003C34  6ED9               	movwf	fsr2l,c
  2501   003C36  0E04               	movlw	high (_dhoti_values+4)
  2502   003C38  205C               	addwfc	(??_Dothi_settings+1)^0,w,c
  2503   003C3A  6EDA               	movwf	fsr2h,c
  2504   003C3C  CFDE F090          	movff	postinc2,increment@fixed
  2505   003C40  CFDD F091          	movff	postdec2,increment@fixed+1
  2506   003C44  0E00               	movlw	0
  2507   003C46  0100               	movlb	0	; () banked
  2508   003C48  6F93               	movwf	(increment@count+1)& (0+255),b
  2509   003C4A  0E00               	movlw	0
  2510   003C4C  6F92               	movwf	increment@count& (0+255),b
  2511   003C4E  0E01               	movlw	1
  2512   003C50  6F94               	movwf	increment@line& (0+255),b
  2513   003C52  0E0C               	movlw	12
  2514   003C54  6F95               	movwf	increment@pos& (0+255),b
  2515   003C56  EC4E  F02B         	call	_increment	;wreg free
  2516   003C5A  C0AC  F05D         	movff	Dothi_settings@i,??_Dothi_settings+2
  2517   003C5E  C0AD  F05E         	movff	Dothi_settings@i+1,??_Dothi_settings+3
  2518   003C62  90D8               	bcf	status,0,c
  2519   003C64  365D               	rlcf	(??_Dothi_settings+2)^0,f,c
  2520   003C66  365E               	rlcf	(??_Dothi_settings+3)^0,f,c
  2521   003C68  90D8               	bcf	status,0,c
  2522   003C6A  365D               	rlcf	(??_Dothi_settings+2)^0,f,c
  2523   003C6C  365E               	rlcf	(??_Dothi_settings+3)^0,f,c
  2524   003C6E  90D8               	bcf	status,0,c
  2525   003C70  365D               	rlcf	(??_Dothi_settings+2)^0,f,c
  2526   003C72  365E               	rlcf	(??_Dothi_settings+3)^0,f,c
  2527   003C74  0E4A               	movlw	low (_dhoti_values+65532)
  2528   003C76  245D               	addwf	(??_Dothi_settings+2)^0,w,c
  2529   003C78  6ED9               	movwf	fsr2l,c
  2530   003C7A  0E04               	movlw	high (_dhoti_values+65532)
  2531   003C7C  205E               	addwfc	(??_Dothi_settings+3)^0,w,c
  2532   003C7E  6EDA               	movwf	fsr2h,c
  2533   003C80  0100               	movlb	0	; () banked
  2534   003C82  C090  FFDE         	movff	?_increment,postinc2
  2535   003C86  C091  FFDD         	movff	?_increment+1,postdec2
  2536                           
  2537                           ;main.c: 161:             _delay((unsigned long)((20)*(20000000/4000.0)));
  2538   003C8A  0E82               	movlw	130
  2539   003C8C  6E5B               	movwf	??_Dothi_settings^0,c
  2540   003C8E  0EDE               	movlw	222
  2541   003C90                     u4577:
  2542   003C90  2EE8               	decfsz	wreg,f,c
  2543   003C92  D7FE               	bra	u4577
  2544   003C94  2E5B               	decfsz	??_Dothi_settings^0,f,c
  2545   003C96  D7FC               	bra	u4577
  2546   003C98                     
  2547                           ;main.c: 162:             dhoti_values[i-1][3] = increment(dhoti_values[i][3],0,1,15);
  2548   003C98  C0AC  F05B         	movff	Dothi_settings@i,??_Dothi_settings
  2549   003C9C  C0AD  F05C         	movff	Dothi_settings@i+1,??_Dothi_settings+1
  2550   003CA0  90D8               	bcf	status,0,c
  2551   003CA2  365B               	rlcf	??_Dothi_settings^0,f,c
  2552   003CA4  365C               	rlcf	(??_Dothi_settings+1)^0,f,c
  2553   003CA6  90D8               	bcf	status,0,c
  2554   003CA8  365B               	rlcf	??_Dothi_settings^0,f,c
  2555   003CAA  365C               	rlcf	(??_Dothi_settings+1)^0,f,c
  2556   003CAC  90D8               	bcf	status,0,c
  2557   003CAE  365B               	rlcf	??_Dothi_settings^0,f,c
  2558   003CB0  365C               	rlcf	(??_Dothi_settings+1)^0,f,c
  2559   003CB2  0E54               	movlw	low (_dhoti_values+6)
  2560   003CB4  245B               	addwf	??_Dothi_settings^0,w,c
  2561   003CB6  6ED9               	movwf	fsr2l,c
  2562   003CB8  0E04               	movlw	high (_dhoti_values+6)
  2563   003CBA  205C               	addwfc	(??_Dothi_settings+1)^0,w,c
  2564   003CBC  6EDA               	movwf	fsr2h,c
  2565   003CBE  CFDE F090          	movff	postinc2,increment@fixed
  2566   003CC2  CFDD F091          	movff	postdec2,increment@fixed+1
  2567   003CC6  0E00               	movlw	0
  2568   003CC8  0100               	movlb	0	; () banked
  2569   003CCA  6F93               	movwf	(increment@count+1)& (0+255),b
  2570   003CCC  0E00               	movlw	0
  2571   003CCE  6F92               	movwf	increment@count& (0+255),b
  2572   003CD0  0E01               	movlw	1
  2573   003CD2  6F94               	movwf	increment@line& (0+255),b
  2574   003CD4  0E0F               	movlw	15
  2575   003CD6  6F95               	movwf	increment@pos& (0+255),b
  2576   003CD8  EC4E  F02B         	call	_increment	;wreg free
  2577   003CDC  C0AC  F05D         	movff	Dothi_settings@i,??_Dothi_settings+2
  2578   003CE0  C0AD  F05E         	movff	Dothi_settings@i+1,??_Dothi_settings+3
  2579   003CE4  90D8               	bcf	status,0,c
  2580   003CE6  365D               	rlcf	(??_Dothi_settings+2)^0,f,c
  2581   003CE8  365E               	rlcf	(??_Dothi_settings+3)^0,f,c
  2582   003CEA  90D8               	bcf	status,0,c
  2583   003CEC  365D               	rlcf	(??_Dothi_settings+2)^0,f,c
  2584   003CEE  365E               	rlcf	(??_Dothi_settings+3)^0,f,c
  2585   003CF0  90D8               	bcf	status,0,c
  2586   003CF2  365D               	rlcf	(??_Dothi_settings+2)^0,f,c
  2587   003CF4  365E               	rlcf	(??_Dothi_settings+3)^0,f,c
  2588   003CF6  0E4C               	movlw	low (_dhoti_values+65534)
  2589   003CF8  245D               	addwf	(??_Dothi_settings+2)^0,w,c
  2590   003CFA  6ED9               	movwf	fsr2l,c
  2591   003CFC  0E04               	movlw	high (_dhoti_values+65534)
  2592   003CFE  205E               	addwfc	(??_Dothi_settings+3)^0,w,c
  2593   003D00  6EDA               	movwf	fsr2h,c
  2594   003D02  0100               	movlb	0	; () banked
  2595   003D04  C090  FFDE         	movff	?_increment,postinc2
  2596   003D08  C091  FFDD         	movff	?_increment+1,postdec2
  2597   003D0C                     
  2598                           ; BSR set to: 0
  2599                           ;main.c: 163:             _delay((unsigned long)((20)*(20000000/4000.0)));
  2600   003D0C  0E82               	movlw	130
  2601   003D0E  6E5B               	movwf	??_Dothi_settings^0,c
  2602   003D10  0EDE               	movlw	222
  2603   003D12                     u4587:
  2604   003D12  2EE8               	decfsz	wreg,f,c
  2605   003D14  D7FE               	bra	u4587
  2606   003D16  2E5B               	decfsz	??_Dothi_settings^0,f,c
  2607   003D18  D7FC               	bra	u4587
  2608   003D1A                     
  2609                           ;main.c: 164:             for(int k = 3,pos = 3; k >= 0;--k){
  2610   003D1A  0E00               	movlw	0
  2611   003D1C  0100               	movlb	0	; () banked
  2612   003D1E  6FAB               	movwf	(Dothi_settings@k_552+1)& (0+255),b
  2613   003D20  0E03               	movlw	3
  2614   003D22  6FAA               	movwf	Dothi_settings@k_552& (0+255),b
  2615   003D24                     
  2616                           ; BSR set to: 0
  2617   003D24  0E00               	movlw	0
  2618   003D26  6FA5               	movwf	(Dothi_settings@pos_553+1)& (0+255),b
  2619   003D28  0E03               	movlw	3
  2620   003D2A  6FA4               	movwf	Dothi_settings@pos_553& (0+255),b
  2621   003D2C                     l4463:
  2622                           
  2623                           ; BSR set to: 0
  2624                           ;main.c: 165:                 dhoti_values[i-1][0] = increment(dhoti_values[i][0],k,2,po
      +                          s);
  2625   003D2C  C0AC  F05B         	movff	Dothi_settings@i,??_Dothi_settings
  2626   003D30  C0AD  F05C         	movff	Dothi_settings@i+1,??_Dothi_settings+1
  2627   003D34  90D8               	bcf	status,0,c
  2628   003D36  365B               	rlcf	??_Dothi_settings^0,f,c
  2629   003D38  365C               	rlcf	(??_Dothi_settings+1)^0,f,c
  2630   003D3A  90D8               	bcf	status,0,c
  2631   003D3C  365B               	rlcf	??_Dothi_settings^0,f,c
  2632   003D3E  365C               	rlcf	(??_Dothi_settings+1)^0,f,c
  2633   003D40  90D8               	bcf	status,0,c
  2634   003D42  365B               	rlcf	??_Dothi_settings^0,f,c
  2635   003D44  365C               	rlcf	(??_Dothi_settings+1)^0,f,c
  2636   003D46  0E4E               	movlw	low _dhoti_values
  2637   003D48  245B               	addwf	??_Dothi_settings^0,w,c
  2638   003D4A  6ED9               	movwf	fsr2l,c
  2639   003D4C  0E04               	movlw	high _dhoti_values
  2640   003D4E  205C               	addwfc	(??_Dothi_settings+1)^0,w,c
  2641   003D50  6EDA               	movwf	fsr2h,c
  2642   003D52  CFDE F090          	movff	postinc2,increment@fixed
  2643   003D56  CFDD F091          	movff	postdec2,increment@fixed+1
  2644   003D5A  C0AA  F092         	movff	Dothi_settings@k_552,increment@count
  2645   003D5E  C0AB  F093         	movff	Dothi_settings@k_552+1,increment@count+1
  2646   003D62  0E02               	movlw	2
  2647   003D64  6F94               	movwf	increment@line& (0+255),b
  2648   003D66  C0A4  F095         	movff	Dothi_settings@pos_553,increment@pos
  2649   003D6A  EC4E  F02B         	call	_increment	;wreg free
  2650   003D6E  C0AC  F05D         	movff	Dothi_settings@i,??_Dothi_settings+2
  2651   003D72  C0AD  F05E         	movff	Dothi_settings@i+1,??_Dothi_settings+3
  2652   003D76  90D8               	bcf	status,0,c
  2653   003D78  365D               	rlcf	(??_Dothi_settings+2)^0,f,c
  2654   003D7A  365E               	rlcf	(??_Dothi_settings+3)^0,f,c
  2655   003D7C  90D8               	bcf	status,0,c
  2656   003D7E  365D               	rlcf	(??_Dothi_settings+2)^0,f,c
  2657   003D80  365E               	rlcf	(??_Dothi_settings+3)^0,f,c
  2658   003D82  90D8               	bcf	status,0,c
  2659   003D84  365D               	rlcf	(??_Dothi_settings+2)^0,f,c
  2660   003D86  365E               	rlcf	(??_Dothi_settings+3)^0,f,c
  2661   003D88  0E46               	movlw	low (_dhoti_values+65528)
  2662   003D8A  245D               	addwf	(??_Dothi_settings+2)^0,w,c
  2663   003D8C  6ED9               	movwf	fsr2l,c
  2664   003D8E  0E04               	movlw	high (_dhoti_values+65528)
  2665   003D90  205E               	addwfc	(??_Dothi_settings+3)^0,w,c
  2666   003D92  6EDA               	movwf	fsr2h,c
  2667   003D94  0100               	movlb	0	; () banked
  2668   003D96  C090  FFDE         	movff	?_increment,postinc2
  2669   003D9A  C091  FFDD         	movff	?_increment+1,postdec2
  2670   003D9E                     
  2671                           ; BSR set to: 0
  2672                           ;main.c: 166:                 _delay((unsigned long)((20)*(20000000/4000.0)));
  2673   003D9E  0E82               	movlw	130
  2674   003DA0  6E5B               	movwf	??_Dothi_settings^0,c
  2675   003DA2  0EDE               	movlw	222
  2676   003DA4                     u4597:
  2677   003DA4  2EE8               	decfsz	wreg,f,c
  2678   003DA6  D7FE               	bra	u4597
  2679   003DA8  2E5B               	decfsz	??_Dothi_settings^0,f,c
  2680   003DAA  D7FC               	bra	u4597
  2681   003DAC                     
  2682                           ;main.c: 167:                 ++pos;
  2683   003DAC  0100               	movlb	0	; () banked
  2684   003DAE  4BA4               	infsnz	Dothi_settings@pos_553& (0+255),f,b
  2685   003DB0  2BA5               	incf	(Dothi_settings@pos_553+1)& (0+255),f,b
  2686   003DB2                     
  2687                           ; BSR set to: 0
  2688                           ;main.c: 168:             }
  2689   003DB2  07AA               	decf	Dothi_settings@k_552& (0+255),f,b
  2690   003DB4  A0D8               	btfss	status,0,c
  2691   003DB6  07AB               	decf	(Dothi_settings@k_552+1)& (0+255),f,b
  2692   003DB8                     
  2693                           ; BSR set to: 0
  2694   003DB8  BFAB               	btfsc	(Dothi_settings@k_552+1)& (0+255),7,b
  2695   003DBA  EFE3  F01E         	goto	u4380
  2696   003DBE  EFE1  F01E         	goto	u4381
  2697   003DC2                     u4381:
  2698   003DC2  EF96  F01E         	goto	l4463
  2699   003DC6                     u4380:
  2700   003DC6                     
  2701                           ; BSR set to: 0
  2702                           ;main.c: 169:             dhoti_values[i][1] = increment(dhoti_values[i][1],0,2,9);
  2703   003DC6  C0AC  F05B         	movff	Dothi_settings@i,??_Dothi_settings
  2704   003DCA  C0AD  F05C         	movff	Dothi_settings@i+1,??_Dothi_settings+1
  2705   003DCE  90D8               	bcf	status,0,c
  2706   003DD0  365B               	rlcf	??_Dothi_settings^0,f,c
  2707   003DD2  365C               	rlcf	(??_Dothi_settings+1)^0,f,c
  2708   003DD4  90D8               	bcf	status,0,c
  2709   003DD6  365B               	rlcf	??_Dothi_settings^0,f,c
  2710   003DD8  365C               	rlcf	(??_Dothi_settings+1)^0,f,c
  2711   003DDA  90D8               	bcf	status,0,c
  2712   003DDC  365B               	rlcf	??_Dothi_settings^0,f,c
  2713   003DDE  365C               	rlcf	(??_Dothi_settings+1)^0,f,c
  2714   003DE0  0E50               	movlw	low (_dhoti_values+2)
  2715   003DE2  245B               	addwf	??_Dothi_settings^0,w,c
  2716   003DE4  6ED9               	movwf	fsr2l,c
  2717   003DE6  0E04               	movlw	high (_dhoti_values+2)
  2718   003DE8  205C               	addwfc	(??_Dothi_settings+1)^0,w,c
  2719   003DEA  6EDA               	movwf	fsr2h,c
  2720   003DEC  CFDE F090          	movff	postinc2,increment@fixed
  2721   003DF0  CFDD F091          	movff	postdec2,increment@fixed+1
  2722   003DF4  0E00               	movlw	0
  2723   003DF6  6F93               	movwf	(increment@count+1)& (0+255),b
  2724   003DF8  0E00               	movlw	0
  2725   003DFA  6F92               	movwf	increment@count& (0+255),b
  2726   003DFC  0E02               	movlw	2
  2727   003DFE  6F94               	movwf	increment@line& (0+255),b
  2728   003E00  0E09               	movlw	9
  2729   003E02  6F95               	movwf	increment@pos& (0+255),b
  2730   003E04  EC4E  F02B         	call	_increment	;wreg free
  2731   003E08  C0AC  F05D         	movff	Dothi_settings@i,??_Dothi_settings+2
  2732   003E0C  C0AD  F05E         	movff	Dothi_settings@i+1,??_Dothi_settings+3
  2733   003E10  90D8               	bcf	status,0,c
  2734   003E12  365D               	rlcf	(??_Dothi_settings+2)^0,f,c
  2735   003E14  365E               	rlcf	(??_Dothi_settings+3)^0,f,c
  2736   003E16  90D8               	bcf	status,0,c
  2737   003E18  365D               	rlcf	(??_Dothi_settings+2)^0,f,c
  2738   003E1A  365E               	rlcf	(??_Dothi_settings+3)^0,f,c
  2739   003E1C  90D8               	bcf	status,0,c
  2740   003E1E  365D               	rlcf	(??_Dothi_settings+2)^0,f,c
  2741   003E20  365E               	rlcf	(??_Dothi_settings+3)^0,f,c
  2742   003E22  0E50               	movlw	low (_dhoti_values+2)
  2743   003E24  245D               	addwf	(??_Dothi_settings+2)^0,w,c
  2744   003E26  6ED9               	movwf	fsr2l,c
  2745   003E28  0E04               	movlw	high (_dhoti_values+2)
  2746   003E2A  205E               	addwfc	(??_Dothi_settings+3)^0,w,c
  2747   003E2C  6EDA               	movwf	fsr2h,c
  2748   003E2E  0100               	movlb	0	; () banked
  2749   003E30  C090  FFDE         	movff	?_increment,postinc2
  2750   003E34  C091  FFDD         	movff	?_increment+1,postdec2
  2751   003E38                     
  2752                           ; BSR set to: 0
  2753                           ;main.c: 170:             _delay((unsigned long)((20)*(20000000/4000.0)));
  2754   003E38  0E82               	movlw	130
  2755   003E3A  6E5B               	movwf	??_Dothi_settings^0,c
  2756   003E3C  0EDE               	movlw	222
  2757   003E3E                     u4607:
  2758   003E3E  2EE8               	decfsz	wreg,f,c
  2759   003E40  D7FE               	bra	u4607
  2760   003E42  2E5B               	decfsz	??_Dothi_settings^0,f,c
  2761   003E44  D7FC               	bra	u4607
  2762   003E46                     
  2763                           ;main.c: 171:             dhoti_values[i][2] = increment(dhoti_values[i][2],0,2,12);
  2764   003E46  C0AC  F05B         	movff	Dothi_settings@i,??_Dothi_settings
  2765   003E4A  C0AD  F05C         	movff	Dothi_settings@i+1,??_Dothi_settings+1
  2766   003E4E  90D8               	bcf	status,0,c
  2767   003E50  365B               	rlcf	??_Dothi_settings^0,f,c
  2768   003E52  365C               	rlcf	(??_Dothi_settings+1)^0,f,c
  2769   003E54  90D8               	bcf	status,0,c
  2770   003E56  365B               	rlcf	??_Dothi_settings^0,f,c
  2771   003E58  365C               	rlcf	(??_Dothi_settings+1)^0,f,c
  2772   003E5A  90D8               	bcf	status,0,c
  2773   003E5C  365B               	rlcf	??_Dothi_settings^0,f,c
  2774   003E5E  365C               	rlcf	(??_Dothi_settings+1)^0,f,c
  2775   003E60  0E52               	movlw	low (_dhoti_values+4)
  2776   003E62  245B               	addwf	??_Dothi_settings^0,w,c
  2777   003E64  6ED9               	movwf	fsr2l,c
  2778   003E66  0E04               	movlw	high (_dhoti_values+4)
  2779   003E68  205C               	addwfc	(??_Dothi_settings+1)^0,w,c
  2780   003E6A  6EDA               	movwf	fsr2h,c
  2781   003E6C  CFDE F090          	movff	postinc2,increment@fixed
  2782   003E70  CFDD F091          	movff	postdec2,increment@fixed+1
  2783   003E74  0E00               	movlw	0
  2784   003E76  0100               	movlb	0	; () banked
  2785   003E78  6F93               	movwf	(increment@count+1)& (0+255),b
  2786   003E7A  0E00               	movlw	0
  2787   003E7C  6F92               	movwf	increment@count& (0+255),b
  2788   003E7E  0E02               	movlw	2
  2789   003E80  6F94               	movwf	increment@line& (0+255),b
  2790   003E82  0E0C               	movlw	12
  2791   003E84  6F95               	movwf	increment@pos& (0+255),b
  2792   003E86  EC4E  F02B         	call	_increment	;wreg free
  2793   003E8A  C0AC  F05D         	movff	Dothi_settings@i,??_Dothi_settings+2
  2794   003E8E  C0AD  F05E         	movff	Dothi_settings@i+1,??_Dothi_settings+3
  2795   003E92  90D8               	bcf	status,0,c
  2796   003E94  365D               	rlcf	(??_Dothi_settings+2)^0,f,c
  2797   003E96  365E               	rlcf	(??_Dothi_settings+3)^0,f,c
  2798   003E98  90D8               	bcf	status,0,c
  2799   003E9A  365D               	rlcf	(??_Dothi_settings+2)^0,f,c
  2800   003E9C  365E               	rlcf	(??_Dothi_settings+3)^0,f,c
  2801   003E9E  90D8               	bcf	status,0,c
  2802   003EA0  365D               	rlcf	(??_Dothi_settings+2)^0,f,c
  2803   003EA2  365E               	rlcf	(??_Dothi_settings+3)^0,f,c
  2804   003EA4  0E52               	movlw	low (_dhoti_values+4)
  2805   003EA6  245D               	addwf	(??_Dothi_settings+2)^0,w,c
  2806   003EA8  6ED9               	movwf	fsr2l,c
  2807   003EAA  0E04               	movlw	high (_dhoti_values+4)
  2808   003EAC  205E               	addwfc	(??_Dothi_settings+3)^0,w,c
  2809   003EAE  6EDA               	movwf	fsr2h,c
  2810   003EB0  0100               	movlb	0	; () banked
  2811   003EB2  C090  FFDE         	movff	?_increment,postinc2
  2812   003EB6  C091  FFDD         	movff	?_increment+1,postdec2
  2813                           
  2814                           ;main.c: 172:             _delay((unsigned long)((20)*(20000000/4000.0)));
  2815   003EBA  0E82               	movlw	130
  2816   003EBC  6E5B               	movwf	??_Dothi_settings^0,c
  2817   003EBE  0EDE               	movlw	222
  2818   003EC0                     u4617:
  2819   003EC0  2EE8               	decfsz	wreg,f,c
  2820   003EC2  D7FE               	bra	u4617
  2821   003EC4  2E5B               	decfsz	??_Dothi_settings^0,f,c
  2822   003EC6  D7FC               	bra	u4617
  2823   003EC8                     
  2824                           ;main.c: 173:             dhoti_values[i][3] = increment(dhoti_values[i][3],0,2,15);
  2825   003EC8  C0AC  F05B         	movff	Dothi_settings@i,??_Dothi_settings
  2826   003ECC  C0AD  F05C         	movff	Dothi_settings@i+1,??_Dothi_settings+1
  2827   003ED0  90D8               	bcf	status,0,c
  2828   003ED2  365B               	rlcf	??_Dothi_settings^0,f,c
  2829   003ED4  365C               	rlcf	(??_Dothi_settings+1)^0,f,c
  2830   003ED6  90D8               	bcf	status,0,c
  2831   003ED8  365B               	rlcf	??_Dothi_settings^0,f,c
  2832   003EDA  365C               	rlcf	(??_Dothi_settings+1)^0,f,c
  2833   003EDC  90D8               	bcf	status,0,c
  2834   003EDE  365B               	rlcf	??_Dothi_settings^0,f,c
  2835   003EE0  365C               	rlcf	(??_Dothi_settings+1)^0,f,c
  2836   003EE2  0E54               	movlw	low (_dhoti_values+6)
  2837   003EE4  245B               	addwf	??_Dothi_settings^0,w,c
  2838   003EE6  6ED9               	movwf	fsr2l,c
  2839   003EE8  0E04               	movlw	high (_dhoti_values+6)
  2840   003EEA  205C               	addwfc	(??_Dothi_settings+1)^0,w,c
  2841   003EEC  6EDA               	movwf	fsr2h,c
  2842   003EEE  CFDE F090          	movff	postinc2,increment@fixed
  2843   003EF2  CFDD F091          	movff	postdec2,increment@fixed+1
  2844   003EF6  0E00               	movlw	0
  2845   003EF8  0100               	movlb	0	; () banked
  2846   003EFA  6F93               	movwf	(increment@count+1)& (0+255),b
  2847   003EFC  0E00               	movlw	0
  2848   003EFE  6F92               	movwf	increment@count& (0+255),b
  2849   003F00  0E02               	movlw	2
  2850   003F02  6F94               	movwf	increment@line& (0+255),b
  2851   003F04  0E0F               	movlw	15
  2852   003F06  6F95               	movwf	increment@pos& (0+255),b
  2853   003F08  EC4E  F02B         	call	_increment	;wreg free
  2854   003F0C  C0AC  F05D         	movff	Dothi_settings@i,??_Dothi_settings+2
  2855   003F10  C0AD  F05E         	movff	Dothi_settings@i+1,??_Dothi_settings+3
  2856   003F14  90D8               	bcf	status,0,c
  2857   003F16  365D               	rlcf	(??_Dothi_settings+2)^0,f,c
  2858   003F18  365E               	rlcf	(??_Dothi_settings+3)^0,f,c
  2859   003F1A  90D8               	bcf	status,0,c
  2860   003F1C  365D               	rlcf	(??_Dothi_settings+2)^0,f,c
  2861   003F1E  365E               	rlcf	(??_Dothi_settings+3)^0,f,c
  2862   003F20  90D8               	bcf	status,0,c
  2863   003F22  365D               	rlcf	(??_Dothi_settings+2)^0,f,c
  2864   003F24  365E               	rlcf	(??_Dothi_settings+3)^0,f,c
  2865   003F26  0E54               	movlw	low (_dhoti_values+6)
  2866   003F28  245D               	addwf	(??_Dothi_settings+2)^0,w,c
  2867   003F2A  6ED9               	movwf	fsr2l,c
  2868   003F2C  0E04               	movlw	high (_dhoti_values+6)
  2869   003F2E  205E               	addwfc	(??_Dothi_settings+3)^0,w,c
  2870   003F30  6EDA               	movwf	fsr2h,c
  2871   003F32  0100               	movlb	0	; () banked
  2872   003F34  C090  FFDE         	movff	?_increment,postinc2
  2873   003F38  C091  FFDD         	movff	?_increment+1,postdec2
  2874   003F3C                     
  2875                           ; BSR set to: 0
  2876                           ;main.c: 174:             _delay((unsigned long)((20)*(20000000/4000.0)));
  2877   003F3C  0E82               	movlw	130
  2878   003F3E  6E5B               	movwf	??_Dothi_settings^0,c
  2879   003F40  0EDE               	movlw	222
  2880   003F42                     u4627:
  2881   003F42  2EE8               	decfsz	wreg,f,c
  2882   003F44  D7FE               	bra	u4627
  2883   003F46  2E5B               	decfsz	??_Dothi_settings^0,f,c
  2884   003F48  D7FC               	bra	u4627
  2885   003F4A                     l4483:
  2886   003F4A  0100               	movlb	0	; () banked
  2887   003F4C  51AC               	movf	Dothi_settings@i& (0+255),w,b
  2888   003F4E  5DB8               	subwf	_dhoti_steps& (0+255),w,b
  2889   003F50  51B9               	movf	(_dhoti_steps+1)& (0+255),w,b
  2890   003F52  0A80               	xorlw	128
  2891   003F54  6E5B               	movwf	??_Dothi_settings^0,c
  2892   003F56  51AD               	movf	(Dothi_settings@i+1)& (0+255),w,b
  2893   003F58  0A80               	xorlw	128
  2894   003F5A  585B               	subwfb	??_Dothi_settings^0,w,c
  2895   003F5C  B0D8               	btfsc	status,0,c
  2896   003F5E  EFB3  F01F         	goto	u4391
  2897   003F62  EFB5  F01F         	goto	u4390
  2898   003F66                     u4391:
  2899   003F66  EF28  F01D         	goto	l4407
  2900   003F6A                     u4390:
  2901   003F6A  EFB9  F01F         	goto	l4487
  2902   003F6E                     l4485:
  2903                           
  2904                           ; BSR set to: 0
  2905                           ;main.c: 178:         LcdClearDisplay();
  2906   003F6E  ECE4  F030         	call	_LcdClearDisplay	;wreg free
  2907   003F72                     l4487:
  2908                           
  2909                           ;main.c: 179:         LcdDisplayString(1,0,"INVALID OPTION");
  2910   003F72  0E00               	movlw	0
  2911   003F74  6E04               	movwf	LcdDisplayString@Pos^0,c
  2912   003F76  0E8C               	movlw	low STR_4
  2913   003F78  6E05               	movwf	LcdDisplayString@Data^0,c
  2914   003F7A  0E10               	movlw	high STR_4
  2915   003F7C  6E06               	movwf	(LcdDisplayString@Data+1)^0,c
  2916   003F7E  0E01               	movlw	1
  2917   003F80  EC1F  F02E         	call	_LcdDisplayString
  2918   003F84  0012               	return		;funcret
  2919   003F86                     __end_of_Dothi_settings:
  2920                           	callstack 0
  2921                           
  2922 ;; *************** function _increment *****************
  2923 ;; Defined at:
  2924 ;;		line 79 in file "main.c"
  2925 ;; Parameters:    Size  Location     Type
  2926 ;;  fixed           2   48[BANK0 ] int 
  2927 ;;  count           2   50[BANK0 ] int 
  2928 ;;  line            1   52[BANK0 ] unsigned char 
  2929 ;;  pos             1   53[BANK0 ] unsigned char 
  2930 ;; Auto vars:     Size  Location     Type
  2931 ;;  i               2   64[BANK0 ] int 
  2932 ;;  dynamic         2   62[BANK0 ] int 
  2933 ;; Return value:  Size  Location     Type
  2934 ;;                  2   48[BANK0 ] int 
  2935 ;; Registers used:
  2936 ;;		wreg, status,2, status,0, tblptrl, tblptrh, tblptru, prodl, prodh, cstack
  2937 ;; Tracked objects:
  2938 ;;		On entry : 0/0
  2939 ;;		On exit  : 0/0
  2940 ;;		Unchanged: 0/0
  2941 ;; Data sizes:     COMRAM   BANK0   BANK1   BANK2   BANK3   BANK4   BANK5   BANK6   BANK7   BANK8   BANK9  BANK10  BANK1
      +1  BANK12  BANK13  BANK14  BANK15
  2942 ;;      Params:         0       6       0       0       0       0       0       0       0       0       0       0       
      +0       0       0       0       0
  2943 ;;      Locals:         0      12       0       0       0       0       0       0       0       0       0       0       
      +0       0       0       0       0
  2944 ;;      Temps:          1       0       0       0       0       0       0       0       0       0       0       0       
      +0       0       0       0       0
  2945 ;;      Totals:         1      18       0       0       0       0       0       0       0       0       0       0       
      +0       0       0       0       0
  2946 ;;Total ram usage:       19 bytes
  2947 ;; Hardware stack levels used: 1
  2948 ;; Hardware stack levels required when called: 3
  2949 ;; This function calls:
  2950 ;;		_LcdDisplayChar
  2951 ;;		_LcdDisplayOnCursorOn
  2952 ;;		___flmul
  2953 ;;		___fltol
  2954 ;;		___xxtofl
  2955 ;;		_powf
  2956 ;; This function is called by:
  2957 ;;		_Loom_settings
  2958 ;;		_Dothi_settings
  2959 ;; This function uses a non-reentrant model
  2960 ;;
  2961                           
  2962                           	psect	text6
  2963   00569C                     __ptext6:
  2964                           	callstack 0
  2965   00569C                     _increment:
  2966                           	callstack 26
  2967   00569C                     
  2968                           ;main.c: 80:    int dynamic = 0, i = 0;
  2969   00569C  0E00               	movlw	0
  2970   00569E  0100               	movlb	0	; () banked
  2971   0056A0  6F9F               	movwf	(increment@dynamic+1)& (0+255),b
  2972   0056A2  0E00               	movlw	0
  2973   0056A4  6F9E               	movwf	increment@dynamic& (0+255),b
  2974   0056A6  0E00               	movlw	0
  2975   0056A8  6FA1               	movwf	(increment@i+1)& (0+255),b
  2976   0056AA  0E00               	movlw	0
  2977   0056AC  6FA0               	movwf	increment@i& (0+255),b
  2978   0056AE                     l4241:
  2979                           
  2980                           ;main.c: 82:         LcdDisplayChar(line,pos,i);
  2981   0056AE  C095  F004         	movff	increment@pos,LcdDisplayChar@Pos
  2982   0056B2  C0A0  F005         	movff	increment@i,LcdDisplayChar@Data
  2983   0056B6  0100               	movlb	0	; () banked
  2984   0056B8  5194               	movf	increment@line& (0+255),w,b
  2985   0056BA  EC37  F030         	call	_LcdDisplayChar
  2986   0056BE                     
  2987                           ;main.c: 83:         LcdDisplayOnCursorOn(line, pos);
  2988   0056BE  C095  F004         	movff	increment@pos,LcdDisplayOnCursorOn@Pos
  2989   0056C2  0100               	movlb	0	; () banked
  2990   0056C4  5194               	movf	increment@line& (0+255),w,b
  2991   0056C6  EC78  F030         	call	_LcdDisplayOnCursorOn
  2992                           
  2993                           ;main.c: 84:         while(PORTBbits.RB6 == 0){
  2994   0056CA  EF77  F02B         	goto	l290
  2995   0056CE                     l291:
  2996                           
  2997                           ;main.c: 85:             if(PORTBbits.RB5 == 1){
  2998   0056CE  AA81               	btfss	129,5,c	;volatile
  2999   0056D0  EF6C  F02B         	goto	u4251
  3000   0056D4  EF6E  F02B         	goto	u4250
  3001   0056D8                     u4251:
  3002   0056D8  EF77  F02B         	goto	l290
  3003   0056DC                     u4250:
  3004   0056DC                     
  3005                           ;main.c: 86:                 return fixed + dynamic;
  3006   0056DC  0100               	movlb	0	; () banked
  3007   0056DE  519E               	movf	increment@dynamic& (0+255),w,b
  3008   0056E0  2590               	addwf	increment@fixed& (0+255),w,b
  3009   0056E2  6F90               	movwf	?_increment& (0+255),b
  3010   0056E4  519F               	movf	(increment@dynamic+1)& (0+255),w,b
  3011   0056E6  2191               	addwfc	(increment@fixed+1)& (0+255),w,b
  3012   0056E8  6F91               	movwf	(?_increment+1)& (0+255),b
  3013   0056EA  EFFA  F02B         	goto	l293
  3014   0056EE                     l290:
  3015                           
  3016                           ;main.c: 84:         while(PORTBbits.RB6 == 0){
  3017   0056EE  AC81               	btfss	129,6,c	;volatile
  3018   0056F0  EF7C  F02B         	goto	u4261
  3019   0056F4  EF7E  F02B         	goto	u4260
  3020   0056F8                     u4261:
  3021   0056F8  EF67  F02B         	goto	l291
  3022   0056FC                     u4260:
  3023   0056FC                     
  3024                           ;main.c: 89:         _delay((unsigned long)((10)*(20000000/4000.0)));
  3025   0056FC  0E41               	movlw	65
  3026   0056FE  6E5A               	movwf	??_increment^0,c
  3027   005700  0EEE               	movlw	238
  3028   005702                     u4637:
  3029   005702  2EE8               	decfsz	wreg,f,c
  3030   005704  D7FE               	bra	u4637
  3031   005706  2E5A               	decfsz	??_increment^0,f,c
  3032   005708  D7FC               	bra	u4637
  3033   00570A  D000               	nop2	
  3034   00570C                     
  3035                           ;main.c: 90:         if(i<9)
  3036   00570C  0100               	movlb	0	; () banked
  3037   00570E  BFA1               	btfsc	(increment@i+1)& (0+255),7,b
  3038   005710  EF95  F02B         	goto	u4270
  3039   005714  51A1               	movf	(increment@i+1)& (0+255),w,b
  3040   005716  E107               	bnz	u4271
  3041   005718  0E09               	movlw	9
  3042   00571A  5DA0               	subwf	increment@i& (0+255),w,b
  3043   00571C  B0D8               	btfsc	status,0,c
  3044   00571E  EF93  F02B         	goto	u4271
  3045   005722  EF95  F02B         	goto	u4270
  3046   005726                     u4271:
  3047   005726  EF99  F02B         	goto	l4255
  3048   00572A                     u4270:
  3049   00572A                     
  3050                           ; BSR set to: 0
  3051                           ;main.c: 91:             i++;
  3052   00572A  4BA0               	infsnz	increment@i& (0+255),f,b
  3053   00572C  2BA1               	incf	(increment@i+1)& (0+255),f,b
  3054   00572E  EF9D  F02B         	goto	l4257
  3055   005732                     l4255:
  3056                           
  3057                           ; BSR set to: 0
  3058                           ;main.c: 93:             i=0;
  3059   005732  0E00               	movlw	0
  3060   005734  6FA1               	movwf	(increment@i+1)& (0+255),b
  3061   005736  0E00               	movlw	0
  3062   005738  6FA0               	movwf	increment@i& (0+255),b
  3063   00573A                     l4257:
  3064                           
  3065                           ; BSR set to: 0
  3066                           ;main.c: 94:         dynamic = (i * powf(10,count));
  3067   00573A  C092  F001         	movff	increment@count,___xxtofl@val
  3068   00573E  C093  F002         	movff	increment@count+1,___xxtofl@val+1
  3069   005742  0E00               	movlw	0
  3070   005744  BE02               	btfsc	(___xxtofl@val+1)^0,7,c
  3071   005746  0EFF               	movlw	-1
  3072   005748  6E03               	movwf	(___xxtofl@val+2)^0,c
  3073   00574A  6E04               	movwf	(___xxtofl@val+3)^0,c
  3074   00574C  0E01               	movlw	1
  3075   00574E  EC74  F02A         	call	___xxtofl
  3076   005752  C001  F096         	movff	?___xxtofl,_increment$1349
  3077   005756  C002  F097         	movff	?___xxtofl+1,_increment$1349+1
  3078   00575A  C003  F098         	movff	?___xxtofl+2,_increment$1349+2
  3079   00575E  C004  F099         	movff	?___xxtofl+3,_increment$1349+3
  3080   005762                     
  3081                           ;main.c: 94:         dynamic = (i * powf(10,count));
  3082   005762  C096  F088         	movff	_increment$1349,powf@y
  3083   005766  C097  F089         	movff	_increment$1349+1,powf@y+1
  3084   00576A  C098  F08A         	movff	_increment$1349+2,powf@y+2
  3085   00576E  C099  F08B         	movff	_increment$1349+3,powf@y+3
  3086   005772  0E00               	movlw	0
  3087   005774  0100               	movlb	0	; () banked
  3088   005776  6F84               	movwf	powf@x& (0+255),b
  3089   005778  0E00               	movlw	0
  3090   00577A  6F85               	movwf	(powf@x+1)& (0+255),b
  3091   00577C  0E20               	movlw	32
  3092   00577E  6F86               	movwf	(powf@x+2)& (0+255),b
  3093   005780  0E41               	movlw	65
  3094   005782  6F87               	movwf	(powf@x+3)& (0+255),b
  3095   005784  EC60  F008         	call	_powf	;wreg free
  3096   005788  C084  F09A         	movff	?_powf,_increment$1350
  3097   00578C  C085  F09B         	movff	?_powf+1,_increment$1350+1
  3098   005790  C086  F09C         	movff	?_powf+2,_increment$1350+2
  3099   005794  C087  F09D         	movff	?_powf+3,_increment$1350+3
  3100   005798                     
  3101                           ;main.c: 94:         dynamic = (i * powf(10,count));
  3102   005798  C09A  F015         	movff	_increment$1350,___flmul@a
  3103   00579C  C09B  F016         	movff	_increment$1350+1,___flmul@a+1
  3104   0057A0  C09C  F017         	movff	_increment$1350+2,___flmul@a+2
  3105   0057A4  C09D  F018         	movff	_increment$1350+3,___flmul@a+3
  3106   0057A8  C0A0  F001         	movff	increment@i,___xxtofl@val
  3107   0057AC  C0A1  F002         	movff	increment@i+1,___xxtofl@val+1
  3108   0057B0  0E00               	movlw	0
  3109   0057B2  BE02               	btfsc	(___xxtofl@val+1)^0,7,c
  3110   0057B4  0EFF               	movlw	-1
  3111   0057B6  6E03               	movwf	(___xxtofl@val+2)^0,c
  3112   0057B8  6E04               	movwf	(___xxtofl@val+3)^0,c
  3113   0057BA  0E01               	movlw	1
  3114   0057BC  EC74  F02A         	call	___xxtofl
  3115   0057C0  C001  F011         	movff	?___xxtofl,___flmul@b
  3116   0057C4  C002  F012         	movff	?___xxtofl+1,___flmul@b+1
  3117   0057C8  C003  F013         	movff	?___xxtofl+2,___flmul@b+2
  3118   0057CC  C004  F014         	movff	?___xxtofl+3,___flmul@b+3
  3119   0057D0  EC83  F024         	call	___flmul	;wreg free
  3120   0057D4  C011  F08C         	movff	?___flmul,___fltol@f1
  3121   0057D8  C012  F08D         	movff	?___flmul+1,___fltol@f1+1
  3122   0057DC  C013  F08E         	movff	?___flmul+2,___fltol@f1+2
  3123   0057E0  C014  F08F         	movff	?___flmul+3,___fltol@f1+3
  3124   0057E4  ECFB  F02B         	call	___fltol	;wreg free
  3125   0057E8  C08C  F09E         	movff	?___fltol,increment@dynamic
  3126   0057EC  C08D  F09F         	movff	?___fltol+1,increment@dynamic+1
  3127   0057F0  EF57  F02B         	goto	l4241
  3128   0057F4                     l293:
  3129                           
  3130                           ; BSR set to: 0
  3131   0057F4  0012               	return		;funcret
  3132   0057F6                     __end_of_increment:
  3133                           	callstack 0
  3134                           
  3135 ;; *************** function _powf *****************
  3136 ;; Defined at:
  3137 ;;		line 53 in file "C:\Program Files\Microchip\xc8\v2.40\pic\sources\c99\common\powf.c"
  3138 ;; Parameters:    Size  Location     Type
  3139 ;;  x               4   36[BANK0 ] float 
  3140 ;;  y               4   40[BANK0 ] float 
  3141 ;; Auto vars:     Size  Location     Type
  3142 ;;  s2              4  140[BANK1 ] float 
  3143 ;;  s_h             4  108[BANK1 ] float 
  3144 ;;  t_h             4  104[BANK1 ] float 
  3145 ;;  t_l             4   52[BANK1 ] float 
  3146 ;;  s_l             4   48[BANK1 ] float 
  3147 ;;  __xc8_float_    4  184[BANK1 ] struct .
  3148 ;;  z               4  180[BANK1 ] float 
  3149 ;;  t               4  176[BANK1 ] float 
  3150 ;;  j               4  172[BANK1 ] long 
  3151 ;;  ix              4  168[BANK1 ] long 
  3152 ;;  k               4  160[BANK1 ] long 
  3153 ;;  p_h             4  156[BANK1 ] float 
  3154 ;;  iy              4  152[BANK1 ] long 
  3155 ;;  is              4  144[BANK1 ] long 
  3156 ;;  sn              4  136[BANK1 ] float 
  3157 ;;  hy              4  132[BANK1 ] long 
  3158 ;;  t1              4  128[BANK1 ] float 
  3159 ;;  n               4  124[BANK1 ] long 
  3160 ;;  v               4  120[BANK1 ] float 
  3161 ;;  u               4  116[BANK1 ] float 
  3162 ;;  ax              4  112[BANK1 ] float 
  3163 ;;  p_l             4  100[BANK1 ] float 
  3164 ;;  hx              4   96[BANK1 ] long 
  3165 ;;  s               4   92[BANK1 ] float 
  3166 ;;  yisint          4   80[BANK1 ] long 
  3167 ;;  r               4   76[BANK1 ] float 
  3168 ;;  w               4   68[BANK1 ] float 
  3169 ;;  i               4   44[BANK1 ] long 
  3170 ;;  y1              4   40[BANK1 ] float 
  3171 ;;  z_l             4   36[BANK1 ] float 
  3172 ;;  z_h             4   32[BANK1 ] float 
  3173 ;;  t2              4   28[BANK1 ] float 
  3174 ;; Return value:  Size  Location     Type
  3175 ;;                  4   36[BANK0 ] float 
  3176 ;; Registers used:
  3177 ;;		wreg, status,2, status,0, tblptrl, tblptrh, tblptru, prodl, prodh, cstack
  3178 ;; Tracked objects:
  3179 ;;		On entry : 0/0
  3180 ;;		On exit  : 0/0
  3181 ;;		Unchanged: 0/0
  3182 ;; Data sizes:     COMRAM   BANK0   BANK1   BANK2   BANK3   BANK4   BANK5   BANK6   BANK7   BANK8   BANK9  BANK10  BANK1
      +1  BANK12  BANK13  BANK14  BANK15
  3183 ;;      Params:         0       8       0       0       0       0       0       0       0       0       0       0       
      +0       0       0       0       0
  3184 ;;      Locals:         0       0     188       0       0       0       0       0       0       0       0       0       
      +0       0       0       0       0
  3185 ;;      Temps:          9       0       0       0       0       0       0       0       0       0       0       0       
      +0       0       0       0       0
  3186 ;;      Totals:         9       8     188       0       0       0       0       0       0       0       0       0       
      +0       0       0       0       0
  3187 ;;Total ram usage:      205 bytes
  3188 ;; Hardware stack levels used: 1
  3189 ;; Hardware stack levels required when called: 2
  3190 ;; This function calls:
  3191 ;;		___fladd
  3192 ;;		___fldiv
  3193 ;;		___flge
  3194 ;;		___flmul
  3195 ;;		___flneg
  3196 ;;		___flsub
  3197 ;;		___xxtofl
  3198 ;;		_fabsf
  3199 ;;		_scalbnf
  3200 ;;		_sqrtf
  3201 ;; This function is called by:
  3202 ;;		_increment
  3203 ;; This function uses a non-reentrant model
  3204 ;;
  3205                           
  3206                           	psect	text7
  3207   0010C0                     __ptext7:
  3208                           	callstack 0
  3209   0010C0                     _powf:
  3210                           	callstack 26
  3211   0010C0  C084  F1B8         	movff	powf@x,powf@__xc8_float_word
  3212   0010C4  C085  F1B9         	movff	powf@x+1,powf@__xc8_float_word+1
  3213   0010C8  C086  F1BA         	movff	powf@x+2,powf@__xc8_float_word+2
  3214   0010CC  C087  F1BB         	movff	powf@x+3,powf@__xc8_float_word+3
  3215   0010D0  C1B8  F160         	movff	powf@__xc8_float_word,powf@hx
  3216   0010D4  C1B9  F161         	movff	powf@__xc8_float_word+1,powf@hx+1
  3217   0010D8  C1BA  F162         	movff	powf@__xc8_float_word+2,powf@hx+2
  3218   0010DC  C1BB  F163         	movff	powf@__xc8_float_word+3,powf@hx+3
  3219   0010E0  C088  F1B8         	movff	powf@y,powf@__xc8_float_word
  3220   0010E4  C089  F1B9         	movff	powf@y+1,powf@__xc8_float_word+1
  3221   0010E8  C08A  F1BA         	movff	powf@y+2,powf@__xc8_float_word+2
  3222   0010EC  C08B  F1BB         	movff	powf@y+3,powf@__xc8_float_word+3
  3223   0010F0  C1B8  F184         	movff	powf@__xc8_float_word,powf@hy
  3224   0010F4  C1B9  F185         	movff	powf@__xc8_float_word+1,powf@hy+1
  3225   0010F8  C1BA  F186         	movff	powf@__xc8_float_word+2,powf@hy+2
  3226   0010FC  C1BB  F187         	movff	powf@__xc8_float_word+3,powf@hy+3
  3227   001100  0EFF               	movlw	255
  3228   001102  0101               	movlb	1	; () banked
  3229   001104  1560               	andwf	powf@hx& (0+255),w,b
  3230   001106  6FA8               	movwf	powf@ix& (0+255),b
  3231   001108  0EFF               	movlw	255
  3232   00110A  1561               	andwf	(powf@hx+1)& (0+255),w,b
  3233   00110C  6FA9               	movwf	(powf@ix+1)& (0+255),b
  3234   00110E  0EFF               	movlw	255
  3235   001110  1562               	andwf	(powf@hx+2)& (0+255),w,b
  3236   001112  6FAA               	movwf	(powf@ix+2)& (0+255),b
  3237   001114  0E7F               	movlw	127
  3238   001116  1563               	andwf	(powf@hx+3)& (0+255),w,b
  3239   001118  6FAB               	movwf	(powf@ix+3)& (0+255),b
  3240   00111A  0EFF               	movlw	255
  3241   00111C  1584               	andwf	powf@hy& (0+255),w,b
  3242   00111E  6F98               	movwf	powf@iy& (0+255),b
  3243   001120  0EFF               	movlw	255
  3244   001122  1585               	andwf	(powf@hy+1)& (0+255),w,b
  3245   001124  6F99               	movwf	(powf@iy+1)& (0+255),b
  3246   001126  0EFF               	movlw	255
  3247   001128  1586               	andwf	(powf@hy+2)& (0+255),w,b
  3248   00112A  6F9A               	movwf	(powf@iy+2)& (0+255),b
  3249   00112C  0E7F               	movlw	127
  3250   00112E  1587               	andwf	(powf@hy+3)& (0+255),w,b
  3251   001130  6F9B               	movwf	(powf@iy+3)& (0+255),b
  3252   001132  5198               	movf	powf@iy& (0+255),w,b
  3253   001134  1199               	iorwf	(powf@iy+1)& (0+255),w,b
  3254   001136  119A               	iorwf	(powf@iy+2)& (0+255),w,b
  3255   001138  119B               	iorwf	(powf@iy+3)& (0+255),w,b
  3256   00113A  A4D8               	btfss	status,2,c
  3257   00113C  EFA2  F008         	goto	u3531
  3258   001140  EFA4  F008         	goto	u3530
  3259   001144                     u3531:
  3260   001144  EFAF  F008         	goto	l3677
  3261   001148                     u3530:
  3262   001148                     
  3263                           ; BSR set to: 1
  3264   001148  0E00               	movlw	0
  3265   00114A  0100               	movlb	0	; () banked
  3266   00114C  6F84               	movwf	?_powf& (0+255),b
  3267   00114E  0E00               	movlw	0
  3268   001150  6F85               	movwf	(?_powf+1)& (0+255),b
  3269   001152  0E80               	movlw	128
  3270   001154  6F86               	movwf	(?_powf+2)& (0+255),b
  3271   001156  0E3F               	movlw	63
  3272   001158  6F87               	movwf	(?_powf+3)& (0+255),b
  3273   00115A  EFDB  F01C         	goto	l1074
  3274   00115E                     l3677:
  3275                           
  3276                           ; BSR set to: 1
  3277   00115E  0E80               	movlw	128
  3278   001160  1962               	xorwf	(powf@hx+2)& (0+255),w,b
  3279   001162  E109               	bnz	u3541
  3280   001164  0E3F               	movlw	63
  3281   001166  1963               	xorwf	(powf@hx+3)& (0+255),w,b
  3282   001168  1160               	iorwf	powf@hx& (0+255),w,b
  3283   00116A  1161               	iorwf	(powf@hx+1)& (0+255),w,b
  3284   00116C  A4D8               	btfss	status,2,c
  3285   00116E  EFBB  F008         	goto	u3541
  3286   001172  EFBD  F008         	goto	u3540
  3287   001176                     u3541:
  3288   001176  EFC8  F008         	goto	l3683
  3289   00117A                     u3540:
  3290   00117A                     
  3291                           ; BSR set to: 1
  3292   00117A  0E00               	movlw	0
  3293   00117C  0100               	movlb	0	; () banked
  3294   00117E  6F84               	movwf	?_powf& (0+255),b
  3295   001180  0E00               	movlw	0
  3296   001182  6F85               	movwf	(?_powf+1)& (0+255),b
  3297   001184  0E80               	movlw	128
  3298   001186  6F86               	movwf	(?_powf+2)& (0+255),b
  3299   001188  0E3F               	movlw	63
  3300   00118A  6F87               	movwf	(?_powf+3)& (0+255),b
  3301   00118C  EFDB  F01C         	goto	l1074
  3302   001190                     l3683:
  3303                           
  3304                           ; BSR set to: 1
  3305   001190  BFAB               	btfsc	(powf@ix+3)& (0+255),7,b
  3306   001192  EFD9  F008         	goto	u3550
  3307   001196  05A8               	decf	powf@ix& (0+255),w,b
  3308   001198  0E00               	movlw	0
  3309   00119A  59A9               	subwfb	(powf@ix+1)& (0+255),w,b
  3310   00119C  0E80               	movlw	128
  3311   00119E  59AA               	subwfb	(powf@ix+2)& (0+255),w,b
  3312   0011A0  0E7F               	movlw	127
  3313   0011A2  59AB               	subwfb	(powf@ix+3)& (0+255),w,b
  3314   0011A4  B0D8               	btfsc	status,0,c
  3315   0011A6  EFD7  F008         	goto	u3551
  3316   0011AA  EFD9  F008         	goto	u3550
  3317   0011AE                     u3551:
  3318   0011AE  EFEA  F008         	goto	l3687
  3319   0011B2                     u3550:
  3320   0011B2                     
  3321                           ; BSR set to: 1
  3322   0011B2  BF9B               	btfsc	(powf@iy+3)& (0+255),7,b
  3323   0011B4  EFE8  F008         	goto	u3561
  3324   0011B8  0598               	decf	powf@iy& (0+255),w,b
  3325   0011BA  0E00               	movlw	0
  3326   0011BC  5999               	subwfb	(powf@iy+1)& (0+255),w,b
  3327   0011BE  0E80               	movlw	128
  3328   0011C0  599A               	subwfb	(powf@iy+2)& (0+255),w,b
  3329   0011C2  0E7F               	movlw	127
  3330   0011C4  599B               	subwfb	(powf@iy+3)& (0+255),w,b
  3331   0011C6  A0D8               	btfss	status,0,c
  3332   0011C8  EFE8  F008         	goto	u3561
  3333   0011CC  EFEA  F008         	goto	u3560
  3334   0011D0                     u3561:
  3335   0011D0  EF06  F009         	goto	l3691
  3336   0011D4                     u3560:
  3337   0011D4                     l3687:
  3338                           
  3339                           ; BSR set to: 1
  3340   0011D4  C084  F001         	movff	powf@x,___fladd@b
  3341   0011D8  C085  F002         	movff	powf@x+1,___fladd@b+1
  3342   0011DC  C086  F003         	movff	powf@x+2,___fladd@b+2
  3343   0011E0  C087  F004         	movff	powf@x+3,___fladd@b+3
  3344   0011E4  C088  F005         	movff	powf@y,___fladd@a
  3345   0011E8  C089  F006         	movff	powf@y+1,___fladd@a+1
  3346   0011EC  C08A  F007         	movff	powf@y+2,___fladd@a+2
  3347   0011F0  C08B  F008         	movff	powf@y+3,___fladd@a+3
  3348   0011F4  EC23  F022         	call	___fladd	;wreg free
  3349   0011F8  C001  F084         	movff	?___fladd,?_powf
  3350   0011FC  C002  F085         	movff	?___fladd+1,?_powf+1
  3351   001200  C003  F086         	movff	?___fladd+2,?_powf+2
  3352   001204  C004  F087         	movff	?___fladd+3,?_powf+3
  3353   001208  EFDB  F01C         	goto	l1074
  3354   00120C                     l3691:
  3355                           
  3356                           ; BSR set to: 1
  3357   00120C  0E00               	movlw	0
  3358   00120E  6F50               	movwf	powf@yisint& (0+255),b
  3359   001210  0E00               	movlw	0
  3360   001212  6F51               	movwf	(powf@yisint+1)& (0+255),b
  3361   001214  0E00               	movlw	0
  3362   001216  6F52               	movwf	(powf@yisint+2)& (0+255),b
  3363   001218  0E00               	movlw	0
  3364   00121A  6F53               	movwf	(powf@yisint+3)& (0+255),b
  3365   00121C                     
  3366                           ; BSR set to: 1
  3367   00121C  BF63               	btfsc	(powf@hx+3)& (0+255),7,b
  3368   00121E  EF15  F009         	goto	u3570
  3369   001222  EF13  F009         	goto	u3571
  3370   001226                     u3571:
  3371   001226  EFC0  F009         	goto	l1079
  3372   00122A                     u3570:
  3373   00122A                     
  3374                           ; BSR set to: 1
  3375   00122A  BF9B               	btfsc	(powf@iy+3)& (0+255),7,b
  3376   00122C  EF21  F009         	goto	u3581
  3377   001230  0E80               	movlw	128
  3378   001232  5D9A               	subwf	(powf@iy+2)& (0+255),w,b
  3379   001234  0E4B               	movlw	75
  3380   001236  599B               	subwfb	(powf@iy+3)& (0+255),w,b
  3381   001238  A0D8               	btfss	status,0,c
  3382   00123A  EF21  F009         	goto	u3581
  3383   00123E  EF23  F009         	goto	u3580
  3384   001242                     u3581:
  3385   001242  EF2D  F009         	goto	l3699
  3386   001246                     u3580:
  3387   001246                     
  3388                           ; BSR set to: 1
  3389   001246  0E02               	movlw	2
  3390   001248  6F50               	movwf	powf@yisint& (0+255),b
  3391   00124A  0E00               	movlw	0
  3392   00124C  6F51               	movwf	(powf@yisint+1)& (0+255),b
  3393   00124E  0E00               	movlw	0
  3394   001250  6F52               	movwf	(powf@yisint+2)& (0+255),b
  3395   001252  0E00               	movlw	0
  3396   001254  6F53               	movwf	(powf@yisint+3)& (0+255),b
  3397   001256  EFC0  F009         	goto	l1079
  3398   00125A                     l3699:
  3399                           
  3400                           ; BSR set to: 1
  3401   00125A  BF9B               	btfsc	(powf@iy+3)& (0+255),7,b
  3402   00125C  EF39  F009         	goto	u3591
  3403   001260  0E80               	movlw	128
  3404   001262  5D9A               	subwf	(powf@iy+2)& (0+255),w,b
  3405   001264  0E3F               	movlw	63
  3406   001266  599B               	subwfb	(powf@iy+3)& (0+255),w,b
  3407   001268  A0D8               	btfss	status,0,c
  3408   00126A  EF39  F009         	goto	u3591
  3409   00126E  EF3B  F009         	goto	u3590
  3410   001272                     u3591:
  3411   001272  EFC0  F009         	goto	l1079
  3412   001276                     u3590:
  3413   001276                     
  3414                           ; BSR set to: 1
  3415   001276  0E17               	movlw	23
  3416   001278  6E4B               	movwf	??_powf^0,c
  3417   00127A  C198  F04C         	movff	powf@iy,??_powf+1
  3418   00127E  C199  F04D         	movff	powf@iy+1,??_powf+2
  3419   001282  C19A  F04E         	movff	powf@iy+2,??_powf+3
  3420   001286  C19B  F04F         	movff	powf@iy+3,??_powf+4
  3421   00128A                     u3605:
  3422   00128A  664B               	tstfsz	??_powf^0,c
  3423   00128C  EF4A  F009         	goto	u3606
  3424   001290  EF52  F009         	goto	u3607
  3425   001294                     u3606:
  3426   001294  344F               	rlcf	(??_powf+4)^0,w,c
  3427   001296  324F               	rrcf	(??_powf+4)^0,f,c
  3428   001298  324E               	rrcf	(??_powf+3)^0,f,c
  3429   00129A  324D               	rrcf	(??_powf+2)^0,f,c
  3430   00129C  324C               	rrcf	(??_powf+1)^0,f,c
  3431   00129E  2E4B               	decfsz	??_powf^0,f,c
  3432   0012A0  EF45  F009         	goto	u3605
  3433   0012A4                     u3607:
  3434   0012A4  0E81               	movlw	129
  3435   0012A6  244C               	addwf	(??_powf+1)^0,w,c
  3436   0012A8  0101               	movlb	1	; () banked
  3437   0012AA  6FA0               	movwf	powf@k& (0+255),b
  3438   0012AC  0EFF               	movlw	255
  3439   0012AE  204D               	addwfc	(??_powf+2)^0,w,c
  3440   0012B0  6FA1               	movwf	(powf@k+1)& (0+255),b
  3441   0012B2  0EFF               	movlw	255
  3442   0012B4  204E               	addwfc	(??_powf+3)^0,w,c
  3443   0012B6  6FA2               	movwf	(powf@k+2)& (0+255),b
  3444   0012B8  0EFF               	movlw	255
  3445   0012BA  204F               	addwfc	(??_powf+4)^0,w,c
  3446   0012BC  6FA3               	movwf	(powf@k+3)& (0+255),b
  3447   0012BE  51A0               	movf	powf@k& (0+255),w,b
  3448   0012C0  0817               	sublw	23
  3449   0012C2  6E4B               	movwf	??_powf^0,c
  3450   0012C4  C198  F04C         	movff	powf@iy,??_powf+1
  3451   0012C8  C199  F04D         	movff	powf@iy+1,??_powf+2
  3452   0012CC  C19A  F04E         	movff	powf@iy+2,??_powf+3
  3453   0012D0  C19B  F04F         	movff	powf@iy+3,??_powf+4
  3454   0012D4                     u3615:
  3455   0012D4  664B               	tstfsz	??_powf^0,c
  3456   0012D6  EF6F  F009         	goto	u3616
  3457   0012DA  EF77  F009         	goto	u3617
  3458   0012DE                     u3616:
  3459   0012DE  344F               	rlcf	(??_powf+4)^0,w,c
  3460   0012E0  324F               	rrcf	(??_powf+4)^0,f,c
  3461   0012E2  324E               	rrcf	(??_powf+3)^0,f,c
  3462   0012E4  324D               	rrcf	(??_powf+2)^0,f,c
  3463   0012E6  324C               	rrcf	(??_powf+1)^0,f,c
  3464   0012E8  2E4B               	decfsz	??_powf^0,f,c
  3465   0012EA  EF6A  F009         	goto	u3615
  3466   0012EE                     u3617:
  3467   0012EE  C04C  F1AC         	movff	??_powf+1,powf@j
  3468   0012F2  C04D  F1AD         	movff	??_powf+2,powf@j+1
  3469   0012F6  C04E  F1AE         	movff	??_powf+3,powf@j+2
  3470   0012FA  C04F  F1AF         	movff	??_powf+4,powf@j+3
  3471   0012FE  0101               	movlb	1	; () banked
  3472   001300  51A0               	movf	powf@k& (0+255),w,b
  3473   001302  0817               	sublw	23
  3474   001304  6E4B               	movwf	??_powf^0,c
  3475   001306  C1AC  F04C         	movff	powf@j,??_powf+1
  3476   00130A  C1AD  F04D         	movff	powf@j+1,??_powf+2
  3477   00130E  C1AE  F04E         	movff	powf@j+2,??_powf+3
  3478   001312  C1AF  F04F         	movff	powf@j+3,??_powf+4
  3479   001316  2A4B               	incf	??_powf^0,f,c
  3480   001318  EF93  F009         	goto	u3620
  3481   00131C                     u3625:
  3482   00131C  90D8               	bcf	status,0,c
  3483   00131E  364C               	rlcf	(??_powf+1)^0,f,c
  3484   001320  364D               	rlcf	(??_powf+2)^0,f,c
  3485   001322  364E               	rlcf	(??_powf+3)^0,f,c
  3486   001324  364F               	rlcf	(??_powf+4)^0,f,c
  3487   001326                     u3620:
  3488   001326  2E4B               	decfsz	??_powf^0,f,c
  3489   001328  EF8E  F009         	goto	u3625
  3490   00132C  5198               	movf	powf@iy& (0+255),w,b
  3491   00132E  184C               	xorwf	(??_powf+1)^0,w,c
  3492   001330  E10D               	bnz	u3631
  3493   001332  5199               	movf	(powf@iy+1)& (0+255),w,b
  3494   001334  184D               	xorwf	(??_powf+2)^0,w,c
  3495   001336  E10A               	bnz	u3631
  3496   001338  519A               	movf	(powf@iy+2)& (0+255),w,b
  3497   00133A  184E               	xorwf	(??_powf+3)^0,w,c
  3498   00133C  E107               	bnz	u3631
  3499   00133E  519B               	movf	(powf@iy+3)& (0+255),w,b
  3500   001340  184F               	xorwf	(??_powf+4)^0,w,c
  3501   001342  A4D8               	btfss	status,2,c
  3502   001344  EFA6  F009         	goto	u3631
  3503   001348  EFA8  F009         	goto	u3630
  3504   00134C                     u3631:
  3505   00134C  EFC0  F009         	goto	l1079
  3506   001350                     u3630:
  3507   001350                     
  3508                           ; BSR set to: 1
  3509   001350  0E01               	movlw	1
  3510   001352  15AC               	andwf	powf@j& (0+255),w,b
  3511   001354  6E4B               	movwf	??_powf^0,c
  3512   001356  0E00               	movlw	0
  3513   001358  15AD               	andwf	(powf@j+1)& (0+255),w,b
  3514   00135A  6E4C               	movwf	(??_powf+1)^0,c
  3515   00135C  0E00               	movlw	0
  3516   00135E  15AE               	andwf	(powf@j+2)& (0+255),w,b
  3517   001360  6E4D               	movwf	(??_powf+2)^0,c
  3518   001362  0E00               	movlw	0
  3519   001364  15AF               	andwf	(powf@j+3)& (0+255),w,b
  3520   001366  6E4E               	movwf	(??_powf+3)^0,c
  3521   001368  504B               	movf	??_powf^0,w,c
  3522   00136A  0802               	sublw	2
  3523   00136C  6F50               	movwf	powf@yisint& (0+255),b
  3524   00136E  0E00               	movlw	0
  3525   001370  544C               	subfwb	(??_powf+1)^0,w,c
  3526   001372  6F51               	movwf	(powf@yisint+1)& (0+255),b
  3527   001374  0E00               	movlw	0
  3528   001376  544D               	subfwb	(??_powf+2)^0,w,c
  3529   001378  6F52               	movwf	(powf@yisint+2)& (0+255),b
  3530   00137A  0E00               	movlw	0
  3531   00137C  544E               	subfwb	(??_powf+3)^0,w,c
  3532   00137E  6F53               	movwf	(powf@yisint+3)& (0+255),b
  3533   001380                     l1079:
  3534                           
  3535                           ; BSR set to: 1
  3536   001380  0E80               	movlw	128
  3537   001382  199A               	xorwf	(powf@iy+2)& (0+255),w,b
  3538   001384  E109               	bnz	u3641
  3539   001386  0E7F               	movlw	127
  3540   001388  199B               	xorwf	(powf@iy+3)& (0+255),w,b
  3541   00138A  1198               	iorwf	powf@iy& (0+255),w,b
  3542   00138C  1199               	iorwf	(powf@iy+1)& (0+255),w,b
  3543   00138E  A4D8               	btfss	status,2,c
  3544   001390  EFCC  F009         	goto	u3641
  3545   001394  EFCE  F009         	goto	u3640
  3546   001398                     u3641:
  3547   001398  EF3A  F00A         	goto	l3729
  3548   00139C                     u3640:
  3549   00139C                     
  3550                           ; BSR set to: 1
  3551   00139C  0E80               	movlw	128
  3552   00139E  19AA               	xorwf	(powf@ix+2)& (0+255),w,b
  3553   0013A0  E109               	bnz	u3651
  3554   0013A2  0E3F               	movlw	63
  3555   0013A4  19AB               	xorwf	(powf@ix+3)& (0+255),w,b
  3556   0013A6  11A8               	iorwf	powf@ix& (0+255),w,b
  3557   0013A8  11A9               	iorwf	(powf@ix+1)& (0+255),w,b
  3558   0013AA  A4D8               	btfss	status,2,c
  3559   0013AC  EFDA  F009         	goto	u3651
  3560   0013B0  EFDC  F009         	goto	u3650
  3561   0013B4                     u3651:
  3562   0013B4  EFE7  F009         	goto	l3713
  3563   0013B8                     u3650:
  3564   0013B8                     
  3565                           ; BSR set to: 1
  3566   0013B8  0E00               	movlw	0
  3567   0013BA  0100               	movlb	0	; () banked
  3568   0013BC  6F84               	movwf	?_powf& (0+255),b
  3569   0013BE  0E00               	movlw	0
  3570   0013C0  6F85               	movwf	(?_powf+1)& (0+255),b
  3571   0013C2  0E80               	movlw	128
  3572   0013C4  6F86               	movwf	(?_powf+2)& (0+255),b
  3573   0013C6  0E3F               	movlw	63
  3574   0013C8  6F87               	movwf	(?_powf+3)& (0+255),b
  3575   0013CA  EFDB  F01C         	goto	l1074
  3576   0013CE                     l3713:
  3577                           
  3578                           ; BSR set to: 1
  3579   0013CE  BFAB               	btfsc	(powf@ix+3)& (0+255),7,b
  3580   0013D0  EFF6  F009         	goto	u3661
  3581   0013D4  05A8               	decf	powf@ix& (0+255),w,b
  3582   0013D6  0E00               	movlw	0
  3583   0013D8  59A9               	subwfb	(powf@ix+1)& (0+255),w,b
  3584   0013DA  0E80               	movlw	128
  3585   0013DC  59AA               	subwfb	(powf@ix+2)& (0+255),w,b
  3586   0013DE  0E3F               	movlw	63
  3587   0013E0  59AB               	subwfb	(powf@ix+3)& (0+255),w,b
  3588   0013E2  A0D8               	btfss	status,0,c
  3589   0013E4  EFF6  F009         	goto	u3661
  3590   0013E8  EFF8  F009         	goto	u3660
  3591   0013EC                     u3661:
  3592   0013EC  EF14  F00A         	goto	l3721
  3593   0013F0                     u3660:
  3594   0013F0                     
  3595                           ; BSR set to: 1
  3596   0013F0  BF87               	btfsc	(powf@hy+3)& (0+255),7,b
  3597   0013F2  EFFF  F009         	goto	u3670
  3598   0013F6  EFFD  F009         	goto	u3671
  3599   0013FA                     u3671:
  3600   0013FA  EF0A  F00A         	goto	l1089
  3601   0013FE                     u3670:
  3602   0013FE                     
  3603                           ; BSR set to: 1
  3604   0013FE  0E00               	movlw	0
  3605   001400  0100               	movlb	0	; () banked
  3606   001402  6F84               	movwf	?_powf& (0+255),b
  3607   001404  0E00               	movlw	0
  3608   001406  6F85               	movwf	(?_powf+1)& (0+255),b
  3609   001408  0E00               	movlw	0
  3610   00140A  6F86               	movwf	(?_powf+2)& (0+255),b
  3611   00140C  0E00               	movlw	0
  3612   00140E  6F87               	movwf	(?_powf+3)& (0+255),b
  3613   001410  EFDB  F01C         	goto	l1074
  3614   001414                     l1089:
  3615                           
  3616                           ; BSR set to: 1
  3617   001414  C088  F084         	movff	powf@y,?_powf
  3618   001418  C089  F085         	movff	powf@y+1,?_powf+1
  3619   00141C  C08A  F086         	movff	powf@y+2,?_powf+2
  3620   001420  C08B  F087         	movff	powf@y+3,?_powf+3
  3621   001424  EFDB  F01C         	goto	l1074
  3622   001428                     l3721:
  3623                           
  3624                           ; BSR set to: 1
  3625   001428  BF87               	btfsc	(powf@hy+3)& (0+255),7,b
  3626   00142A  EF1B  F00A         	goto	u3680
  3627   00142E  EF19  F00A         	goto	u3681
  3628   001432                     u3681:
  3629   001432  EF2F  F00A         	goto	l3725
  3630   001436                     u3680:
  3631   001436                     
  3632                           ; BSR set to: 1
  3633   001436  C088  F001         	movff	powf@y,___flneg@f1
  3634   00143A  C089  F002         	movff	powf@y+1,___flneg@f1+1
  3635   00143E  C08A  F003         	movff	powf@y+2,___flneg@f1+2
  3636   001442  C08B  F004         	movff	powf@y+3,___flneg@f1+3
  3637   001446  EC98  F030         	call	___flneg	;wreg free
  3638   00144A  C001  F084         	movff	?___flneg,?_powf
  3639   00144E  C002  F085         	movff	?___flneg+1,?_powf+1
  3640   001452  C003  F086         	movff	?___flneg+2,?_powf+2
  3641   001456  C004  F087         	movff	?___flneg+3,?_powf+3
  3642   00145A  EFDB  F01C         	goto	l1074
  3643   00145E                     l3725:
  3644                           
  3645                           ; BSR set to: 1
  3646   00145E  0E00               	movlw	0
  3647   001460  0100               	movlb	0	; () banked
  3648   001462  6F84               	movwf	?_powf& (0+255),b
  3649   001464  0E00               	movlw	0
  3650   001466  6F85               	movwf	(?_powf+1)& (0+255),b
  3651   001468  0E00               	movlw	0
  3652   00146A  6F86               	movwf	(?_powf+2)& (0+255),b
  3653   00146C  0E00               	movlw	0
  3654   00146E  6F87               	movwf	(?_powf+3)& (0+255),b
  3655   001470  EFDB  F01C         	goto	l1074
  3656   001474                     l3729:
  3657                           
  3658                           ; BSR set to: 1
  3659   001474  0E80               	movlw	128
  3660   001476  199A               	xorwf	(powf@iy+2)& (0+255),w,b
  3661   001478  E109               	bnz	u3691
  3662   00147A  0E3F               	movlw	63
  3663   00147C  199B               	xorwf	(powf@iy+3)& (0+255),w,b
  3664   00147E  1198               	iorwf	powf@iy& (0+255),w,b
  3665   001480  1199               	iorwf	(powf@iy+1)& (0+255),w,b
  3666   001482  A4D8               	btfss	status,2,c
  3667   001484  EF46  F00A         	goto	u3691
  3668   001488  EF48  F00A         	goto	u3690
  3669   00148C                     u3691:
  3670   00148C  EF75  F00A         	goto	l3735
  3671   001490                     u3690:
  3672   001490                     
  3673                           ; BSR set to: 1
  3674   001490  BF87               	btfsc	(powf@hy+3)& (0+255),7,b
  3675   001492  EF4F  F00A         	goto	u3700
  3676   001496  EF4D  F00A         	goto	u3701
  3677   00149A                     u3701:
  3678   00149A  EF6B  F00A         	goto	l1099
  3679   00149E                     u3700:
  3680   00149E                     
  3681                           ; BSR set to: 1
  3682   00149E  0E00               	movlw	0
  3683   0014A0  6E32               	movwf	___fldiv@b^0,c
  3684   0014A2  0E00               	movlw	0
  3685   0014A4  6E33               	movwf	(___fldiv@b+1)^0,c
  3686   0014A6  0E80               	movlw	128
  3687   0014A8  6E34               	movwf	(___fldiv@b+2)^0,c
  3688   0014AA  0E3F               	movlw	63
  3689   0014AC  6E35               	movwf	(___fldiv@b+3)^0,c
  3690   0014AE  C084  F036         	movff	powf@x,___fldiv@a
  3691   0014B2  C085  F037         	movff	powf@x+1,___fldiv@a+1
  3692   0014B6  C086  F038         	movff	powf@x+2,___fldiv@a+2
  3693   0014BA  C087  F039         	movff	powf@x+3,___fldiv@a+3
  3694   0014BE  EC98  F026         	call	___fldiv	;wreg free
  3695   0014C2  C032  F084         	movff	?___fldiv,?_powf
  3696   0014C6  C033  F085         	movff	?___fldiv+1,?_powf+1
  3697   0014CA  C034  F086         	movff	?___fldiv+2,?_powf+2
  3698   0014CE  C035  F087         	movff	?___fldiv+3,?_powf+3
  3699   0014D2  EFDB  F01C         	goto	l1074
  3700   0014D6                     l1099:
  3701                           
  3702                           ; BSR set to: 1
  3703   0014D6  C084  F084         	movff	powf@x,?_powf
  3704   0014DA  C085  F085         	movff	powf@x+1,?_powf+1
  3705   0014DE  C086  F086         	movff	powf@x+2,?_powf+2
  3706   0014E2  C087  F087         	movff	powf@x+3,?_powf+3
  3707   0014E6  EFDB  F01C         	goto	l1074
  3708   0014EA                     l3735:
  3709                           
  3710                           ; BSR set to: 1
  3711   0014EA  0E40               	movlw	64
  3712   0014EC  1987               	xorwf	(powf@hy+3)& (0+255),w,b
  3713   0014EE  1184               	iorwf	powf@hy& (0+255),w,b
  3714   0014F0  1185               	iorwf	(powf@hy+1)& (0+255),w,b
  3715   0014F2  1186               	iorwf	(powf@hy+2)& (0+255),w,b
  3716   0014F4  A4D8               	btfss	status,2,c
  3717   0014F6  EF7F  F00A         	goto	u3711
  3718   0014FA  EF81  F00A         	goto	u3710
  3719   0014FE                     u3711:
  3720   0014FE  EF9D  F00A         	goto	l3741
  3721   001502                     u3710:
  3722   001502                     
  3723                           ; BSR set to: 1
  3724   001502  C084  F011         	movff	powf@x,___flmul@b
  3725   001506  C085  F012         	movff	powf@x+1,___flmul@b+1
  3726   00150A  C086  F013         	movff	powf@x+2,___flmul@b+2
  3727   00150E  C087  F014         	movff	powf@x+3,___flmul@b+3
  3728   001512  C084  F015         	movff	powf@x,___flmul@a
  3729   001516  C085  F016         	movff	powf@x+1,___flmul@a+1
  3730   00151A  C086  F017         	movff	powf@x+2,___flmul@a+2
  3731   00151E  C087  F018         	movff	powf@x+3,___flmul@a+3
  3732   001522  EC83  F024         	call	___flmul	;wreg free
  3733   001526  C011  F084         	movff	?___flmul,?_powf
  3734   00152A  C012  F085         	movff	?___flmul+1,?_powf+1
  3735   00152E  C013  F086         	movff	?___flmul+2,?_powf+2
  3736   001532  C014  F087         	movff	?___flmul+3,?_powf+3
  3737   001536  EFDB  F01C         	goto	l1074
  3738   00153A                     l3741:
  3739                           
  3740                           ; BSR set to: 1
  3741   00153A  0E3F               	movlw	63
  3742   00153C  1987               	xorwf	(powf@hy+3)& (0+255),w,b
  3743   00153E  1184               	iorwf	powf@hy& (0+255),w,b
  3744   001540  1185               	iorwf	(powf@hy+1)& (0+255),w,b
  3745   001542  1186               	iorwf	(powf@hy+2)& (0+255),w,b
  3746   001544  A4D8               	btfss	status,2,c
  3747   001546  EFA7  F00A         	goto	u3721
  3748   00154A  EFA9  F00A         	goto	u3720
  3749   00154E                     u3721:
  3750   00154E  EFC4  F00A         	goto	l3749
  3751   001552                     u3720:
  3752   001552                     
  3753                           ; BSR set to: 1
  3754   001552  BF63               	btfsc	(powf@hx+3)& (0+255),7,b
  3755   001554  EFAE  F00A         	goto	u3731
  3756   001558  EFB0  F00A         	goto	u3730
  3757   00155C                     u3731:
  3758   00155C  EFC4  F00A         	goto	l3749
  3759   001560                     u3730:
  3760   001560                     
  3761                           ; BSR set to: 1
  3762   001560  C084  F03E         	movff	powf@x,sqrtf@x
  3763   001564  C085  F03F         	movff	powf@x+1,sqrtf@x+1
  3764   001568  C086  F040         	movff	powf@x+2,sqrtf@x+2
  3765   00156C  C087  F041         	movff	powf@x+3,sqrtf@x+3
  3766   001570  ECC3  F01F         	call	_sqrtf	;wreg free
  3767   001574  C03E  F084         	movff	?_sqrtf,?_powf
  3768   001578  C03F  F085         	movff	?_sqrtf+1,?_powf+1
  3769   00157C  C040  F086         	movff	?_sqrtf+2,?_powf+2
  3770   001580  C041  F087         	movff	?_sqrtf+3,?_powf+3
  3771   001584  EFDB  F01C         	goto	l1074
  3772   001588                     l3749:
  3773                           
  3774                           ; BSR set to: 1
  3775   001588  C084  F001         	movff	powf@x,fabsf@x
  3776   00158C  C085  F002         	movff	powf@x+1,fabsf@x+1
  3777   001590  C086  F003         	movff	powf@x+2,fabsf@x+2
  3778   001594  C087  F004         	movff	powf@x+3,fabsf@x+3
  3779   001598  ECB4  F030         	call	_fabsf	;wreg free
  3780   00159C  C001  F170         	movff	?_fabsf,powf@ax
  3781   0015A0  C002  F171         	movff	?_fabsf+1,powf@ax+1
  3782   0015A4  C003  F172         	movff	?_fabsf+2,powf@ax+2
  3783   0015A8  C004  F173         	movff	?_fabsf+3,powf@ax+3
  3784   0015AC  0E80               	movlw	128
  3785   0015AE  0101               	movlb	1	; () banked
  3786   0015B0  19AA               	xorwf	(powf@ix+2)& (0+255),w,b
  3787   0015B2  E10B               	bnz	u3740
  3788   0015B4  0E7F               	movlw	127
  3789   0015B6  19AB               	xorwf	(powf@ix+3)& (0+255),w,b
  3790   0015B8  11A8               	iorwf	powf@ix& (0+255),w,b
  3791   0015BA  11A9               	iorwf	(powf@ix+1)& (0+255),w,b
  3792   0015BC  B4D8               	btfsc	status,2,c
  3793   0015BE  EFE3  F00A         	goto	u3741
  3794   0015C2  EFE5  F00A         	goto	u3740
  3795   0015C6                     u3741:
  3796   0015C6  EFFE  F00A         	goto	l1107
  3797   0015CA                     u3740:
  3798   0015CA                     
  3799                           ; BSR set to: 1
  3800   0015CA  51A8               	movf	powf@ix& (0+255),w,b
  3801   0015CC  11A9               	iorwf	(powf@ix+1)& (0+255),w,b
  3802   0015CE  11AA               	iorwf	(powf@ix+2)& (0+255),w,b
  3803   0015D0  11AB               	iorwf	(powf@ix+3)& (0+255),w,b
  3804   0015D2  B4D8               	btfsc	status,2,c
  3805   0015D4  EFEE  F00A         	goto	u3751
  3806   0015D8  EFF0  F00A         	goto	u3750
  3807   0015DC                     u3751:
  3808   0015DC  EFFE  F00A         	goto	l1107
  3809   0015E0                     u3750:
  3810   0015E0                     
  3811                           ; BSR set to: 1
  3812   0015E0  0E80               	movlw	128
  3813   0015E2  19AA               	xorwf	(powf@ix+2)& (0+255),w,b
  3814   0015E4  E109               	bnz	u3761
  3815   0015E6  0E3F               	movlw	63
  3816   0015E8  19AB               	xorwf	(powf@ix+3)& (0+255),w,b
  3817   0015EA  11A8               	iorwf	powf@ix& (0+255),w,b
  3818   0015EC  11A9               	iorwf	(powf@ix+1)& (0+255),w,b
  3819   0015EE  A4D8               	btfss	status,2,c
  3820   0015F0  EFFC  F00A         	goto	u3761
  3821   0015F4  EFFE  F00A         	goto	u3760
  3822   0015F8                     u3761:
  3823   0015F8  EFBE  F00B         	goto	l3777
  3824   0015FC                     u3760:
  3825   0015FC                     l1107:
  3826                           
  3827                           ; BSR set to: 1
  3828   0015FC  C170  F1B4         	movff	powf@ax,powf@z
  3829   001600  C171  F1B5         	movff	powf@ax+1,powf@z+1
  3830   001604  C172  F1B6         	movff	powf@ax+2,powf@z+2
  3831   001608  C173  F1B7         	movff	powf@ax+3,powf@z+3
  3832   00160C                     
  3833                           ; BSR set to: 1
  3834   00160C  BF87               	btfsc	(powf@hy+3)& (0+255),7,b
  3835   00160E  EF0D  F00B         	goto	u3770
  3836   001612  EF0B  F00B         	goto	u3771
  3837   001616                     u3771:
  3838   001616  EF27  F00B         	goto	l3761
  3839   00161A                     u3770:
  3840   00161A                     
  3841                           ; BSR set to: 1
  3842   00161A  0E00               	movlw	0
  3843   00161C  6E32               	movwf	___fldiv@b^0,c
  3844   00161E  0E00               	movlw	0
  3845   001620  6E33               	movwf	(___fldiv@b+1)^0,c
  3846   001622  0E80               	movlw	128
  3847   001624  6E34               	movwf	(___fldiv@b+2)^0,c
  3848   001626  0E3F               	movlw	63
  3849   001628  6E35               	movwf	(___fldiv@b+3)^0,c
  3850   00162A  C1B4  F036         	movff	powf@z,___fldiv@a
  3851   00162E  C1B5  F037         	movff	powf@z+1,___fldiv@a+1
  3852   001632  C1B6  F038         	movff	powf@z+2,___fldiv@a+2
  3853   001636  C1B7  F039         	movff	powf@z+3,___fldiv@a+3
  3854   00163A  EC98  F026         	call	___fldiv	;wreg free
  3855   00163E  C032  F1B4         	movff	?___fldiv,powf@z
  3856   001642  C033  F1B5         	movff	?___fldiv+1,powf@z+1
  3857   001646  C034  F1B6         	movff	?___fldiv+2,powf@z+2
  3858   00164A  C035  F1B7         	movff	?___fldiv+3,powf@z+3
  3859   00164E                     l3761:
  3860   00164E  0101               	movlb	1	; () banked
  3861   001650  BF63               	btfsc	(powf@hx+3)& (0+255),7,b
  3862   001652  EF2F  F00B         	goto	u3780
  3863   001656  EF2D  F00B         	goto	u3781
  3864   00165A                     u3781:
  3865   00165A  EFB4  F00B         	goto	l3773
  3866   00165E                     u3780:
  3867   00165E                     
  3868                           ; BSR set to: 1
  3869   00165E  0E00               	movlw	0
  3870   001660  25A8               	addwf	powf@ix& (0+255),w,b
  3871   001662  6E4B               	movwf	??_powf^0,c
  3872   001664  0E00               	movlw	0
  3873   001666  21A9               	addwfc	(powf@ix+1)& (0+255),w,b
  3874   001668  6E4C               	movwf	(??_powf+1)^0,c
  3875   00166A  0E80               	movlw	128
  3876   00166C  21AA               	addwfc	(powf@ix+2)& (0+255),w,b
  3877   00166E  6E4D               	movwf	(??_powf+2)^0,c
  3878   001670  0EC0               	movlw	192
  3879   001672  21AB               	addwfc	(powf@ix+3)& (0+255),w,b
  3880   001674  6E4E               	movwf	(??_powf+3)^0,c
  3881   001676  5150               	movf	powf@yisint& (0+255),w,b
  3882   001678  104B               	iorwf	??_powf^0,w,c
  3883   00167A  6E4F               	movwf	(??_powf+4)^0,c
  3884   00167C  5151               	movf	(powf@yisint+1)& (0+255),w,b
  3885   00167E  104C               	iorwf	(??_powf+1)^0,w,c
  3886   001680  6E50               	movwf	(??_powf+5)^0,c
  3887   001682  5152               	movf	(powf@yisint+2)& (0+255),w,b
  3888   001684  104D               	iorwf	(??_powf+2)^0,w,c
  3889   001686  6E51               	movwf	(??_powf+6)^0,c
  3890   001688  5153               	movf	(powf@yisint+3)& (0+255),w,b
  3891   00168A  104E               	iorwf	(??_powf+3)^0,w,c
  3892   00168C  6E52               	movwf	(??_powf+7)^0,c
  3893   00168E  504F               	movf	(??_powf+4)^0,w,c
  3894   001690  1050               	iorwf	(??_powf+5)^0,w,c
  3895   001692  1051               	iorwf	(??_powf+6)^0,w,c
  3896   001694  1052               	iorwf	(??_powf+7)^0,w,c
  3897   001696  A4D8               	btfss	status,2,c
  3898   001698  EF50  F00B         	goto	u3791
  3899   00169C  EF52  F00B         	goto	u3790
  3900   0016A0                     u3791:
  3901   0016A0  EF97  F00B         	goto	l3769
  3902   0016A4                     u3790:
  3903   0016A4                     
  3904                           ; BSR set to: 1
  3905   0016A4  0E00               	movlw	0
  3906   0016A6  0100               	movlb	0	; () banked
  3907   0016A8  6FB7               	movwf	(_errno+1)& (0+255),b
  3908   0016AA  0E21               	movlw	33
  3909   0016AC  6FB6               	movwf	_errno& (0+255),b
  3910   0016AE                     
  3911                           ; BSR set to: 0
  3912   0016AE  C1B4  F02E         	movff	powf@z,___flsub@a
  3913   0016B2  C1B5  F02F         	movff	powf@z+1,___flsub@a+1
  3914   0016B6  C1B6  F030         	movff	powf@z+2,___flsub@a+2
  3915   0016BA  C1B7  F031         	movff	powf@z+3,___flsub@a+3
  3916   0016BE  C1B4  F02A         	movff	powf@z,___flsub@b
  3917   0016C2  C1B5  F02B         	movff	powf@z+1,___flsub@b+1
  3918   0016C6  C1B6  F02C         	movff	powf@z+2,___flsub@b+2
  3919   0016CA  C1B7  F02D         	movff	powf@z+3,___flsub@b+3
  3920   0016CE  EC14  F030         	call	___flsub	;wreg free
  3921   0016D2  C02A  F032         	movff	?___flsub,___fldiv@b
  3922   0016D6  C02B  F033         	movff	?___flsub+1,___fldiv@b+1
  3923   0016DA  C02C  F034         	movff	?___flsub+2,___fldiv@b+2
  3924   0016DE  C02D  F035         	movff	?___flsub+3,___fldiv@b+3
  3925   0016E2  C1B4  F02E         	movff	powf@z,___flsub@a
  3926   0016E6  C1B5  F02F         	movff	powf@z+1,___flsub@a+1
  3927   0016EA  C1B6  F030         	movff	powf@z+2,___flsub@a+2
  3928   0016EE  C1B7  F031         	movff	powf@z+3,___flsub@a+3
  3929   0016F2  C1B4  F02A         	movff	powf@z,___flsub@b
  3930   0016F6  C1B5  F02B         	movff	powf@z+1,___flsub@b+1
  3931   0016FA  C1B6  F02C         	movff	powf@z+2,___flsub@b+2
  3932   0016FE  C1B7  F02D         	movff	powf@z+3,___flsub@b+3
  3933   001702  EC14  F030         	call	___flsub	;wreg free
  3934   001706  C02A  F036         	movff	?___flsub,___fldiv@a
  3935   00170A  C02B  F037         	movff	?___flsub+1,___fldiv@a+1
  3936   00170E  C02C  F038         	movff	?___flsub+2,___fldiv@a+2
  3937   001712  C02D  F039         	movff	?___flsub+3,___fldiv@a+3
  3938   001716  EC98  F026         	call	___fldiv	;wreg free
  3939   00171A  C032  F1B4         	movff	?___fldiv,powf@z
  3940   00171E  C033  F1B5         	movff	?___fldiv+1,powf@z+1
  3941   001722  C034  F1B6         	movff	?___fldiv+2,powf@z+2
  3942   001726  C035  F1B7         	movff	?___fldiv+3,powf@z+3
  3943   00172A  EFB4  F00B         	goto	l3773
  3944   00172E                     l3769:
  3945                           
  3946                           ; BSR set to: 1
  3947   00172E  0550               	decf	powf@yisint& (0+255),w,b
  3948   001730  1151               	iorwf	(powf@yisint+1)& (0+255),w,b
  3949   001732  1152               	iorwf	(powf@yisint+2)& (0+255),w,b
  3950   001734  1153               	iorwf	(powf@yisint+3)& (0+255),w,b
  3951   001736  A4D8               	btfss	status,2,c
  3952   001738  EFA0  F00B         	goto	u3801
  3953   00173C  EFA2  F00B         	goto	u3800
  3954   001740                     u3801:
  3955   001740  EFB4  F00B         	goto	l3773
  3956   001744                     u3800:
  3957   001744                     
  3958                           ; BSR set to: 1
  3959   001744  C1B4  F001         	movff	powf@z,___flneg@f1
  3960   001748  C1B5  F002         	movff	powf@z+1,___flneg@f1+1
  3961   00174C  C1B6  F003         	movff	powf@z+2,___flneg@f1+2
  3962   001750  C1B7  F004         	movff	powf@z+3,___flneg@f1+3
  3963   001754  EC98  F030         	call	___flneg	;wreg free
  3964   001758  C001  F1B4         	movff	?___flneg,powf@z
  3965   00175C  C002  F1B5         	movff	?___flneg+1,powf@z+1
  3966   001760  C003  F1B6         	movff	?___flneg+2,powf@z+2
  3967   001764  C004  F1B7         	movff	?___flneg+3,powf@z+3
  3968   001768                     l3773:
  3969   001768  C1B4  F084         	movff	powf@z,?_powf
  3970   00176C  C1B5  F085         	movff	powf@z+1,?_powf+1
  3971   001770  C1B6  F086         	movff	powf@z+2,?_powf+2
  3972   001774  C1B7  F087         	movff	powf@z+3,?_powf+3
  3973   001778  EFDB  F01C         	goto	l1074
  3974   00177C                     l3777:
  3975                           
  3976                           ; BSR set to: 1
  3977   00177C  0E00               	movlw	0
  3978   00177E  6F88               	movwf	powf@sn& (0+255),b
  3979   001780  0E00               	movlw	0
  3980   001782  6F89               	movwf	(powf@sn+1)& (0+255),b
  3981   001784  0E80               	movlw	128
  3982   001786  6F8A               	movwf	(powf@sn+2)& (0+255),b
  3983   001788  0E3F               	movlw	63
  3984   00178A  6F8B               	movwf	(powf@sn+3)& (0+255),b
  3985   00178C                     
  3986                           ; BSR set to: 1
  3987   00178C  BF63               	btfsc	(powf@hx+3)& (0+255),7,b
  3988   00178E  EFCD  F00B         	goto	u3810
  3989   001792  EFCB  F00B         	goto	u3811
  3990   001796                     u3811:
  3991   001796  EF30  F00C         	goto	l3793
  3992   00179A                     u3810:
  3993   00179A                     
  3994                           ; BSR set to: 1
  3995   00179A  5150               	movf	powf@yisint& (0+255),w,b
  3996   00179C  1151               	iorwf	(powf@yisint+1)& (0+255),w,b
  3997   00179E  1152               	iorwf	(powf@yisint+2)& (0+255),w,b
  3998   0017A0  1153               	iorwf	(powf@yisint+3)& (0+255),w,b
  3999   0017A2  A4D8               	btfss	status,2,c
  4000   0017A4  EFD6  F00B         	goto	u3821
  4001   0017A8  EFD8  F00B         	goto	u3820
  4002   0017AC                     u3821:
  4003   0017AC  EF1D  F00C         	goto	l3789
  4004   0017B0                     u3820:
  4005   0017B0                     
  4006                           ; BSR set to: 1
  4007   0017B0  0E00               	movlw	0
  4008   0017B2  0100               	movlb	0	; () banked
  4009   0017B4  6FB7               	movwf	(_errno+1)& (0+255),b
  4010   0017B6  0E21               	movlw	33
  4011   0017B8  6FB6               	movwf	_errno& (0+255),b
  4012   0017BA                     
  4013                           ; BSR set to: 0
  4014   0017BA  C084  F02E         	movff	powf@x,___flsub@a
  4015   0017BE  C085  F02F         	movff	powf@x+1,___flsub@a+1
  4016   0017C2  C086  F030         	movff	powf@x+2,___flsub@a+2
  4017   0017C6  C087  F031         	movff	powf@x+3,___flsub@a+3
  4018   0017CA  C084  F02A         	movff	powf@x,___flsub@b
  4019   0017CE  C085  F02B         	movff	powf@x+1,___flsub@b+1
  4020   0017D2  C086  F02C         	movff	powf@x+2,___flsub@b+2
  4021   0017D6  C087  F02D         	movff	powf@x+3,___flsub@b+3
  4022   0017DA  EC14  F030         	call	___flsub	;wreg free
  4023   0017DE  C02A  F032         	movff	?___flsub,___fldiv@b
  4024   0017E2  C02B  F033         	movff	?___flsub+1,___fldiv@b+1
  4025   0017E6  C02C  F034         	movff	?___flsub+2,___fldiv@b+2
  4026   0017EA  C02D  F035         	movff	?___flsub+3,___fldiv@b+3
  4027   0017EE  C084  F02E         	movff	powf@x,___flsub@a
  4028   0017F2  C085  F02F         	movff	powf@x+1,___flsub@a+1
  4029   0017F6  C086  F030         	movff	powf@x+2,___flsub@a+2
  4030   0017FA  C087  F031         	movff	powf@x+3,___flsub@a+3
  4031   0017FE  C084  F02A         	movff	powf@x,___flsub@b
  4032   001802  C085  F02B         	movff	powf@x+1,___flsub@b+1
  4033   001806  C086  F02C         	movff	powf@x+2,___flsub@b+2
  4034   00180A  C087  F02D         	movff	powf@x+3,___flsub@b+3
  4035   00180E  EC14  F030         	call	___flsub	;wreg free
  4036   001812  C02A  F036         	movff	?___flsub,___fldiv@a
  4037   001816  C02B  F037         	movff	?___flsub+1,___fldiv@a+1
  4038   00181A  C02C  F038         	movff	?___flsub+2,___fldiv@a+2
  4039   00181E  C02D  F039         	movff	?___flsub+3,___fldiv@a+3
  4040   001822  EC98  F026         	call	___fldiv	;wreg free
  4041   001826  C032  F084         	movff	?___fldiv,?_powf
  4042   00182A  C033  F085         	movff	?___fldiv+1,?_powf+1
  4043   00182E  C034  F086         	movff	?___fldiv+2,?_powf+2
  4044   001832  C035  F087         	movff	?___fldiv+3,?_powf+3
  4045   001836  EFDB  F01C         	goto	l1074
  4046   00183A                     l3789:
  4047                           
  4048                           ; BSR set to: 1
  4049   00183A  0550               	decf	powf@yisint& (0+255),w,b
  4050   00183C  1151               	iorwf	(powf@yisint+1)& (0+255),w,b
  4051   00183E  1152               	iorwf	(powf@yisint+2)& (0+255),w,b
  4052   001840  1153               	iorwf	(powf@yisint+3)& (0+255),w,b
  4053   001842  A4D8               	btfss	status,2,c
  4054   001844  EF26  F00C         	goto	u3831
  4055   001848  EF28  F00C         	goto	u3830
  4056   00184C                     u3831:
  4057   00184C  EF30  F00C         	goto	l3793
  4058   001850                     u3830:
  4059   001850                     
  4060                           ; BSR set to: 1
  4061   001850  0E00               	movlw	0
  4062   001852  6F88               	movwf	powf@sn& (0+255),b
  4063   001854  0E00               	movlw	0
  4064   001856  6F89               	movwf	(powf@sn+1)& (0+255),b
  4065   001858  0E80               	movlw	128
  4066   00185A  6F8A               	movwf	(powf@sn+2)& (0+255),b
  4067   00185C  0EBF               	movlw	191
  4068   00185E  6F8B               	movwf	(powf@sn+3)& (0+255),b
  4069   001860                     l3793:
  4070                           
  4071                           ; BSR set to: 1
  4072   001860  BF9B               	btfsc	(powf@iy+3)& (0+255),7,b
  4073   001862  EF3F  F00C         	goto	u3841
  4074   001866  0598               	decf	powf@iy& (0+255),w,b
  4075   001868  0E00               	movlw	0
  4076   00186A  5999               	subwfb	(powf@iy+1)& (0+255),w,b
  4077   00186C  0E00               	movlw	0
  4078   00186E  599A               	subwfb	(powf@iy+2)& (0+255),w,b
  4079   001870  0E4D               	movlw	77
  4080   001872  599B               	subwfb	(powf@iy+3)& (0+255),w,b
  4081   001874  A0D8               	btfss	status,0,c
  4082   001876  EF3F  F00C         	goto	u3841
  4083   00187A  EF41  F00C         	goto	u3840
  4084   00187E                     u3841:
  4085   00187E  EFC6  F00E         	goto	l3841
  4086   001882                     u3840:
  4087   001882                     
  4088                           ; BSR set to: 1
  4089   001882  BFAB               	btfsc	(powf@ix+3)& (0+255),7,b
  4090   001884  EF53  F00C         	goto	u3850
  4091   001888  0EF8               	movlw	248
  4092   00188A  5DA8               	subwf	powf@ix& (0+255),w,b
  4093   00188C  0EFF               	movlw	255
  4094   00188E  59A9               	subwfb	(powf@ix+1)& (0+255),w,b
  4095   001890  0E7F               	movlw	127
  4096   001892  59AA               	subwfb	(powf@ix+2)& (0+255),w,b
  4097   001894  0E3F               	movlw	63
  4098   001896  59AB               	subwfb	(powf@ix+3)& (0+255),w,b
  4099   001898  B0D8               	btfsc	status,0,c
  4100   00189A  EF51  F00C         	goto	u3851
  4101   00189E  EF53  F00C         	goto	u3850
  4102   0018A2                     u3851:
  4103   0018A2  EFC6  F00C         	goto	l3805
  4104   0018A6                     u3850:
  4105   0018A6                     
  4106                           ; BSR set to: 1
  4107   0018A6  BF87               	btfsc	(powf@hy+3)& (0+255),7,b
  4108   0018A8  EF58  F00C         	goto	u3861
  4109   0018AC  EF5A  F00C         	goto	u3860
  4110   0018B0                     u3861:
  4111   0018B0  EF90  F00C         	goto	l3801
  4112   0018B4                     u3860:
  4113   0018B4                     
  4114                           ; BSR set to: 1
  4115   0018B4  0E60               	movlw	96
  4116   0018B6  6E15               	movwf	___flmul@a^0,c
  4117   0018B8  0E42               	movlw	66
  4118   0018BA  6E16               	movwf	(___flmul@a+1)^0,c
  4119   0018BC  0EA2               	movlw	162
  4120   0018BE  6E17               	movwf	(___flmul@a+2)^0,c
  4121   0018C0  0E0D               	movlw	13
  4122   0018C2  6E18               	movwf	(___flmul@a+3)^0,c
  4123   0018C4  C188  F011         	movff	powf@sn,___flmul@b
  4124   0018C8  C189  F012         	movff	powf@sn+1,___flmul@b+1
  4125   0018CC  C18A  F013         	movff	powf@sn+2,___flmul@b+2
  4126   0018D0  C18B  F014         	movff	powf@sn+3,___flmul@b+3
  4127   0018D4  EC83  F024         	call	___flmul	;wreg free
  4128   0018D8  C011  F1A4         	movff	?___flmul,_powf$1351
  4129   0018DC  C012  F1A5         	movff	?___flmul+1,_powf$1351+1
  4130   0018E0  C013  F1A6         	movff	?___flmul+2,_powf$1351+2
  4131   0018E4  C014  F1A7         	movff	?___flmul+3,_powf$1351+3
  4132   0018E8  C1A4  F011         	movff	_powf$1351,___flmul@b
  4133   0018EC  C1A5  F012         	movff	_powf$1351+1,___flmul@b+1
  4134   0018F0  C1A6  F013         	movff	_powf$1351+2,___flmul@b+2
  4135   0018F4  C1A7  F014         	movff	_powf$1351+3,___flmul@b+3
  4136   0018F8  0E60               	movlw	96
  4137   0018FA  6E15               	movwf	___flmul@a^0,c
  4138   0018FC  0E42               	movlw	66
  4139   0018FE  6E16               	movwf	(___flmul@a+1)^0,c
  4140   001900  0EA2               	movlw	162
  4141   001902  6E17               	movwf	(___flmul@a+2)^0,c
  4142   001904  0E0D               	movlw	13
  4143   001906  6E18               	movwf	(___flmul@a+3)^0,c
  4144   001908  EC83  F024         	call	___flmul	;wreg free
  4145   00190C  C011  F084         	movff	?___flmul,?_powf
  4146   001910  C012  F085         	movff	?___flmul+1,?_powf+1
  4147   001914  C013  F086         	movff	?___flmul+2,?_powf+2
  4148   001918  C014  F087         	movff	?___flmul+3,?_powf+3
  4149   00191C  EFDB  F01C         	goto	l1074
  4150   001920                     l3801:
  4151                           
  4152                           ; BSR set to: 1
  4153   001920  0ECA               	movlw	202
  4154   001922  6E15               	movwf	___flmul@a^0,c
  4155   001924  0EF2               	movlw	242
  4156   001926  6E16               	movwf	(___flmul@a+1)^0,c
  4157   001928  0E49               	movlw	73
  4158   00192A  6E17               	movwf	(___flmul@a+2)^0,c
  4159   00192C  0E71               	movlw	113
  4160   00192E  6E18               	movwf	(___flmul@a+3)^0,c
  4161   001930  C188  F011         	movff	powf@sn,___flmul@b
  4162   001934  C189  F012         	movff	powf@sn+1,___flmul@b+1
  4163   001938  C18A  F013         	movff	powf@sn+2,___flmul@b+2
  4164   00193C  C18B  F014         	movff	powf@sn+3,___flmul@b+3
  4165   001940  EC83  F024         	call	___flmul	;wreg free
  4166   001944  C011  F1A4         	movff	?___flmul,_powf$1351
  4167   001948  C012  F1A5         	movff	?___flmul+1,_powf$1351+1
  4168   00194C  C013  F1A6         	movff	?___flmul+2,_powf$1351+2
  4169   001950  C014  F1A7         	movff	?___flmul+3,_powf$1351+3
  4170   001954  C1A4  F011         	movff	_powf$1351,___flmul@b
  4171   001958  C1A5  F012         	movff	_powf$1351+1,___flmul@b+1
  4172   00195C  C1A6  F013         	movff	_powf$1351+2,___flmul@b+2
  4173   001960  C1A7  F014         	movff	_powf$1351+3,___flmul@b+3
  4174   001964  0ECA               	movlw	202
  4175   001966  6E15               	movwf	___flmul@a^0,c
  4176   001968  0EF2               	movlw	242
  4177   00196A  6E16               	movwf	(___flmul@a+1)^0,c
  4178   00196C  0E49               	movlw	73
  4179   00196E  6E17               	movwf	(___flmul@a+2)^0,c
  4180   001970  0E71               	movlw	113
  4181   001972  6E18               	movwf	(___flmul@a+3)^0,c
  4182   001974  EC83  F024         	call	___flmul	;wreg free
  4183   001978  C011  F084         	movff	?___flmul,?_powf
  4184   00197C  C012  F085         	movff	?___flmul+1,?_powf+1
  4185   001980  C013  F086         	movff	?___flmul+2,?_powf+2
  4186   001984  C014  F087         	movff	?___flmul+3,?_powf+3
  4187   001988  EFDB  F01C         	goto	l1074
  4188   00198C                     l3805:
  4189                           
  4190                           ; BSR set to: 1
  4191   00198C  BFAB               	btfsc	(powf@ix+3)& (0+255),7,b
  4192   00198E  EFD6  F00C         	goto	u3871
  4193   001992  0E08               	movlw	8
  4194   001994  5DA8               	subwf	powf@ix& (0+255),w,b
  4195   001996  0E00               	movlw	0
  4196   001998  59A9               	subwfb	(powf@ix+1)& (0+255),w,b
  4197   00199A  0E80               	movlw	128
  4198   00199C  59AA               	subwfb	(powf@ix+2)& (0+255),w,b
  4199   00199E  0E3F               	movlw	63
  4200   0019A0  59AB               	subwfb	(powf@ix+3)& (0+255),w,b
  4201   0019A2  A0D8               	btfss	status,0,c
  4202   0019A4  EFD6  F00C         	goto	u3871
  4203   0019A8  EFD8  F00C         	goto	u3870
  4204   0019AC                     u3871:
  4205   0019AC  EF53  F00D         	goto	l3815
  4206   0019B0                     u3870:
  4207   0019B0                     
  4208                           ; BSR set to: 1
  4209   0019B0  BF87               	btfsc	(powf@hy+3)& (0+255),7,b
  4210   0019B2  EFE7  F00C         	goto	u3880
  4211   0019B6  5187               	movf	(powf@hy+3)& (0+255),w,b
  4212   0019B8  1186               	iorwf	(powf@hy+2)& (0+255),w,b
  4213   0019BA  1185               	iorwf	(powf@hy+1)& (0+255),w,b
  4214   0019BC  E106               	bnz	u3881
  4215   0019BE  0584               	decf	powf@hy& (0+255),w,b
  4216   0019C0  B0D8               	btfsc	status,0,c
  4217   0019C2  EFE5  F00C         	goto	u3881
  4218   0019C6  EFE7  F00C         	goto	u3880
  4219   0019CA                     u3881:
  4220   0019CA  EF1D  F00D         	goto	l3811
  4221   0019CE                     u3880:
  4222   0019CE                     
  4223                           ; BSR set to: 1
  4224   0019CE  0E60               	movlw	96
  4225   0019D0  6E15               	movwf	___flmul@a^0,c
  4226   0019D2  0E42               	movlw	66
  4227   0019D4  6E16               	movwf	(___flmul@a+1)^0,c
  4228   0019D6  0EA2               	movlw	162
  4229   0019D8  6E17               	movwf	(___flmul@a+2)^0,c
  4230   0019DA  0E0D               	movlw	13
  4231   0019DC  6E18               	movwf	(___flmul@a+3)^0,c
  4232   0019DE  C188  F011         	movff	powf@sn,___flmul@b
  4233   0019E2  C189  F012         	movff	powf@sn+1,___flmul@b+1
  4234   0019E6  C18A  F013         	movff	powf@sn+2,___flmul@b+2
  4235   0019EA  C18B  F014         	movff	powf@sn+3,___flmul@b+3
  4236   0019EE  EC83  F024         	call	___flmul	;wreg free
  4237   0019F2  C011  F1A4         	movff	?___flmul,_powf$1351
  4238   0019F6  C012  F1A5         	movff	?___flmul+1,_powf$1351+1
  4239   0019FA  C013  F1A6         	movff	?___flmul+2,_powf$1351+2
  4240   0019FE  C014  F1A7         	movff	?___flmul+3,_powf$1351+3
  4241   001A02  C1A4  F011         	movff	_powf$1351,___flmul@b
  4242   001A06  C1A5  F012         	movff	_powf$1351+1,___flmul@b+1
  4243   001A0A  C1A6  F013         	movff	_powf$1351+2,___flmul@b+2
  4244   001A0E  C1A7  F014         	movff	_powf$1351+3,___flmul@b+3
  4245   001A12  0E60               	movlw	96
  4246   001A14  6E15               	movwf	___flmul@a^0,c
  4247   001A16  0E42               	movlw	66
  4248   001A18  6E16               	movwf	(___flmul@a+1)^0,c
  4249   001A1A  0EA2               	movlw	162
  4250   001A1C  6E17               	movwf	(___flmul@a+2)^0,c
  4251   001A1E  0E0D               	movlw	13
  4252   001A20  6E18               	movwf	(___flmul@a+3)^0,c
  4253   001A22  EC83  F024         	call	___flmul	;wreg free
  4254   001A26  C011  F084         	movff	?___flmul,?_powf
  4255   001A2A  C012  F085         	movff	?___flmul+1,?_powf+1
  4256   001A2E  C013  F086         	movff	?___flmul+2,?_powf+2
  4257   001A32  C014  F087         	movff	?___flmul+3,?_powf+3
  4258   001A36  EFDB  F01C         	goto	l1074
  4259   001A3A                     l3811:
  4260                           
  4261                           ; BSR set to: 1
  4262   001A3A  0ECA               	movlw	202
  4263   001A3C  6E15               	movwf	___flmul@a^0,c
  4264   001A3E  0EF2               	movlw	242
  4265   001A40  6E16               	movwf	(___flmul@a+1)^0,c
  4266   001A42  0E49               	movlw	73
  4267   001A44  6E17               	movwf	(___flmul@a+2)^0,c
  4268   001A46  0E71               	movlw	113
  4269   001A48  6E18               	movwf	(___flmul@a+3)^0,c
  4270   001A4A  C188  F011         	movff	powf@sn,___flmul@b
  4271   001A4E  C189  F012         	movff	powf@sn+1,___flmul@b+1
  4272   001A52  C18A  F013         	movff	powf@sn+2,___flmul@b+2
  4273   001A56  C18B  F014         	movff	powf@sn+3,___flmul@b+3
  4274   001A5A  EC83  F024         	call	___flmul	;wreg free
  4275   001A5E  C011  F1A4         	movff	?___flmul,_powf$1351
  4276   001A62  C012  F1A5         	movff	?___flmul+1,_powf$1351+1
  4277   001A66  C013  F1A6         	movff	?___flmul+2,_powf$1351+2
  4278   001A6A  C014  F1A7         	movff	?___flmul+3,_powf$1351+3
  4279   001A6E  C1A4  F011         	movff	_powf$1351,___flmul@b
  4280   001A72  C1A5  F012         	movff	_powf$1351+1,___flmul@b+1
  4281   001A76  C1A6  F013         	movff	_powf$1351+2,___flmul@b+2
  4282   001A7A  C1A7  F014         	movff	_powf$1351+3,___flmul@b+3
  4283   001A7E  0ECA               	movlw	202
  4284   001A80  6E15               	movwf	___flmul@a^0,c
  4285   001A82  0EF2               	movlw	242
  4286   001A84  6E16               	movwf	(___flmul@a+1)^0,c
  4287   001A86  0E49               	movlw	73
  4288   001A88  6E17               	movwf	(___flmul@a+2)^0,c
  4289   001A8A  0E71               	movlw	113
  4290   001A8C  6E18               	movwf	(___flmul@a+3)^0,c
  4291   001A8E  EC83  F024         	call	___flmul	;wreg free
  4292   001A92  C011  F084         	movff	?___flmul,?_powf
  4293   001A96  C012  F085         	movff	?___flmul+1,?_powf+1
  4294   001A9A  C013  F086         	movff	?___flmul+2,?_powf+2
  4295   001A9E  C014  F087         	movff	?___flmul+3,?_powf+3
  4296   001AA2  EFDB  F01C         	goto	l1074
  4297   001AA6                     l3815:
  4298                           
  4299                           ; BSR set to: 1
  4300   001AA6  C170  F001         	movff	powf@ax,___fladd@b
  4301   001AAA  C171  F002         	movff	powf@ax+1,___fladd@b+1
  4302   001AAE  C172  F003         	movff	powf@ax+2,___fladd@b+2
  4303   001AB2  C173  F004         	movff	powf@ax+3,___fladd@b+3
  4304   001AB6  0E00               	movlw	0
  4305   001AB8  6E05               	movwf	___fladd@a^0,c
  4306   001ABA  0E00               	movlw	0
  4307   001ABC  6E06               	movwf	(___fladd@a+1)^0,c
  4308   001ABE  0E80               	movlw	128
  4309   001AC0  6E07               	movwf	(___fladd@a+2)^0,c
  4310   001AC2  0EBF               	movlw	191
  4311   001AC4  6E08               	movwf	(___fladd@a+3)^0,c
  4312   001AC6  EC23  F022         	call	___fladd	;wreg free
  4313   001ACA  C001  F1B0         	movff	?___fladd,powf@t
  4314   001ACE  C002  F1B1         	movff	?___fladd+1,powf@t+1
  4315   001AD2  C003  F1B2         	movff	?___fladd+2,powf@t+2
  4316   001AD6  C004  F1B3         	movff	?___fladd+3,powf@t+3
  4317   001ADA  0E00               	movlw	0
  4318   001ADC  6E15               	movwf	___flmul@a^0,c
  4319   001ADE  0E00               	movlw	0
  4320   001AE0  6E16               	movwf	(___flmul@a+1)^0,c
  4321   001AE2  0E80               	movlw	128
  4322   001AE4  6E17               	movwf	(___flmul@a+2)^0,c
  4323   001AE6  0E3E               	movlw	62
  4324   001AE8  6E18               	movwf	(___flmul@a+3)^0,c
  4325   001AEA  C1B0  F011         	movff	powf@t,___flmul@b
  4326   001AEE  C1B1  F012         	movff	powf@t+1,___flmul@b+1
  4327   001AF2  C1B2  F013         	movff	powf@t+2,___flmul@b+2
  4328   001AF6  C1B3  F014         	movff	powf@t+3,___flmul@b+3
  4329   001AFA  EC83  F024         	call	___flmul	;wreg free
  4330   001AFE  C011  F02E         	movff	?___flmul,___flsub@a
  4331   001B02  C012  F02F         	movff	?___flmul+1,___flsub@a+1
  4332   001B06  C013  F030         	movff	?___flmul+2,___flsub@a+2
  4333   001B0A  C014  F031         	movff	?___flmul+3,___flsub@a+3
  4334   001B0E  0EAB               	movlw	171
  4335   001B10  6E2A               	movwf	___flsub@b^0,c
  4336   001B12  0EAA               	movlw	170
  4337   001B14  6E2B               	movwf	(___flsub@b+1)^0,c
  4338   001B16  0EAA               	movlw	170
  4339   001B18  6E2C               	movwf	(___flsub@b+2)^0,c
  4340   001B1A  0E3E               	movlw	62
  4341   001B1C  6E2D               	movwf	(___flsub@b+3)^0,c
  4342   001B1E  EC14  F030         	call	___flsub	;wreg free
  4343   001B22  C02A  F1A4         	movff	?___flsub,_powf$1351
  4344   001B26  C02B  F1A5         	movff	?___flsub+1,_powf$1351+1
  4345   001B2A  C02C  F1A6         	movff	?___flsub+2,_powf$1351+2
  4346   001B2E  C02D  F1A7         	movff	?___flsub+3,_powf$1351+3
  4347   001B32  C1B0  F015         	movff	powf@t,___flmul@a
  4348   001B36  C1B1  F016         	movff	powf@t+1,___flmul@a+1
  4349   001B3A  C1B2  F017         	movff	powf@t+2,___flmul@a+2
  4350   001B3E  C1B3  F018         	movff	powf@t+3,___flmul@a+3
  4351   001B42  C1B0  F011         	movff	powf@t,___flmul@b
  4352   001B46  C1B1  F012         	movff	powf@t+1,___flmul@b+1
  4353   001B4A  C1B2  F013         	movff	powf@t+2,___flmul@b+2
  4354   001B4E  C1B3  F014         	movff	powf@t+3,___flmul@b+3
  4355   001B52  EC83  F024         	call	___flmul	;wreg free
  4356   001B56  C011  F154         	movff	?___flmul,_powf$1352
  4357   001B5A  C012  F155         	movff	?___flmul+1,_powf$1352+1
  4358   001B5E  C013  F156         	movff	?___flmul+2,_powf$1352+2
  4359   001B62  C014  F157         	movff	?___flmul+3,_powf$1352+3
  4360   001B66  C1B0  F015         	movff	powf@t,___flmul@a
  4361   001B6A  C1B1  F016         	movff	powf@t+1,___flmul@a+1
  4362   001B6E  C1B2  F017         	movff	powf@t+2,___flmul@a+2
  4363   001B72  C1B3  F018         	movff	powf@t+3,___flmul@a+3
  4364   001B76  C1A4  F011         	movff	_powf$1351,___flmul@b
  4365   001B7A  C1A5  F012         	movff	_powf$1351+1,___flmul@b+1
  4366   001B7E  C1A6  F013         	movff	_powf$1351+2,___flmul@b+2
  4367   001B82  C1A7  F014         	movff	_powf$1351+3,___flmul@b+3
  4368   001B86  EC83  F024         	call	___flmul	;wreg free
  4369   001B8A  C011  F02E         	movff	?___flmul,___flsub@a
  4370   001B8E  C012  F02F         	movff	?___flmul+1,___flsub@a+1
  4371   001B92  C013  F030         	movff	?___flmul+2,___flsub@a+2
  4372   001B96  C014  F031         	movff	?___flmul+3,___flsub@a+3
  4373   001B9A  0E00               	movlw	0
  4374   001B9C  6E2A               	movwf	___flsub@b^0,c
  4375   001B9E  0E00               	movlw	0
  4376   001BA0  6E2B               	movwf	(___flsub@b+1)^0,c
  4377   001BA2  0E00               	movlw	0
  4378   001BA4  6E2C               	movwf	(___flsub@b+2)^0,c
  4379   001BA6  0E3F               	movlw	63
  4380   001BA8  6E2D               	movwf	(___flsub@b+3)^0,c
  4381   001BAA  EC14  F030         	call	___flsub	;wreg free
  4382   001BAE  C02A  F148         	movff	?___flsub,_powf$1353
  4383   001BB2  C02B  F149         	movff	?___flsub+1,_powf$1353+1
  4384   001BB6  C02C  F14A         	movff	?___flsub+2,_powf$1353+2
  4385   001BBA  C02D  F14B         	movff	?___flsub+3,_powf$1353+3
  4386   001BBE  C154  F011         	movff	_powf$1352,___flmul@b
  4387   001BC2  C155  F012         	movff	_powf$1352+1,___flmul@b+1
  4388   001BC6  C156  F013         	movff	_powf$1352+2,___flmul@b+2
  4389   001BCA  C157  F014         	movff	_powf$1352+3,___flmul@b+3
  4390   001BCE  C148  F015         	movff	_powf$1353,___flmul@a
  4391   001BD2  C149  F016         	movff	_powf$1353+1,___flmul@a+1
  4392   001BD6  C14A  F017         	movff	_powf$1353+2,___flmul@a+2
  4393   001BDA  C14B  F018         	movff	_powf$1353+3,___flmul@a+3
  4394   001BDE  EC83  F024         	call	___flmul	;wreg free
  4395   001BE2  C011  F144         	movff	?___flmul,powf@w
  4396   001BE6  C012  F145         	movff	?___flmul+1,powf@w+1
  4397   001BEA  C013  F146         	movff	?___flmul+2,powf@w+2
  4398   001BEE  C014  F147         	movff	?___flmul+3,powf@w+3
  4399   001BF2  C1B0  F011         	movff	powf@t,___flmul@b
  4400   001BF6  C1B1  F012         	movff	powf@t+1,___flmul@b+1
  4401   001BFA  C1B2  F013         	movff	powf@t+2,___flmul@b+2
  4402   001BFE  C1B3  F014         	movff	powf@t+3,___flmul@b+3
  4403   001C02  0E00               	movlw	0
  4404   001C04  6E15               	movwf	___flmul@a^0,c
  4405   001C06  0EAA               	movlw	170
  4406   001C08  6E16               	movwf	(___flmul@a+1)^0,c
  4407   001C0A  0EB8               	movlw	184
  4408   001C0C  6E17               	movwf	(___flmul@a+2)^0,c
  4409   001C0E  0E3F               	movlw	63
  4410   001C10  6E18               	movwf	(___flmul@a+3)^0,c
  4411   001C12  EC83  F024         	call	___flmul	;wreg free
  4412   001C16  C011  F174         	movff	?___flmul,powf@u
  4413   001C1A  C012  F175         	movff	?___flmul+1,powf@u+1
  4414   001C1E  C013  F176         	movff	?___flmul+2,powf@u+2
  4415   001C22  C014  F177         	movff	?___flmul+3,powf@u+3
  4416   001C26  0E70               	movlw	112
  4417   001C28  6E15               	movwf	___flmul@a^0,c
  4418   001C2A  0EA5               	movlw	165
  4419   001C2C  6E16               	movwf	(___flmul@a+1)^0,c
  4420   001C2E  0EEC               	movlw	236
  4421   001C30  6E17               	movwf	(___flmul@a+2)^0,c
  4422   001C32  0E36               	movlw	54
  4423   001C34  6E18               	movwf	(___flmul@a+3)^0,c
  4424   001C36  C1B0  F011         	movff	powf@t,___flmul@b
  4425   001C3A  C1B1  F012         	movff	powf@t+1,___flmul@b+1
  4426   001C3E  C1B2  F013         	movff	powf@t+2,___flmul@b+2
  4427   001C42  C1B3  F014         	movff	powf@t+3,___flmul@b+3
  4428   001C46  EC83  F024         	call	___flmul	;wreg free
  4429   001C4A  C011  F02A         	movff	?___flmul,___flsub@b
  4430   001C4E  C012  F02B         	movff	?___flmul+1,___flsub@b+1
  4431   001C52  C013  F02C         	movff	?___flmul+2,___flsub@b+2
  4432   001C56  C014  F02D         	movff	?___flmul+3,___flsub@b+3
  4433   001C5A  0E3B               	movlw	59
  4434   001C5C  6E15               	movwf	___flmul@a^0,c
  4435   001C5E  0EAA               	movlw	170
  4436   001C60  6E16               	movwf	(___flmul@a+1)^0,c
  4437   001C62  0EB8               	movlw	184
  4438   001C64  6E17               	movwf	(___flmul@a+2)^0,c
  4439   001C66  0E3F               	movlw	63
  4440   001C68  6E18               	movwf	(___flmul@a+3)^0,c
  4441   001C6A  C144  F011         	movff	powf@w,___flmul@b
  4442   001C6E  C145  F012         	movff	powf@w+1,___flmul@b+1
  4443   001C72  C146  F013         	movff	powf@w+2,___flmul@b+2
  4444   001C76  C147  F014         	movff	powf@w+3,___flmul@b+3
  4445   001C7A  EC83  F024         	call	___flmul	;wreg free
  4446   001C7E  C011  F02E         	movff	?___flmul,___flsub@a
  4447   001C82  C012  F02F         	movff	?___flmul+1,___flsub@a+1
  4448   001C86  C013  F030         	movff	?___flmul+2,___flsub@a+2
  4449   001C8A  C014  F031         	movff	?___flmul+3,___flsub@a+3
  4450   001C8E  EC14  F030         	call	___flsub	;wreg free
  4451   001C92  C02A  F178         	movff	?___flsub,powf@v
  4452   001C96  C02B  F179         	movff	?___flsub+1,powf@v+1
  4453   001C9A  C02C  F17A         	movff	?___flsub+2,powf@v+2
  4454   001C9E  C02D  F17B         	movff	?___flsub+3,powf@v+3
  4455   001CA2  C174  F001         	movff	powf@u,___fladd@b
  4456   001CA6  C175  F002         	movff	powf@u+1,___fladd@b+1
  4457   001CAA  C176  F003         	movff	powf@u+2,___fladd@b+2
  4458   001CAE  C177  F004         	movff	powf@u+3,___fladd@b+3
  4459   001CB2  C178  F005         	movff	powf@v,___fladd@a
  4460   001CB6  C179  F006         	movff	powf@v+1,___fladd@a+1
  4461   001CBA  C17A  F007         	movff	powf@v+2,___fladd@a+2
  4462   001CBE  C17B  F008         	movff	powf@v+3,___fladd@a+3
  4463   001CC2  EC23  F022         	call	___fladd	;wreg free
  4464   001CC6  C001  F180         	movff	?___fladd,powf@t1
  4465   001CCA  C002  F181         	movff	?___fladd+1,powf@t1+1
  4466   001CCE  C003  F182         	movff	?___fladd+2,powf@t1+2
  4467   001CD2  C004  F183         	movff	?___fladd+3,powf@t1+3
  4468   001CD6  C180  F1B8         	movff	powf@t1,powf@__xc8_float_word
  4469   001CDA  C181  F1B9         	movff	powf@t1+1,powf@__xc8_float_word+1
  4470   001CDE  C182  F1BA         	movff	powf@t1+2,powf@__xc8_float_word+2
  4471   001CE2  C183  F1BB         	movff	powf@t1+3,powf@__xc8_float_word+3
  4472   001CE6  C1B8  F190         	movff	powf@__xc8_float_word,powf@is
  4473   001CEA  C1B9  F191         	movff	powf@__xc8_float_word+1,powf@is+1
  4474   001CEE  C1BA  F192         	movff	powf@__xc8_float_word+2,powf@is+2
  4475   001CF2  C1BB  F193         	movff	powf@__xc8_float_word+3,powf@is+3
  4476   001CF6  0E00               	movlw	0
  4477   001CF8  0101               	movlb	1	; () banked
  4478   001CFA  1590               	andwf	powf@is& (0+255),w,b
  4479   001CFC  6FB8               	movwf	powf@__xc8_float_word& (0+255),b
  4480   001CFE  0EF0               	movlw	240
  4481   001D00  1591               	andwf	(powf@is+1)& (0+255),w,b
  4482   001D02  6FB9               	movwf	(powf@__xc8_float_word+1)& (0+255),b
  4483   001D04  0EFF               	movlw	255
  4484   001D06  1592               	andwf	(powf@is+2)& (0+255),w,b
  4485   001D08  6FBA               	movwf	(powf@__xc8_float_word+2)& (0+255),b
  4486   001D0A  0EFF               	movlw	255
  4487   001D0C  1593               	andwf	(powf@is+3)& (0+255),w,b
  4488   001D0E  6FBB               	movwf	(powf@__xc8_float_word+3)& (0+255),b
  4489   001D10                     
  4490                           ; BSR set to: 1
  4491   001D10  C1B8  F180         	movff	powf@__xc8_float_word,powf@t1
  4492   001D14  C1B9  F181         	movff	powf@__xc8_float_word+1,powf@t1+1
  4493   001D18  C1BA  F182         	movff	powf@__xc8_float_word+2,powf@t1+2
  4494   001D1C  C1BB  F183         	movff	powf@__xc8_float_word+3,powf@t1+3
  4495   001D20                     
  4496                           ; BSR set to: 1
  4497   001D20  C174  F02E         	movff	powf@u,___flsub@a
  4498   001D24  C175  F02F         	movff	powf@u+1,___flsub@a+1
  4499   001D28  C176  F030         	movff	powf@u+2,___flsub@a+2
  4500   001D2C  C177  F031         	movff	powf@u+3,___flsub@a+3
  4501   001D30  C180  F02A         	movff	powf@t1,___flsub@b
  4502   001D34  C181  F02B         	movff	powf@t1+1,___flsub@b+1
  4503   001D38  C182  F02C         	movff	powf@t1+2,___flsub@b+2
  4504   001D3C  C183  F02D         	movff	powf@t1+3,___flsub@b+3
  4505   001D40  EC14  F030         	call	___flsub	;wreg free
  4506   001D44  C02A  F194         	movff	?___flsub,_powf$1354
  4507   001D48  C02B  F195         	movff	?___flsub+1,_powf$1354+1
  4508   001D4C  C02C  F196         	movff	?___flsub+2,_powf$1354+2
  4509   001D50  C02D  F197         	movff	?___flsub+3,_powf$1354+3
  4510   001D54  C178  F02A         	movff	powf@v,___flsub@b
  4511   001D58  C179  F02B         	movff	powf@v+1,___flsub@b+1
  4512   001D5C  C17A  F02C         	movff	powf@v+2,___flsub@b+2
  4513   001D60  C17B  F02D         	movff	powf@v+3,___flsub@b+3
  4514   001D64  C194  F02E         	movff	_powf$1354,___flsub@a
  4515   001D68  C195  F02F         	movff	_powf$1354+1,___flsub@a+1
  4516   001D6C  C196  F030         	movff	_powf$1354+2,___flsub@a+2
  4517   001D70  C197  F031         	movff	_powf$1354+3,___flsub@a+3
  4518   001D74  EC14  F030         	call	___flsub	;wreg free
  4519   001D78  C02A  F11C         	movff	?___flsub,powf@t2
  4520   001D7C  C02B  F11D         	movff	?___flsub+1,powf@t2+1
  4521   001D80  C02C  F11E         	movff	?___flsub+2,powf@t2+2
  4522   001D84  C02D  F11F         	movff	?___flsub+3,powf@t2+3
  4523   001D88  EF0E  F016         	goto	l3997
  4524   001D8C                     l3841:
  4525                           
  4526                           ; BSR set to: 1
  4527   001D8C  0E00               	movlw	0
  4528   001D8E  6F7C               	movwf	powf@n& (0+255),b
  4529   001D90  0E00               	movlw	0
  4530   001D92  6F7D               	movwf	(powf@n+1)& (0+255),b
  4531   001D94  0E00               	movlw	0
  4532   001D96  6F7E               	movwf	(powf@n+2)& (0+255),b
  4533   001D98  0E00               	movlw	0
  4534   001D9A  6F7F               	movwf	(powf@n+3)& (0+255),b
  4535   001D9C                     
  4536                           ; BSR set to: 1
  4537   001D9C  BFAB               	btfsc	(powf@ix+3)& (0+255),7,b
  4538   001D9E  EFDC  F00E         	goto	u3890
  4539   001DA2  51AB               	movf	(powf@ix+3)& (0+255),w,b
  4540   001DA4  E107               	bnz	u3891
  4541   001DA6  0E80               	movlw	128
  4542   001DA8  5DAA               	subwf	(powf@ix+2)& (0+255),w,b
  4543   001DAA  B0D8               	btfsc	status,0,c
  4544   001DAC  EFDA  F00E         	goto	u3891
  4545   001DB0  EFDC  F00E         	goto	u3890
  4546   001DB4                     u3891:
  4547   001DB4  EF0F  F00F         	goto	l3853
  4548   001DB8                     u3890:
  4549   001DB8                     
  4550                           ; BSR set to: 1
  4551   001DB8  C170  F011         	movff	powf@ax,___flmul@b
  4552   001DBC  C171  F012         	movff	powf@ax+1,___flmul@b+1
  4553   001DC0  C172  F013         	movff	powf@ax+2,___flmul@b+2
  4554   001DC4  C173  F014         	movff	powf@ax+3,___flmul@b+3
  4555   001DC8  0E00               	movlw	0
  4556   001DCA  6E15               	movwf	___flmul@a^0,c
  4557   001DCC  0E00               	movlw	0
  4558   001DCE  6E16               	movwf	(___flmul@a+1)^0,c
  4559   001DD0  0E80               	movlw	128
  4560   001DD2  6E17               	movwf	(___flmul@a+2)^0,c
  4561   001DD4  0E4B               	movlw	75
  4562   001DD6  6E18               	movwf	(___flmul@a+3)^0,c
  4563   001DD8  EC83  F024         	call	___flmul	;wreg free
  4564   001DDC  C011  F170         	movff	?___flmul,powf@ax
  4565   001DE0  C012  F171         	movff	?___flmul+1,powf@ax+1
  4566   001DE4  C013  F172         	movff	?___flmul+2,powf@ax+2
  4567   001DE8  C014  F173         	movff	?___flmul+3,powf@ax+3
  4568   001DEC  0EE8               	movlw	232
  4569   001DEE  0101               	movlb	1	; () banked
  4570   001DF0  277C               	addwf	powf@n& (0+255),f,b
  4571   001DF2  0EFF               	movlw	255
  4572   001DF4  237D               	addwfc	(powf@n+1)& (0+255),f,b
  4573   001DF6  0EFF               	movlw	255
  4574   001DF8  237E               	addwfc	(powf@n+2)& (0+255),f,b
  4575   001DFA  0EFF               	movlw	255
  4576   001DFC  237F               	addwfc	(powf@n+3)& (0+255),f,b
  4577   001DFE                     
  4578                           ; BSR set to: 1
  4579   001DFE  C170  F1B8         	movff	powf@ax,powf@__xc8_float_word
  4580   001E02  C171  F1B9         	movff	powf@ax+1,powf@__xc8_float_word+1
  4581   001E06  C172  F1BA         	movff	powf@ax+2,powf@__xc8_float_word+2
  4582   001E0A  C173  F1BB         	movff	powf@ax+3,powf@__xc8_float_word+3
  4583   001E0E                     
  4584                           ; BSR set to: 1
  4585   001E0E  C1B8  F1A8         	movff	powf@__xc8_float_word,powf@ix
  4586   001E12  C1B9  F1A9         	movff	powf@__xc8_float_word+1,powf@ix+1
  4587   001E16  C1BA  F1AA         	movff	powf@__xc8_float_word+2,powf@ix+2
  4588   001E1A  C1BB  F1AB         	movff	powf@__xc8_float_word+3,powf@ix+3
  4589   001E1E                     l3853:
  4590                           
  4591                           ; BSR set to: 1
  4592   001E1E  0E17               	movlw	23
  4593   001E20  6E4B               	movwf	??_powf^0,c
  4594   001E22  C1A8  F04C         	movff	powf@ix,??_powf+1
  4595   001E26  C1A9  F04D         	movff	powf@ix+1,??_powf+2
  4596   001E2A  C1AA  F04E         	movff	powf@ix+2,??_powf+3
  4597   001E2E  C1AB  F04F         	movff	powf@ix+3,??_powf+4
  4598   001E32                     u3905:
  4599   001E32  664B               	tstfsz	??_powf^0,c
  4600   001E34  EF1E  F00F         	goto	u3906
  4601   001E38  EF26  F00F         	goto	u3907
  4602   001E3C                     u3906:
  4603   001E3C  344F               	rlcf	(??_powf+4)^0,w,c
  4604   001E3E  324F               	rrcf	(??_powf+4)^0,f,c
  4605   001E40  324E               	rrcf	(??_powf+3)^0,f,c
  4606   001E42  324D               	rrcf	(??_powf+2)^0,f,c
  4607   001E44  324C               	rrcf	(??_powf+1)^0,f,c
  4608   001E46  2E4B               	decfsz	??_powf^0,f,c
  4609   001E48  EF19  F00F         	goto	u3905
  4610   001E4C                     u3907:
  4611   001E4C  0E81               	movlw	129
  4612   001E4E  244C               	addwf	(??_powf+1)^0,w,c
  4613   001E50  6E50               	movwf	(??_powf+5)^0,c
  4614   001E52  0EFF               	movlw	255
  4615   001E54  204D               	addwfc	(??_powf+2)^0,w,c
  4616   001E56  6E51               	movwf	(??_powf+6)^0,c
  4617   001E58  0EFF               	movlw	255
  4618   001E5A  204E               	addwfc	(??_powf+3)^0,w,c
  4619   001E5C  6E52               	movwf	(??_powf+7)^0,c
  4620   001E5E  0EFF               	movlw	255
  4621   001E60  204F               	addwfc	(??_powf+4)^0,w,c
  4622   001E62  6E53               	movwf	(??_powf+8)^0,c
  4623   001E64  5050               	movf	(??_powf+5)^0,w,c
  4624   001E66  0101               	movlb	1	; () banked
  4625   001E68  277C               	addwf	powf@n& (0+255),f,b
  4626   001E6A  5051               	movf	(??_powf+6)^0,w,c
  4627   001E6C  237D               	addwfc	(powf@n+1)& (0+255),f,b
  4628   001E6E  5052               	movf	(??_powf+7)^0,w,c
  4629   001E70  237E               	addwfc	(powf@n+2)& (0+255),f,b
  4630   001E72  5053               	movf	(??_powf+8)^0,w,c
  4631   001E74  237F               	addwfc	(powf@n+3)& (0+255),f,b
  4632   001E76                     
  4633                           ; BSR set to: 1
  4634   001E76  0EFF               	movlw	255
  4635   001E78  15A8               	andwf	powf@ix& (0+255),w,b
  4636   001E7A  6FAC               	movwf	powf@j& (0+255),b
  4637   001E7C  0EFF               	movlw	255
  4638   001E7E  15A9               	andwf	(powf@ix+1)& (0+255),w,b
  4639   001E80  6FAD               	movwf	(powf@j+1)& (0+255),b
  4640   001E82  0E7F               	movlw	127
  4641   001E84  15AA               	andwf	(powf@ix+2)& (0+255),w,b
  4642   001E86  6FAE               	movwf	(powf@j+2)& (0+255),b
  4643   001E88  0E00               	movlw	0
  4644   001E8A  15AB               	andwf	(powf@ix+3)& (0+255),w,b
  4645   001E8C  6FAF               	movwf	(powf@j+3)& (0+255),b
  4646   001E8E                     
  4647                           ; BSR set to: 1
  4648   001E8E  0E00               	movlw	0
  4649   001E90  11AC               	iorwf	powf@j& (0+255),w,b
  4650   001E92  6FA8               	movwf	powf@ix& (0+255),b
  4651   001E94  0E00               	movlw	0
  4652   001E96  11AD               	iorwf	(powf@j+1)& (0+255),w,b
  4653   001E98  6FA9               	movwf	(powf@ix+1)& (0+255),b
  4654   001E9A  0E80               	movlw	128
  4655   001E9C  11AE               	iorwf	(powf@j+2)& (0+255),w,b
  4656   001E9E  6FAA               	movwf	(powf@ix+2)& (0+255),b
  4657   001EA0  0E3F               	movlw	63
  4658   001EA2  11AF               	iorwf	(powf@j+3)& (0+255),w,b
  4659   001EA4  6FAB               	movwf	(powf@ix+3)& (0+255),b
  4660   001EA6                     
  4661                           ; BSR set to: 1
  4662   001EA6  BFAF               	btfsc	(powf@j+3)& (0+255),7,b
  4663   001EA8  EF65  F00F         	goto	u3910
  4664   001EAC  51AF               	movf	(powf@j+3)& (0+255),w,b
  4665   001EAE  E10B               	bnz	u3911
  4666   001EB0  0E72               	movlw	114
  4667   001EB2  5DAC               	subwf	powf@j& (0+255),w,b
  4668   001EB4  0EC4               	movlw	196
  4669   001EB6  59AD               	subwfb	(powf@j+1)& (0+255),w,b
  4670   001EB8  0E1C               	movlw	28
  4671   001EBA  59AE               	subwfb	(powf@j+2)& (0+255),w,b
  4672   001EBC  B0D8               	btfsc	status,0,c
  4673   001EBE  EF63  F00F         	goto	u3911
  4674   001EC2  EF65  F00F         	goto	u3910
  4675   001EC6                     u3911:
  4676   001EC6  EF6F  F00F         	goto	l3863
  4677   001ECA                     u3910:
  4678   001ECA                     
  4679                           ; BSR set to: 1
  4680   001ECA  0E00               	movlw	0
  4681   001ECC  6FA0               	movwf	powf@k& (0+255),b
  4682   001ECE  0E00               	movlw	0
  4683   001ED0  6FA1               	movwf	(powf@k+1)& (0+255),b
  4684   001ED2  0E00               	movlw	0
  4685   001ED4  6FA2               	movwf	(powf@k+2)& (0+255),b
  4686   001ED6  0E00               	movlw	0
  4687   001ED8  6FA3               	movwf	(powf@k+3)& (0+255),b
  4688   001EDA  EFA1  F00F         	goto	l3873
  4689   001EDE                     l3863:
  4690                           
  4691                           ; BSR set to: 1
  4692   001EDE  BFAF               	btfsc	(powf@j+3)& (0+255),7,b
  4693   001EE0  EF81  F00F         	goto	u3920
  4694   001EE4  51AF               	movf	(powf@j+3)& (0+255),w,b
  4695   001EE6  E10B               	bnz	u3921
  4696   001EE8  0ED7               	movlw	215
  4697   001EEA  5DAC               	subwf	powf@j& (0+255),w,b
  4698   001EEC  0EB3               	movlw	179
  4699   001EEE  59AD               	subwfb	(powf@j+1)& (0+255),w,b
  4700   001EF0  0E5D               	movlw	93
  4701   001EF2  59AE               	subwfb	(powf@j+2)& (0+255),w,b
  4702   001EF4  B0D8               	btfsc	status,0,c
  4703   001EF6  EF7F  F00F         	goto	u3921
  4704   001EFA  EF81  F00F         	goto	u3920
  4705   001EFE                     u3921:
  4706   001EFE  EF8B  F00F         	goto	l3867
  4707   001F02                     u3920:
  4708   001F02                     
  4709                           ; BSR set to: 1
  4710   001F02  0E01               	movlw	1
  4711   001F04  6FA0               	movwf	powf@k& (0+255),b
  4712   001F06  0E00               	movlw	0
  4713   001F08  6FA1               	movwf	(powf@k+1)& (0+255),b
  4714   001F0A  0E00               	movlw	0
  4715   001F0C  6FA2               	movwf	(powf@k+2)& (0+255),b
  4716   001F0E  0E00               	movlw	0
  4717   001F10  6FA3               	movwf	(powf@k+3)& (0+255),b
  4718   001F12  EFA1  F00F         	goto	l3873
  4719   001F16                     l3867:
  4720                           
  4721                           ; BSR set to: 1
  4722   001F16  0E00               	movlw	0
  4723   001F18  6FA0               	movwf	powf@k& (0+255),b
  4724   001F1A  0E00               	movlw	0
  4725   001F1C  6FA1               	movwf	(powf@k+1)& (0+255),b
  4726   001F1E  0E00               	movlw	0
  4727   001F20  6FA2               	movwf	(powf@k+2)& (0+255),b
  4728   001F22  0E00               	movlw	0
  4729   001F24  6FA3               	movwf	(powf@k+3)& (0+255),b
  4730   001F26                     
  4731                           ; BSR set to: 1
  4732   001F26  0E01               	movlw	1
  4733   001F28  277C               	addwf	powf@n& (0+255),f,b
  4734   001F2A  0E00               	movlw	0
  4735   001F2C  237D               	addwfc	(powf@n+1)& (0+255),f,b
  4736   001F2E  237E               	addwfc	(powf@n+2)& (0+255),f,b
  4737   001F30  237F               	addwfc	(powf@n+3)& (0+255),f,b
  4738   001F32                     
  4739                           ; BSR set to: 1
  4740   001F32  0E00               	movlw	0
  4741   001F34  27A8               	addwf	powf@ix& (0+255),f,b
  4742   001F36  0E00               	movlw	0
  4743   001F38  23A9               	addwfc	(powf@ix+1)& (0+255),f,b
  4744   001F3A  0E80               	movlw	128
  4745   001F3C  23AA               	addwfc	(powf@ix+2)& (0+255),f,b
  4746   001F3E  0EFF               	movlw	255
  4747   001F40  23AB               	addwfc	(powf@ix+3)& (0+255),f,b
  4748   001F42                     l3873:
  4749                           
  4750                           ; BSR set to: 1
  4751   001F42  C1A8  F1B8         	movff	powf@ix,powf@__xc8_float_word
  4752   001F46  C1A9  F1B9         	movff	powf@ix+1,powf@__xc8_float_word+1
  4753   001F4A  C1AA  F1BA         	movff	powf@ix+2,powf@__xc8_float_word+2
  4754   001F4E  C1AB  F1BB         	movff	powf@ix+3,powf@__xc8_float_word+3
  4755   001F52                     
  4756                           ; BSR set to: 1
  4757   001F52  C1B8  F170         	movff	powf@__xc8_float_word,powf@ax
  4758   001F56  C1B9  F171         	movff	powf@__xc8_float_word+1,powf@ax+1
  4759   001F5A  C1BA  F172         	movff	powf@__xc8_float_word+2,powf@ax+2
  4760   001F5E  C1BB  F173         	movff	powf@__xc8_float_word+3,powf@ax+3
  4761   001F62                     
  4762                           ; BSR set to: 1
  4763   001F62  C170  F02A         	movff	powf@ax,___flsub@b
  4764   001F66  C171  F02B         	movff	powf@ax+1,___flsub@b+1
  4765   001F6A  C172  F02C         	movff	powf@ax+2,___flsub@b+2
  4766   001F6E  C173  F02D         	movff	powf@ax+3,___flsub@b+3
  4767   001F72  C1A0  F04B         	movff	powf@k,??_powf
  4768   001F76  C1A1  F04C         	movff	powf@k+1,??_powf+1
  4769   001F7A  90D8               	bcf	status,0,c
  4770   001F7C  364B               	rlcf	??_powf^0,f,c
  4771   001F7E  364C               	rlcf	(??_powf+1)^0,f,c
  4772   001F80  90D8               	bcf	status,0,c
  4773   001F82  364B               	rlcf	??_powf^0,f,c
  4774   001F84  364C               	rlcf	(??_powf+1)^0,f,c
  4775   001F86  0E69               	movlw	low _bp
  4776   001F88  244B               	addwf	??_powf^0,w,c
  4777   001F8A  6EF6               	movwf	tblptrl,c
  4778   001F8C  0E10               	movlw	high _bp
  4779   001F8E  204C               	addwfc	(??_powf+1)^0,w,c
  4780   001F90  6EF7               	movwf	tblptrh,c
  4781   001F92                     	if	0	;There are less than 3 active tblptr bytes
  4782   001F92                     	endif
  4783   001F92  0009               	tblrd		*+
  4784   001F94  CFF5 F02E          	movff	tablat,___flsub@a
  4785   001F98  0009               	tblrd		*+
  4786   001F9A  CFF5 F02F          	movff	tablat,___flsub@a+1
  4787   001F9E  0009               	tblrd		*+
  4788   001FA0  CFF5 F030          	movff	tablat,___flsub@a+2
  4789   001FA4  000A               	tblrd		*-
  4790   001FA6  CFF5 F031          	movff	tablat,___flsub@a+3
  4791   001FAA  EC14  F030         	call	___flsub	;wreg free
  4792   001FAE  C02A  F174         	movff	?___flsub,powf@u
  4793   001FB2  C02B  F175         	movff	?___flsub+1,powf@u+1
  4794   001FB6  C02C  F176         	movff	?___flsub+2,powf@u+2
  4795   001FBA  C02D  F177         	movff	?___flsub+3,powf@u+3
  4796   001FBE  0E00               	movlw	0
  4797   001FC0  6E32               	movwf	___fldiv@b^0,c
  4798   001FC2  0E00               	movlw	0
  4799   001FC4  6E33               	movwf	(___fldiv@b+1)^0,c
  4800   001FC6  0E80               	movlw	128
  4801   001FC8  6E34               	movwf	(___fldiv@b+2)^0,c
  4802   001FCA  0E3F               	movlw	63
  4803   001FCC  6E35               	movwf	(___fldiv@b+3)^0,c
  4804   001FCE  C170  F005         	movff	powf@ax,___fladd@a
  4805   001FD2  C171  F006         	movff	powf@ax+1,___fladd@a+1
  4806   001FD6  C172  F007         	movff	powf@ax+2,___fladd@a+2
  4807   001FDA  C173  F008         	movff	powf@ax+3,___fladd@a+3
  4808   001FDE  C1A0  F04B         	movff	powf@k,??_powf
  4809   001FE2  C1A1  F04C         	movff	powf@k+1,??_powf+1
  4810   001FE6  90D8               	bcf	status,0,c
  4811   001FE8  364B               	rlcf	??_powf^0,f,c
  4812   001FEA  364C               	rlcf	(??_powf+1)^0,f,c
  4813   001FEC  90D8               	bcf	status,0,c
  4814   001FEE  364B               	rlcf	??_powf^0,f,c
  4815   001FF0  364C               	rlcf	(??_powf+1)^0,f,c
  4816   001FF2  0E69               	movlw	low _bp
  4817   001FF4  244B               	addwf	??_powf^0,w,c
  4818   001FF6  6EF6               	movwf	tblptrl,c
  4819   001FF8  0E10               	movlw	high _bp
  4820   001FFA  204C               	addwfc	(??_powf+1)^0,w,c
  4821   001FFC  6EF7               	movwf	tblptrh,c
  4822   001FFE                     	if	0	;There are less than 3 active tblptr bytes
  4823   001FFE                     	endif
  4824   001FFE  0009               	tblrd		*+
  4825   002000  CFF5 F001          	movff	tablat,___fladd@b
  4826   002004  0009               	tblrd		*+
  4827   002006  CFF5 F002          	movff	tablat,___fladd@b+1
  4828   00200A  0009               	tblrd		*+
  4829   00200C  CFF5 F003          	movff	tablat,___fladd@b+2
  4830   002010  000A               	tblrd		*-
  4831   002012  CFF5 F004          	movff	tablat,___fladd@b+3
  4832   002016  EC23  F022         	call	___fladd	;wreg free
  4833   00201A  C001  F036         	movff	?___fladd,___fldiv@a
  4834   00201E  C002  F037         	movff	?___fladd+1,___fldiv@a+1
  4835   002022  C003  F038         	movff	?___fladd+2,___fldiv@a+2
  4836   002026  C004  F039         	movff	?___fladd+3,___fldiv@a+3
  4837   00202A  EC98  F026         	call	___fldiv	;wreg free
  4838   00202E  C032  F178         	movff	?___fldiv,powf@v
  4839   002032  C033  F179         	movff	?___fldiv+1,powf@v+1
  4840   002036  C034  F17A         	movff	?___fldiv+2,powf@v+2
  4841   00203A  C035  F17B         	movff	?___fldiv+3,powf@v+3
  4842   00203E  C174  F011         	movff	powf@u,___flmul@b
  4843   002042  C175  F012         	movff	powf@u+1,___flmul@b+1
  4844   002046  C176  F013         	movff	powf@u+2,___flmul@b+2
  4845   00204A  C177  F014         	movff	powf@u+3,___flmul@b+3
  4846   00204E  C178  F015         	movff	powf@v,___flmul@a
  4847   002052  C179  F016         	movff	powf@v+1,___flmul@a+1
  4848   002056  C17A  F017         	movff	powf@v+2,___flmul@a+2
  4849   00205A  C17B  F018         	movff	powf@v+3,___flmul@a+3
  4850   00205E  EC83  F024         	call	___flmul	;wreg free
  4851   002062  C011  F15C         	movff	?___flmul,powf@s
  4852   002066  C012  F15D         	movff	?___flmul+1,powf@s+1
  4853   00206A  C013  F15E         	movff	?___flmul+2,powf@s+2
  4854   00206E  C014  F15F         	movff	?___flmul+3,powf@s+3
  4855   002072  C15C  F16C         	movff	powf@s,powf@s_h
  4856   002076  C15D  F16D         	movff	powf@s+1,powf@s_h+1
  4857   00207A  C15E  F16E         	movff	powf@s+2,powf@s_h+2
  4858   00207E  C15F  F16F         	movff	powf@s+3,powf@s_h+3
  4859   002082  C16C  F1B8         	movff	powf@s_h,powf@__xc8_float_word
  4860   002086  C16D  F1B9         	movff	powf@s_h+1,powf@__xc8_float_word+1
  4861   00208A  C16E  F1BA         	movff	powf@s_h+2,powf@__xc8_float_word+2
  4862   00208E  C16F  F1BB         	movff	powf@s_h+3,powf@__xc8_float_word+3
  4863   002092  C1B8  F190         	movff	powf@__xc8_float_word,powf@is
  4864   002096  C1B9  F191         	movff	powf@__xc8_float_word+1,powf@is+1
  4865   00209A  C1BA  F192         	movff	powf@__xc8_float_word+2,powf@is+2
  4866   00209E  C1BB  F193         	movff	powf@__xc8_float_word+3,powf@is+3
  4867   0020A2  0E00               	movlw	0
  4868   0020A4  0101               	movlb	1	; () banked
  4869   0020A6  1590               	andwf	powf@is& (0+255),w,b
  4870   0020A8  6FB8               	movwf	powf@__xc8_float_word& (0+255),b
  4871   0020AA  0EF0               	movlw	240
  4872   0020AC  1591               	andwf	(powf@is+1)& (0+255),w,b
  4873   0020AE  6FB9               	movwf	(powf@__xc8_float_word+1)& (0+255),b
  4874   0020B0  0EFF               	movlw	255
  4875   0020B2  1592               	andwf	(powf@is+2)& (0+255),w,b
  4876   0020B4  6FBA               	movwf	(powf@__xc8_float_word+2)& (0+255),b
  4877   0020B6  0EFF               	movlw	255
  4878   0020B8  1593               	andwf	(powf@is+3)& (0+255),w,b
  4879   0020BA  6FBB               	movwf	(powf@__xc8_float_word+3)& (0+255),b
  4880   0020BC                     
  4881                           ; BSR set to: 1
  4882   0020BC  C1B8  F16C         	movff	powf@__xc8_float_word,powf@s_h
  4883   0020C0  C1B9  F16D         	movff	powf@__xc8_float_word+1,powf@s_h+1
  4884   0020C4  C1BA  F16E         	movff	powf@__xc8_float_word+2,powf@s_h+2
  4885   0020C8  C1BB  F16F         	movff	powf@__xc8_float_word+3,powf@s_h+3
  4886   0020CC                     
  4887                           ; BSR set to: 1
  4888   0020CC  C1A8  F04B         	movff	powf@ix,??_powf
  4889   0020D0  C1A9  F04C         	movff	powf@ix+1,??_powf+1
  4890   0020D4  C1AA  F04D         	movff	powf@ix+2,??_powf+2
  4891   0020D8  C1AB  F04E         	movff	powf@ix+3,??_powf+3
  4892   0020DC  344E               	rlcf	(??_powf+3)^0,w,c
  4893   0020DE  324E               	rrcf	(??_powf+3)^0,f,c
  4894   0020E0  324D               	rrcf	(??_powf+2)^0,f,c
  4895   0020E2  324C               	rrcf	(??_powf+1)^0,f,c
  4896   0020E4  324B               	rrcf	??_powf^0,f,c
  4897   0020E6  0E00               	movlw	0
  4898   0020E8  144B               	andwf	??_powf^0,w,c
  4899   0020EA  6E4F               	movwf	(??_powf+4)^0,c
  4900   0020EC  0EF0               	movlw	240
  4901   0020EE  144C               	andwf	(??_powf+1)^0,w,c
  4902   0020F0  6E50               	movwf	(??_powf+5)^0,c
  4903   0020F2  0EFF               	movlw	255
  4904   0020F4  144D               	andwf	(??_powf+2)^0,w,c
  4905   0020F6  6E51               	movwf	(??_powf+6)^0,c
  4906   0020F8  0EFF               	movlw	255
  4907   0020FA  144E               	andwf	(??_powf+3)^0,w,c
  4908   0020FC  6E52               	movwf	(??_powf+7)^0,c
  4909   0020FE  0E00               	movlw	0
  4910   002100  104F               	iorwf	(??_powf+4)^0,w,c
  4911   002102  6F90               	movwf	powf@is& (0+255),b
  4912   002104  0E00               	movlw	0
  4913   002106  1050               	iorwf	(??_powf+5)^0,w,c
  4914   002108  6F91               	movwf	(powf@is+1)& (0+255),b
  4915   00210A  0E00               	movlw	0
  4916   00210C  1051               	iorwf	(??_powf+6)^0,w,c
  4917   00210E  6F92               	movwf	(powf@is+2)& (0+255),b
  4918   002110  0E20               	movlw	32
  4919   002112  1052               	iorwf	(??_powf+7)^0,w,c
  4920   002114  6F93               	movwf	(powf@is+3)& (0+255),b
  4921   002116                     
  4922                           ; BSR set to: 1
  4923   002116  C1A0  F04B         	movff	powf@k,??_powf
  4924   00211A  C1A1  F04C         	movff	powf@k+1,??_powf+1
  4925   00211E  C1A2  F04D         	movff	powf@k+2,??_powf+2
  4926   002122  C1A3  F04E         	movff	powf@k+3,??_powf+3
  4927   002126  0E15               	movlw	21
  4928   002128                     u3935:
  4929   002128  90D8               	bcf	status,0,c
  4930   00212A  364B               	rlcf	??_powf^0,f,c
  4931   00212C  364C               	rlcf	(??_powf+1)^0,f,c
  4932   00212E  364D               	rlcf	(??_powf+2)^0,f,c
  4933   002130  364E               	rlcf	(??_powf+3)^0,f,c
  4934   002132  2EE8               	decfsz	wreg,f,c
  4935   002134  EF94  F010         	goto	u3935
  4936   002138  5190               	movf	powf@is& (0+255),w,b
  4937   00213A  244B               	addwf	??_powf^0,w,c
  4938   00213C  6E4F               	movwf	(??_powf+4)^0,c
  4939   00213E  5191               	movf	(powf@is+1)& (0+255),w,b
  4940   002140  204C               	addwfc	(??_powf+1)^0,w,c
  4941   002142  6E50               	movwf	(??_powf+5)^0,c
  4942   002144  5192               	movf	(powf@is+2)& (0+255),w,b
  4943   002146  204D               	addwfc	(??_powf+2)^0,w,c
  4944   002148  6E51               	movwf	(??_powf+6)^0,c
  4945   00214A  5193               	movf	(powf@is+3)& (0+255),w,b
  4946   00214C  204E               	addwfc	(??_powf+3)^0,w,c
  4947   00214E  6E52               	movwf	(??_powf+7)^0,c
  4948   002150  0E00               	movlw	0
  4949   002152  244F               	addwf	(??_powf+4)^0,w,c
  4950   002154  6FB8               	movwf	powf@__xc8_float_word& (0+255),b
  4951   002156  0E00               	movlw	0
  4952   002158  2050               	addwfc	(??_powf+5)^0,w,c
  4953   00215A  6FB9               	movwf	(powf@__xc8_float_word+1)& (0+255),b
  4954   00215C  0E40               	movlw	64
  4955   00215E  2051               	addwfc	(??_powf+6)^0,w,c
  4956   002160  6FBA               	movwf	(powf@__xc8_float_word+2)& (0+255),b
  4957   002162  0E00               	movlw	0
  4958   002164  2052               	addwfc	(??_powf+7)^0,w,c
  4959   002166  6FBB               	movwf	(powf@__xc8_float_word+3)& (0+255),b
  4960   002168                     
  4961                           ; BSR set to: 1
  4962   002168  C1B8  F168         	movff	powf@__xc8_float_word,powf@t_h
  4963   00216C  C1B9  F169         	movff	powf@__xc8_float_word+1,powf@t_h+1
  4964   002170  C1BA  F16A         	movff	powf@__xc8_float_word+2,powf@t_h+2
  4965   002174  C1BB  F16B         	movff	powf@__xc8_float_word+3,powf@t_h+3
  4966   002178                     
  4967                           ; BSR set to: 1
  4968   002178  C1A0  F04B         	movff	powf@k,??_powf
  4969   00217C  C1A1  F04C         	movff	powf@k+1,??_powf+1
  4970   002180  90D8               	bcf	status,0,c
  4971   002182  364B               	rlcf	??_powf^0,f,c
  4972   002184  364C               	rlcf	(??_powf+1)^0,f,c
  4973   002186  90D8               	bcf	status,0,c
  4974   002188  364B               	rlcf	??_powf^0,f,c
  4975   00218A  364C               	rlcf	(??_powf+1)^0,f,c
  4976   00218C  0E69               	movlw	low _bp
  4977   00218E  244B               	addwf	??_powf^0,w,c
  4978   002190  6EF6               	movwf	tblptrl,c
  4979   002192  0E10               	movlw	high _bp
  4980   002194  204C               	addwfc	(??_powf+1)^0,w,c
  4981   002196  6EF7               	movwf	tblptrh,c
  4982   002198                     	if	0	;There are less than 3 active tblptr bytes
  4983   002198                     	endif
  4984   002198  0009               	tblrd		*+
  4985   00219A  CFF5 F02E          	movff	tablat,___flsub@a
  4986   00219E  0009               	tblrd		*+
  4987   0021A0  CFF5 F02F          	movff	tablat,___flsub@a+1
  4988   0021A4  0009               	tblrd		*+
  4989   0021A6  CFF5 F030          	movff	tablat,___flsub@a+2
  4990   0021AA  000A               	tblrd		*-
  4991   0021AC  CFF5 F031          	movff	tablat,___flsub@a+3
  4992   0021B0  C168  F02A         	movff	powf@t_h,___flsub@b
  4993   0021B4  C169  F02B         	movff	powf@t_h+1,___flsub@b+1
  4994   0021B8  C16A  F02C         	movff	powf@t_h+2,___flsub@b+2
  4995   0021BC  C16B  F02D         	movff	powf@t_h+3,___flsub@b+3
  4996   0021C0  EC14  F030         	call	___flsub	;wreg free
  4997   0021C4  C02A  F194         	movff	?___flsub,_powf$1354
  4998   0021C8  C02B  F195         	movff	?___flsub+1,_powf$1354+1
  4999   0021CC  C02C  F196         	movff	?___flsub+2,_powf$1354+2
  5000   0021D0  C02D  F197         	movff	?___flsub+3,_powf$1354+3
  5001   0021D4  C170  F02A         	movff	powf@ax,___flsub@b
  5002   0021D8  C171  F02B         	movff	powf@ax+1,___flsub@b+1
  5003   0021DC  C172  F02C         	movff	powf@ax+2,___flsub@b+2
  5004   0021E0  C173  F02D         	movff	powf@ax+3,___flsub@b+3
  5005   0021E4  C194  F02E         	movff	_powf$1354,___flsub@a
  5006   0021E8  C195  F02F         	movff	_powf$1354+1,___flsub@a+1
  5007   0021EC  C196  F030         	movff	_powf$1354+2,___flsub@a+2
  5008   0021F0  C197  F031         	movff	_powf$1354+3,___flsub@a+3
  5009   0021F4  EC14  F030         	call	___flsub	;wreg free
  5010   0021F8  C02A  F134         	movff	?___flsub,powf@t_l
  5011   0021FC  C02B  F135         	movff	?___flsub+1,powf@t_l+1
  5012   002200  C02C  F136         	movff	?___flsub+2,powf@t_l+2
  5013   002204  C02D  F137         	movff	?___flsub+3,powf@t_l+3
  5014   002208  C168  F015         	movff	powf@t_h,___flmul@a
  5015   00220C  C169  F016         	movff	powf@t_h+1,___flmul@a+1
  5016   002210  C16A  F017         	movff	powf@t_h+2,___flmul@a+2
  5017   002214  C16B  F018         	movff	powf@t_h+3,___flmul@a+3
  5018   002218  C16C  F011         	movff	powf@s_h,___flmul@b
  5019   00221C  C16D  F012         	movff	powf@s_h+1,___flmul@b+1
  5020   002220  C16E  F013         	movff	powf@s_h+2,___flmul@b+2
  5021   002224  C16F  F014         	movff	powf@s_h+3,___flmul@b+3
  5022   002228  EC83  F024         	call	___flmul	;wreg free
  5023   00222C  C011  F02E         	movff	?___flmul,___flsub@a
  5024   002230  C012  F02F         	movff	?___flmul+1,___flsub@a+1
  5025   002234  C013  F030         	movff	?___flmul+2,___flsub@a+2
  5026   002238  C014  F031         	movff	?___flmul+3,___flsub@a+3
  5027   00223C  C174  F02A         	movff	powf@u,___flsub@b
  5028   002240  C175  F02B         	movff	powf@u+1,___flsub@b+1
  5029   002244  C176  F02C         	movff	powf@u+2,___flsub@b+2
  5030   002248  C177  F02D         	movff	powf@u+3,___flsub@b+3
  5031   00224C  EC14  F030         	call	___flsub	;wreg free
  5032   002250  C02A  F194         	movff	?___flsub,_powf$1354
  5033   002254  C02B  F195         	movff	?___flsub+1,_powf$1354+1
  5034   002258  C02C  F196         	movff	?___flsub+2,_powf$1354+2
  5035   00225C  C02D  F197         	movff	?___flsub+3,_powf$1354+3
  5036   002260  C134  F015         	movff	powf@t_l,___flmul@a
  5037   002264  C135  F016         	movff	powf@t_l+1,___flmul@a+1
  5038   002268  C136  F017         	movff	powf@t_l+2,___flmul@a+2
  5039   00226C  C137  F018         	movff	powf@t_l+3,___flmul@a+3
  5040   002270  C16C  F011         	movff	powf@s_h,___flmul@b
  5041   002274  C16D  F012         	movff	powf@s_h+1,___flmul@b+1
  5042   002278  C16E  F013         	movff	powf@s_h+2,___flmul@b+2
  5043   00227C  C16F  F014         	movff	powf@s_h+3,___flmul@b+3
  5044   002280  EC83  F024         	call	___flmul	;wreg free
  5045   002284  C011  F02E         	movff	?___flmul,___flsub@a
  5046   002288  C012  F02F         	movff	?___flmul+1,___flsub@a+1
  5047   00228C  C013  F030         	movff	?___flmul+2,___flsub@a+2
  5048   002290  C014  F031         	movff	?___flmul+3,___flsub@a+3
  5049   002294  C194  F02A         	movff	_powf$1354,___flsub@b
  5050   002298  C195  F02B         	movff	_powf$1354+1,___flsub@b+1
  5051   00229C  C196  F02C         	movff	_powf$1354+2,___flsub@b+2
  5052   0022A0  C197  F02D         	movff	_powf$1354+3,___flsub@b+3
  5053   0022A4  EC14  F030         	call	___flsub	;wreg free
  5054   0022A8  C02A  F154         	movff	?___flsub,_powf$1352
  5055   0022AC  C02B  F155         	movff	?___flsub+1,_powf$1352+1
  5056   0022B0  C02C  F156         	movff	?___flsub+2,_powf$1352+2
  5057   0022B4  C02D  F157         	movff	?___flsub+3,_powf$1352+3
  5058   0022B8  C154  F011         	movff	_powf$1352,___flmul@b
  5059   0022BC  C155  F012         	movff	_powf$1352+1,___flmul@b+1
  5060   0022C0  C156  F013         	movff	_powf$1352+2,___flmul@b+2
  5061   0022C4  C157  F014         	movff	_powf$1352+3,___flmul@b+3
  5062   0022C8  C178  F015         	movff	powf@v,___flmul@a
  5063   0022CC  C179  F016         	movff	powf@v+1,___flmul@a+1
  5064   0022D0  C17A  F017         	movff	powf@v+2,___flmul@a+2
  5065   0022D4  C17B  F018         	movff	powf@v+3,___flmul@a+3
  5066   0022D8  EC83  F024         	call	___flmul	;wreg free
  5067   0022DC  C011  F130         	movff	?___flmul,powf@s_l
  5068   0022E0  C012  F131         	movff	?___flmul+1,powf@s_l+1
  5069   0022E4  C013  F132         	movff	?___flmul+2,powf@s_l+2
  5070   0022E8  C014  F133         	movff	?___flmul+3,powf@s_l+3
  5071   0022EC  C15C  F011         	movff	powf@s,___flmul@b
  5072   0022F0  C15D  F012         	movff	powf@s+1,___flmul@b+1
  5073   0022F4  C15E  F013         	movff	powf@s+2,___flmul@b+2
  5074   0022F8  C15F  F014         	movff	powf@s+3,___flmul@b+3
  5075   0022FC  C15C  F015         	movff	powf@s,___flmul@a
  5076   002300  C15D  F016         	movff	powf@s+1,___flmul@a+1
  5077   002304  C15E  F017         	movff	powf@s+2,___flmul@a+2
  5078   002308  C15F  F018         	movff	powf@s+3,___flmul@a+3
  5079   00230C  EC83  F024         	call	___flmul	;wreg free
  5080   002310  C011  F18C         	movff	?___flmul,powf@s2
  5081   002314  C012  F18D         	movff	?___flmul+1,powf@s2+1
  5082   002318  C013  F18E         	movff	?___flmul+2,powf@s2+2
  5083   00231C  C014  F18F         	movff	?___flmul+3,powf@s2+3
  5084   002320  0E55               	movlw	85
  5085   002322  6E05               	movwf	___fladd@a^0,c
  5086   002324  0E32               	movlw	50
  5087   002326  6E06               	movwf	(___fladd@a+1)^0,c
  5088   002328  0E6C               	movlw	108
  5089   00232A  6E07               	movwf	(___fladd@a+2)^0,c
  5090   00232C  0E3E               	movlw	62
  5091   00232E  6E08               	movwf	(___fladd@a+3)^0,c
  5092   002330  0E42               	movlw	66
  5093   002332  6E15               	movwf	___flmul@a^0,c
  5094   002334  0EF1               	movlw	241
  5095   002336  6E16               	movwf	(___flmul@a+1)^0,c
  5096   002338  0E53               	movlw	83
  5097   00233A  6E17               	movwf	(___flmul@a+2)^0,c
  5098   00233C  0E3E               	movlw	62
  5099   00233E  6E18               	movwf	(___flmul@a+3)^0,c
  5100   002340  C18C  F011         	movff	powf@s2,___flmul@b
  5101   002344  C18D  F012         	movff	powf@s2+1,___flmul@b+1
  5102   002348  C18E  F013         	movff	powf@s2+2,___flmul@b+2
  5103   00234C  C18F  F014         	movff	powf@s2+3,___flmul@b+3
  5104   002350  EC83  F024         	call	___flmul	;wreg free
  5105   002354  C011  F001         	movff	?___flmul,___fladd@b
  5106   002358  C012  F002         	movff	?___flmul+1,___fladd@b+1
  5107   00235C  C013  F003         	movff	?___flmul+2,___fladd@b+2
  5108   002360  C014  F004         	movff	?___flmul+3,___fladd@b+3
  5109   002364  EC23  F022         	call	___fladd	;wreg free
  5110   002368  C001  F1A4         	movff	?___fladd,_powf$1351
  5111   00236C  C002  F1A5         	movff	?___fladd+1,_powf$1351+1
  5112   002370  C003  F1A6         	movff	?___fladd+2,_powf$1351+2
  5113   002374  C004  F1A7         	movff	?___fladd+3,_powf$1351+3
  5114   002378  0E05               	movlw	5
  5115   00237A  6E05               	movwf	___fladd@a^0,c
  5116   00237C  0EA3               	movlw	163
  5117   00237E  6E06               	movwf	(___fladd@a+1)^0,c
  5118   002380  0E8B               	movlw	139
  5119   002382  6E07               	movwf	(___fladd@a+2)^0,c
  5120   002384  0E3E               	movlw	62
  5121   002386  6E08               	movwf	(___fladd@a+3)^0,c
  5122   002388  C18C  F015         	movff	powf@s2,___flmul@a
  5123   00238C  C18D  F016         	movff	powf@s2+1,___flmul@a+1
  5124   002390  C18E  F017         	movff	powf@s2+2,___flmul@a+2
  5125   002394  C18F  F018         	movff	powf@s2+3,___flmul@a+3
  5126   002398  C1A4  F011         	movff	_powf$1351,___flmul@b
  5127   00239C  C1A5  F012         	movff	_powf$1351+1,___flmul@b+1
  5128   0023A0  C1A6  F013         	movff	_powf$1351+2,___flmul@b+2
  5129   0023A4  C1A7  F014         	movff	_powf$1351+3,___flmul@b+3
  5130   0023A8  EC83  F024         	call	___flmul	;wreg free
  5131   0023AC  C011  F001         	movff	?___flmul,___fladd@b
  5132   0023B0  C012  F002         	movff	?___flmul+1,___fladd@b+1
  5133   0023B4  C013  F003         	movff	?___flmul+2,___fladd@b+2
  5134   0023B8  C014  F004         	movff	?___flmul+3,___fladd@b+3
  5135   0023BC  EC23  F022         	call	___fladd	;wreg free
  5136   0023C0  C001  F154         	movff	?___fladd,_powf$1352
  5137   0023C4  C002  F155         	movff	?___fladd+1,_powf$1352+1
  5138   0023C8  C003  F156         	movff	?___fladd+2,_powf$1352+2
  5139   0023CC  C004  F157         	movff	?___fladd+3,_powf$1352+3
  5140   0023D0  0EAB               	movlw	171
  5141   0023D2  6E05               	movwf	___fladd@a^0,c
  5142   0023D4  0EAA               	movlw	170
  5143   0023D6  6E06               	movwf	(___fladd@a+1)^0,c
  5144   0023D8  0EAA               	movlw	170
  5145   0023DA  6E07               	movwf	(___fladd@a+2)^0,c
  5146   0023DC  0E3E               	movlw	62
  5147   0023DE  6E08               	movwf	(___fladd@a+3)^0,c
  5148   0023E0  C18C  F015         	movff	powf@s2,___flmul@a
  5149   0023E4  C18D  F016         	movff	powf@s2+1,___flmul@a+1
  5150   0023E8  C18E  F017         	movff	powf@s2+2,___flmul@a+2
  5151   0023EC  C18F  F018         	movff	powf@s2+3,___flmul@a+3
  5152   0023F0  C154  F011         	movff	_powf$1352,___flmul@b
  5153   0023F4  C155  F012         	movff	_powf$1352+1,___flmul@b+1
  5154   0023F8  C156  F013         	movff	_powf$1352+2,___flmul@b+2
  5155   0023FC  C157  F014         	movff	_powf$1352+3,___flmul@b+3
  5156   002400  EC83  F024         	call	___flmul	;wreg free
  5157   002404  C011  F001         	movff	?___flmul,___fladd@b
  5158   002408  C012  F002         	movff	?___flmul+1,___fladd@b+1
  5159   00240C  C013  F003         	movff	?___flmul+2,___fladd@b+2
  5160   002410  C014  F004         	movff	?___flmul+3,___fladd@b+3
  5161   002414  EC23  F022         	call	___fladd	;wreg free
  5162   002418  C001  F148         	movff	?___fladd,_powf$1353
  5163   00241C  C002  F149         	movff	?___fladd+1,_powf$1353+1
  5164   002420  C003  F14A         	movff	?___fladd+2,_powf$1353+2
  5165   002424  C004  F14B         	movff	?___fladd+3,_powf$1353+3
  5166   002428  0EB7               	movlw	183
  5167   00242A  6E05               	movwf	___fladd@a^0,c
  5168   00242C  0E6D               	movlw	109
  5169   00242E  6E06               	movwf	(___fladd@a+1)^0,c
  5170   002430  0EDB               	movlw	219
  5171   002432  6E07               	movwf	(___fladd@a+2)^0,c
  5172   002434  0E3E               	movlw	62
  5173   002436  6E08               	movwf	(___fladd@a+3)^0,c
  5174   002438  C18C  F015         	movff	powf@s2,___flmul@a
  5175   00243C  C18D  F016         	movff	powf@s2+1,___flmul@a+1
  5176   002440  C18E  F017         	movff	powf@s2+2,___flmul@a+2
  5177   002444  C18F  F018         	movff	powf@s2+3,___flmul@a+3
  5178   002448  C148  F011         	movff	_powf$1353,___flmul@b
  5179   00244C  C149  F012         	movff	_powf$1353+1,___flmul@b+1
  5180   002450  C14A  F013         	movff	_powf$1353+2,___flmul@b+2
  5181   002454  C14B  F014         	movff	_powf$1353+3,___flmul@b+3
  5182   002458  EC83  F024         	call	___flmul	;wreg free
  5183   00245C  C011  F001         	movff	?___flmul,___fladd@b
  5184   002460  C012  F002         	movff	?___flmul+1,___fladd@b+1
  5185   002464  C013  F003         	movff	?___flmul+2,___fladd@b+2
  5186   002468  C014  F004         	movff	?___flmul+3,___fladd@b+3
  5187   00246C  EC23  F022         	call	___fladd	;wreg free
  5188   002470  C001  F138         	movff	?___fladd,_powf$1355
  5189   002474  C002  F139         	movff	?___fladd+1,_powf$1355+1
  5190   002478  C003  F13A         	movff	?___fladd+2,_powf$1355+2
  5191   00247C  C004  F13B         	movff	?___fladd+3,_powf$1355+3
  5192   002480  0E9A               	movlw	154
  5193   002482  6E05               	movwf	___fladd@a^0,c
  5194   002484  0E99               	movlw	153
  5195   002486  6E06               	movwf	(___fladd@a+1)^0,c
  5196   002488  0E19               	movlw	25
  5197   00248A  6E07               	movwf	(___fladd@a+2)^0,c
  5198   00248C  0E3F               	movlw	63
  5199   00248E  6E08               	movwf	(___fladd@a+3)^0,c
  5200   002490  C18C  F015         	movff	powf@s2,___flmul@a
  5201   002494  C18D  F016         	movff	powf@s2+1,___flmul@a+1
  5202   002498  C18E  F017         	movff	powf@s2+2,___flmul@a+2
  5203   00249C  C18F  F018         	movff	powf@s2+3,___flmul@a+3
  5204   0024A0  C138  F011         	movff	_powf$1355,___flmul@b
  5205   0024A4  C139  F012         	movff	_powf$1355+1,___flmul@b+1
  5206   0024A8  C13A  F013         	movff	_powf$1355+2,___flmul@b+2
  5207   0024AC  C13B  F014         	movff	_powf$1355+3,___flmul@b+3
  5208   0024B0  EC83  F024         	call	___flmul	;wreg free
  5209   0024B4  C011  F001         	movff	?___flmul,___fladd@b
  5210   0024B8  C012  F002         	movff	?___flmul+1,___fladd@b+1
  5211   0024BC  C013  F003         	movff	?___flmul+2,___fladd@b+2
  5212   0024C0  C014  F004         	movff	?___flmul+3,___fladd@b+3
  5213   0024C4  EC23  F022         	call	___fladd	;wreg free
  5214   0024C8  C001  F100         	movff	?___fladd,_powf$1356
  5215   0024CC  C002  F101         	movff	?___fladd+1,_powf$1356+1
  5216   0024D0  C003  F102         	movff	?___fladd+2,_powf$1356+2
  5217   0024D4  C004  F103         	movff	?___fladd+3,_powf$1356+3
  5218   0024D8  C18C  F015         	movff	powf@s2,___flmul@a
  5219   0024DC  C18D  F016         	movff	powf@s2+1,___flmul@a+1
  5220   0024E0  C18E  F017         	movff	powf@s2+2,___flmul@a+2
  5221   0024E4  C18F  F018         	movff	powf@s2+3,___flmul@a+3
  5222   0024E8  C18C  F011         	movff	powf@s2,___flmul@b
  5223   0024EC  C18D  F012         	movff	powf@s2+1,___flmul@b+1
  5224   0024F0  C18E  F013         	movff	powf@s2+2,___flmul@b+2
  5225   0024F4  C18F  F014         	movff	powf@s2+3,___flmul@b+3
  5226   0024F8  EC83  F024         	call	___flmul	;wreg free
  5227   0024FC  C011  F104         	movff	?___flmul,_powf$1357
  5228   002500  C012  F105         	movff	?___flmul+1,_powf$1357+1
  5229   002504  C013  F106         	movff	?___flmul+2,_powf$1357+2
  5230   002508  C014  F107         	movff	?___flmul+3,_powf$1357+3
  5231   00250C  C100  F011         	movff	_powf$1356,___flmul@b
  5232   002510  C101  F012         	movff	_powf$1356+1,___flmul@b+1
  5233   002514  C102  F013         	movff	_powf$1356+2,___flmul@b+2
  5234   002518  C103  F014         	movff	_powf$1356+3,___flmul@b+3
  5235   00251C  C104  F015         	movff	_powf$1357,___flmul@a
  5236   002520  C105  F016         	movff	_powf$1357+1,___flmul@a+1
  5237   002524  C106  F017         	movff	_powf$1357+2,___flmul@a+2
  5238   002528  C107  F018         	movff	_powf$1357+3,___flmul@a+3
  5239   00252C  EC83  F024         	call	___flmul	;wreg free
  5240   002530  C011  F14C         	movff	?___flmul,powf@r
  5241   002534  C012  F14D         	movff	?___flmul+1,powf@r+1
  5242   002538  C013  F14E         	movff	?___flmul+2,powf@r+2
  5243   00253C  C014  F14F         	movff	?___flmul+3,powf@r+3
  5244   002540  C130  F015         	movff	powf@s_l,___flmul@a
  5245   002544  C131  F016         	movff	powf@s_l+1,___flmul@a+1
  5246   002548  C132  F017         	movff	powf@s_l+2,___flmul@a+2
  5247   00254C  C133  F018         	movff	powf@s_l+3,___flmul@a+3
  5248   002550  C15C  F005         	movff	powf@s,___fladd@a
  5249   002554  C15D  F006         	movff	powf@s+1,___fladd@a+1
  5250   002558  C15E  F007         	movff	powf@s+2,___fladd@a+2
  5251   00255C  C15F  F008         	movff	powf@s+3,___fladd@a+3
  5252   002560  C16C  F001         	movff	powf@s_h,___fladd@b
  5253   002564  C16D  F002         	movff	powf@s_h+1,___fladd@b+1
  5254   002568  C16E  F003         	movff	powf@s_h+2,___fladd@b+2
  5255   00256C  C16F  F004         	movff	powf@s_h+3,___fladd@b+3
  5256   002570  EC23  F022         	call	___fladd	;wreg free
  5257   002574  C001  F011         	movff	?___fladd,___flmul@b
  5258   002578  C002  F012         	movff	?___fladd+1,___flmul@b+1
  5259   00257C  C003  F013         	movff	?___fladd+2,___flmul@b+2
  5260   002580  C004  F014         	movff	?___fladd+3,___flmul@b+3
  5261   002584  EC83  F024         	call	___flmul	;wreg free
  5262   002588  C011  F158         	movff	?___flmul,_powf$1358
  5263   00258C  C012  F159         	movff	?___flmul+1,_powf$1358+1
  5264   002590  C013  F15A         	movff	?___flmul+2,_powf$1358+2
  5265   002594  C014  F15B         	movff	?___flmul+3,_powf$1358+3
  5266   002598  C14C  F001         	movff	powf@r,___fladd@b
  5267   00259C  C14D  F002         	movff	powf@r+1,___fladd@b+1
  5268   0025A0  C14E  F003         	movff	powf@r+2,___fladd@b+2
  5269   0025A4  C14F  F004         	movff	powf@r+3,___fladd@b+3
  5270   0025A8  C158  F005         	movff	_powf$1358,___fladd@a
  5271   0025AC  C159  F006         	movff	_powf$1358+1,___fladd@a+1
  5272   0025B0  C15A  F007         	movff	_powf$1358+2,___fladd@a+2
  5273   0025B4  C15B  F008         	movff	_powf$1358+3,___fladd@a+3
  5274   0025B8  EC23  F022         	call	___fladd	;wreg free
  5275   0025BC  C001  F14C         	movff	?___fladd,powf@r
  5276   0025C0  C002  F14D         	movff	?___fladd+1,powf@r+1
  5277   0025C4  C003  F14E         	movff	?___fladd+2,powf@r+2
  5278   0025C8  C004  F14F         	movff	?___fladd+3,powf@r+3
  5279   0025CC  C16C  F011         	movff	powf@s_h,___flmul@b
  5280   0025D0  C16D  F012         	movff	powf@s_h+1,___flmul@b+1
  5281   0025D4  C16E  F013         	movff	powf@s_h+2,___flmul@b+2
  5282   0025D8  C16F  F014         	movff	powf@s_h+3,___flmul@b+3
  5283   0025DC  C16C  F015         	movff	powf@s_h,___flmul@a
  5284   0025E0  C16D  F016         	movff	powf@s_h+1,___flmul@a+1
  5285   0025E4  C16E  F017         	movff	powf@s_h+2,___flmul@a+2
  5286   0025E8  C16F  F018         	movff	powf@s_h+3,___flmul@a+3
  5287   0025EC  EC83  F024         	call	___flmul	;wreg free
  5288   0025F0  C011  F18C         	movff	?___flmul,powf@s2
  5289   0025F4  C012  F18D         	movff	?___flmul+1,powf@s2+1
  5290   0025F8  C013  F18E         	movff	?___flmul+2,powf@s2+2
  5291   0025FC  C014  F18F         	movff	?___flmul+3,powf@s2+3
  5292   002600  0E00               	movlw	0
  5293   002602  6E05               	movwf	___fladd@a^0,c
  5294   002604  0E00               	movlw	0
  5295   002606  6E06               	movwf	(___fladd@a+1)^0,c
  5296   002608  0E40               	movlw	64
  5297   00260A  6E07               	movwf	(___fladd@a+2)^0,c
  5298   00260C  0E40               	movlw	64
  5299   00260E  6E08               	movwf	(___fladd@a+3)^0,c
  5300   002610  C18C  F001         	movff	powf@s2,___fladd@b
  5301   002614  C18D  F002         	movff	powf@s2+1,___fladd@b+1
  5302   002618  C18E  F003         	movff	powf@s2+2,___fladd@b+2
  5303   00261C  C18F  F004         	movff	powf@s2+3,___fladd@b+3
  5304   002620  EC23  F022         	call	___fladd	;wreg free
  5305   002624  C001  F158         	movff	?___fladd,_powf$1358
  5306   002628  C002  F159         	movff	?___fladd+1,_powf$1358+1
  5307   00262C  C003  F15A         	movff	?___fladd+2,_powf$1358+2
  5308   002630  C004  F15B         	movff	?___fladd+3,_powf$1358+3
  5309   002634  C158  F001         	movff	_powf$1358,___fladd@b
  5310   002638  C159  F002         	movff	_powf$1358+1,___fladd@b+1
  5311   00263C  C15A  F003         	movff	_powf$1358+2,___fladd@b+2
  5312   002640  C15B  F004         	movff	_powf$1358+3,___fladd@b+3
  5313   002644  C14C  F005         	movff	powf@r,___fladd@a
  5314   002648  C14D  F006         	movff	powf@r+1,___fladd@a+1
  5315   00264C  C14E  F007         	movff	powf@r+2,___fladd@a+2
  5316   002650  C14F  F008         	movff	powf@r+3,___fladd@a+3
  5317   002654  EC23  F022         	call	___fladd	;wreg free
  5318   002658  C001  F168         	movff	?___fladd,powf@t_h
  5319   00265C  C002  F169         	movff	?___fladd+1,powf@t_h+1
  5320   002660  C003  F16A         	movff	?___fladd+2,powf@t_h+2
  5321   002664  C004  F16B         	movff	?___fladd+3,powf@t_h+3
  5322   002668  C168  F1B8         	movff	powf@t_h,powf@__xc8_float_word
  5323   00266C  C169  F1B9         	movff	powf@t_h+1,powf@__xc8_float_word+1
  5324   002670  C16A  F1BA         	movff	powf@t_h+2,powf@__xc8_float_word+2
  5325   002674  C16B  F1BB         	movff	powf@t_h+3,powf@__xc8_float_word+3
  5326   002678  C1B8  F190         	movff	powf@__xc8_float_word,powf@is
  5327   00267C  C1B9  F191         	movff	powf@__xc8_float_word+1,powf@is+1
  5328   002680  C1BA  F192         	movff	powf@__xc8_float_word+2,powf@is+2
  5329   002684  C1BB  F193         	movff	powf@__xc8_float_word+3,powf@is+3
  5330   002688  0E00               	movlw	0
  5331   00268A  0101               	movlb	1	; () banked
  5332   00268C  1590               	andwf	powf@is& (0+255),w,b
  5333   00268E  6FB8               	movwf	powf@__xc8_float_word& (0+255),b
  5334   002690  0EF0               	movlw	240
  5335   002692  1591               	andwf	(powf@is+1)& (0+255),w,b
  5336   002694  6FB9               	movwf	(powf@__xc8_float_word+1)& (0+255),b
  5337   002696  0EFF               	movlw	255
  5338   002698  1592               	andwf	(powf@is+2)& (0+255),w,b
  5339   00269A  6FBA               	movwf	(powf@__xc8_float_word+2)& (0+255),b
  5340   00269C  0EFF               	movlw	255
  5341   00269E  1593               	andwf	(powf@is+3)& (0+255),w,b
  5342   0026A0  6FBB               	movwf	(powf@__xc8_float_word+3)& (0+255),b
  5343   0026A2                     
  5344                           ; BSR set to: 1
  5345   0026A2  C1B8  F168         	movff	powf@__xc8_float_word,powf@t_h
  5346   0026A6  C1B9  F169         	movff	powf@__xc8_float_word+1,powf@t_h+1
  5347   0026AA  C1BA  F16A         	movff	powf@__xc8_float_word+2,powf@t_h+2
  5348   0026AE  C1BB  F16B         	movff	powf@__xc8_float_word+3,powf@t_h+3
  5349   0026B2                     
  5350                           ; BSR set to: 1
  5351   0026B2  0E00               	movlw	0
  5352   0026B4  6E05               	movwf	___fladd@a^0,c
  5353   0026B6  0E00               	movlw	0
  5354   0026B8  6E06               	movwf	(___fladd@a+1)^0,c
  5355   0026BA  0E40               	movlw	64
  5356   0026BC  6E07               	movwf	(___fladd@a+2)^0,c
  5357   0026BE  0EC0               	movlw	192
  5358   0026C0  6E08               	movwf	(___fladd@a+3)^0,c
  5359   0026C2  C168  F001         	movff	powf@t_h,___fladd@b
  5360   0026C6  C169  F002         	movff	powf@t_h+1,___fladd@b+1
  5361   0026CA  C16A  F003         	movff	powf@t_h+2,___fladd@b+2
  5362   0026CE  C16B  F004         	movff	powf@t_h+3,___fladd@b+3
  5363   0026D2  EC23  F022         	call	___fladd	;wreg free
  5364   0026D6  C001  F13C         	movff	?___fladd,_powf$1359
  5365   0026DA  C002  F13D         	movff	?___fladd+1,_powf$1359+1
  5366   0026DE  C003  F13E         	movff	?___fladd+2,_powf$1359+2
  5367   0026E2  C004  F13F         	movff	?___fladd+3,_powf$1359+3
  5368   0026E6  C18C  F02E         	movff	powf@s2,___flsub@a
  5369   0026EA  C18D  F02F         	movff	powf@s2+1,___flsub@a+1
  5370   0026EE  C18E  F030         	movff	powf@s2+2,___flsub@a+2
  5371   0026F2  C18F  F031         	movff	powf@s2+3,___flsub@a+3
  5372   0026F6  C13C  F02A         	movff	_powf$1359,___flsub@b
  5373   0026FA  C13D  F02B         	movff	_powf$1359+1,___flsub@b+1
  5374   0026FE  C13E  F02C         	movff	_powf$1359+2,___flsub@b+2
  5375   002702  C13F  F02D         	movff	_powf$1359+3,___flsub@b+3
  5376   002706  EC14  F030         	call	___flsub	;wreg free
  5377   00270A  C02A  F140         	movff	?___flsub,_powf$1360
  5378   00270E  C02B  F141         	movff	?___flsub+1,_powf$1360+1
  5379   002712  C02C  F142         	movff	?___flsub+2,_powf$1360+2
  5380   002716  C02D  F143         	movff	?___flsub+3,_powf$1360+3
  5381   00271A  C14C  F02A         	movff	powf@r,___flsub@b
  5382   00271E  C14D  F02B         	movff	powf@r+1,___flsub@b+1
  5383   002722  C14E  F02C         	movff	powf@r+2,___flsub@b+2
  5384   002726  C14F  F02D         	movff	powf@r+3,___flsub@b+3
  5385   00272A  C140  F02E         	movff	_powf$1360,___flsub@a
  5386   00272E  C141  F02F         	movff	_powf$1360+1,___flsub@a+1
  5387   002732  C142  F030         	movff	_powf$1360+2,___flsub@a+2
  5388   002736  C143  F031         	movff	_powf$1360+3,___flsub@a+3
  5389   00273A  EC14  F030         	call	___flsub	;wreg free
  5390   00273E  C02A  F134         	movff	?___flsub,powf@t_l
  5391   002742  C02B  F135         	movff	?___flsub+1,powf@t_l+1
  5392   002746  C02C  F136         	movff	?___flsub+2,powf@t_l+2
  5393   00274A  C02D  F137         	movff	?___flsub+3,powf@t_l+3
  5394   00274E  C16C  F011         	movff	powf@s_h,___flmul@b
  5395   002752  C16D  F012         	movff	powf@s_h+1,___flmul@b+1
  5396   002756  C16E  F013         	movff	powf@s_h+2,___flmul@b+2
  5397   00275A  C16F  F014         	movff	powf@s_h+3,___flmul@b+3
  5398   00275E  C168  F015         	movff	powf@t_h,___flmul@a
  5399   002762  C169  F016         	movff	powf@t_h+1,___flmul@a+1
  5400   002766  C16A  F017         	movff	powf@t_h+2,___flmul@a+2
  5401   00276A  C16B  F018         	movff	powf@t_h+3,___flmul@a+3
  5402   00276E  EC83  F024         	call	___flmul	;wreg free
  5403   002772  C011  F174         	movff	?___flmul,powf@u
  5404   002776  C012  F175         	movff	?___flmul+1,powf@u+1
  5405   00277A  C013  F176         	movff	?___flmul+2,powf@u+2
  5406   00277E  C014  F177         	movff	?___flmul+3,powf@u+3
  5407   002782  C168  F015         	movff	powf@t_h,___flmul@a
  5408   002786  C169  F016         	movff	powf@t_h+1,___flmul@a+1
  5409   00278A  C16A  F017         	movff	powf@t_h+2,___flmul@a+2
  5410   00278E  C16B  F018         	movff	powf@t_h+3,___flmul@a+3
  5411   002792  C130  F011         	movff	powf@s_l,___flmul@b
  5412   002796  C131  F012         	movff	powf@s_l+1,___flmul@b+1
  5413   00279A  C132  F013         	movff	powf@s_l+2,___flmul@b+2
  5414   00279E  C133  F014         	movff	powf@s_l+3,___flmul@b+3
  5415   0027A2  EC83  F024         	call	___flmul	;wreg free
  5416   0027A6  C011  F001         	movff	?___flmul,___fladd@b
  5417   0027AA  C012  F002         	movff	?___flmul+1,___fladd@b+1
  5418   0027AE  C013  F003         	movff	?___flmul+2,___fladd@b+2
  5419   0027B2  C014  F004         	movff	?___flmul+3,___fladd@b+3
  5420   0027B6  C15C  F015         	movff	powf@s,___flmul@a
  5421   0027BA  C15D  F016         	movff	powf@s+1,___flmul@a+1
  5422   0027BE  C15E  F017         	movff	powf@s+2,___flmul@a+2
  5423   0027C2  C15F  F018         	movff	powf@s+3,___flmul@a+3
  5424   0027C6  C134  F011         	movff	powf@t_l,___flmul@b
  5425   0027CA  C135  F012         	movff	powf@t_l+1,___flmul@b+1
  5426   0027CE  C136  F013         	movff	powf@t_l+2,___flmul@b+2
  5427   0027D2  C137  F014         	movff	powf@t_l+3,___flmul@b+3
  5428   0027D6  EC83  F024         	call	___flmul	;wreg free
  5429   0027DA  C011  F005         	movff	?___flmul,___fladd@a
  5430   0027DE  C012  F006         	movff	?___flmul+1,___fladd@a+1
  5431   0027E2  C013  F007         	movff	?___flmul+2,___fladd@a+2
  5432   0027E6  C014  F008         	movff	?___flmul+3,___fladd@a+3
  5433   0027EA  EC23  F022         	call	___fladd	;wreg free
  5434   0027EE  C001  F178         	movff	?___fladd,powf@v
  5435   0027F2  C002  F179         	movff	?___fladd+1,powf@v+1
  5436   0027F6  C003  F17A         	movff	?___fladd+2,powf@v+2
  5437   0027FA  C004  F17B         	movff	?___fladd+3,powf@v+3
  5438   0027FE  C174  F001         	movff	powf@u,___fladd@b
  5439   002802  C175  F002         	movff	powf@u+1,___fladd@b+1
  5440   002806  C176  F003         	movff	powf@u+2,___fladd@b+2
  5441   00280A  C177  F004         	movff	powf@u+3,___fladd@b+3
  5442   00280E  C178  F005         	movff	powf@v,___fladd@a
  5443   002812  C179  F006         	movff	powf@v+1,___fladd@a+1
  5444   002816  C17A  F007         	movff	powf@v+2,___fladd@a+2
  5445   00281A  C17B  F008         	movff	powf@v+3,___fladd@a+3
  5446   00281E  EC23  F022         	call	___fladd	;wreg free
  5447   002822  C001  F19C         	movff	?___fladd,powf@p_h
  5448   002826  C002  F19D         	movff	?___fladd+1,powf@p_h+1
  5449   00282A  C003  F19E         	movff	?___fladd+2,powf@p_h+2
  5450   00282E  C004  F19F         	movff	?___fladd+3,powf@p_h+3
  5451   002832  C19C  F1B8         	movff	powf@p_h,powf@__xc8_float_word
  5452   002836  C19D  F1B9         	movff	powf@p_h+1,powf@__xc8_float_word+1
  5453   00283A  C19E  F1BA         	movff	powf@p_h+2,powf@__xc8_float_word+2
  5454   00283E  C19F  F1BB         	movff	powf@p_h+3,powf@__xc8_float_word+3
  5455   002842  C1B8  F190         	movff	powf@__xc8_float_word,powf@is
  5456   002846  C1B9  F191         	movff	powf@__xc8_float_word+1,powf@is+1
  5457   00284A  C1BA  F192         	movff	powf@__xc8_float_word+2,powf@is+2
  5458   00284E  C1BB  F193         	movff	powf@__xc8_float_word+3,powf@is+3
  5459   002852  0E00               	movlw	0
  5460   002854  0101               	movlb	1	; () banked
  5461   002856  1590               	andwf	powf@is& (0+255),w,b
  5462   002858  6FB8               	movwf	powf@__xc8_float_word& (0+255),b
  5463   00285A  0EF0               	movlw	240
  5464   00285C  1591               	andwf	(powf@is+1)& (0+255),w,b
  5465   00285E  6FB9               	movwf	(powf@__xc8_float_word+1)& (0+255),b
  5466   002860  0EFF               	movlw	255
  5467   002862  1592               	andwf	(powf@is+2)& (0+255),w,b
  5468   002864  6FBA               	movwf	(powf@__xc8_float_word+2)& (0+255),b
  5469   002866  0EFF               	movlw	255
  5470   002868  1593               	andwf	(powf@is+3)& (0+255),w,b
  5471   00286A  6FBB               	movwf	(powf@__xc8_float_word+3)& (0+255),b
  5472   00286C                     
  5473                           ; BSR set to: 1
  5474   00286C  C1B8  F19C         	movff	powf@__xc8_float_word,powf@p_h
  5475   002870  C1B9  F19D         	movff	powf@__xc8_float_word+1,powf@p_h+1
  5476   002874  C1BA  F19E         	movff	powf@__xc8_float_word+2,powf@p_h+2
  5477   002878  C1BB  F19F         	movff	powf@__xc8_float_word+3,powf@p_h+3
  5478   00287C                     
  5479                           ; BSR set to: 1
  5480   00287C  C174  F02E         	movff	powf@u,___flsub@a
  5481   002880  C175  F02F         	movff	powf@u+1,___flsub@a+1
  5482   002884  C176  F030         	movff	powf@u+2,___flsub@a+2
  5483   002888  C177  F031         	movff	powf@u+3,___flsub@a+3
  5484   00288C  C19C  F02A         	movff	powf@p_h,___flsub@b
  5485   002890  C19D  F02B         	movff	powf@p_h+1,___flsub@b+1
  5486   002894  C19E  F02C         	movff	powf@p_h+2,___flsub@b+2
  5487   002898  C19F  F02D         	movff	powf@p_h+3,___flsub@b+3
  5488   00289C  EC14  F030         	call	___flsub	;wreg free
  5489   0028A0  C02A  F194         	movff	?___flsub,_powf$1354
  5490   0028A4  C02B  F195         	movff	?___flsub+1,_powf$1354+1
  5491   0028A8  C02C  F196         	movff	?___flsub+2,_powf$1354+2
  5492   0028AC  C02D  F197         	movff	?___flsub+3,_powf$1354+3
  5493   0028B0  C178  F02A         	movff	powf@v,___flsub@b
  5494   0028B4  C179  F02B         	movff	powf@v+1,___flsub@b+1
  5495   0028B8  C17A  F02C         	movff	powf@v+2,___flsub@b+2
  5496   0028BC  C17B  F02D         	movff	powf@v+3,___flsub@b+3
  5497   0028C0  C194  F02E         	movff	_powf$1354,___flsub@a
  5498   0028C4  C195  F02F         	movff	_powf$1354+1,___flsub@a+1
  5499   0028C8  C196  F030         	movff	_powf$1354+2,___flsub@a+2
  5500   0028CC  C197  F031         	movff	_powf$1354+3,___flsub@a+3
  5501   0028D0  EC14  F030         	call	___flsub	;wreg free
  5502   0028D4  C02A  F164         	movff	?___flsub,powf@p_l
  5503   0028D8  C02B  F165         	movff	?___flsub+1,powf@p_l+1
  5504   0028DC  C02C  F166         	movff	?___flsub+2,powf@p_l+2
  5505   0028E0  C02D  F167         	movff	?___flsub+3,powf@p_l+3
  5506   0028E4  C19C  F011         	movff	powf@p_h,___flmul@b
  5507   0028E8  C19D  F012         	movff	powf@p_h+1,___flmul@b+1
  5508   0028EC  C19E  F013         	movff	powf@p_h+2,___flmul@b+2
  5509   0028F0  C19F  F014         	movff	powf@p_h+3,___flmul@b+3
  5510   0028F4  0E00               	movlw	0
  5511   0028F6  6E15               	movwf	___flmul@a^0,c
  5512   0028F8  0E40               	movlw	64
  5513   0028FA  6E16               	movwf	(___flmul@a+1)^0,c
  5514   0028FC  0E76               	movlw	118
  5515   0028FE  6E17               	movwf	(___flmul@a+2)^0,c
  5516   002900  0E3F               	movlw	63
  5517   002902  6E18               	movwf	(___flmul@a+3)^0,c
  5518   002904  EC83  F024         	call	___flmul	;wreg free
  5519   002908  C011  F120         	movff	?___flmul,powf@z_h
  5520   00290C  C012  F121         	movff	?___flmul+1,powf@z_h+1
  5521   002910  C013  F122         	movff	?___flmul+2,powf@z_h+2
  5522   002914  C014  F123         	movff	?___flmul+3,powf@z_h+3
  5523   002918  0E4F               	movlw	79
  5524   00291A  6E15               	movwf	___flmul@a^0,c
  5525   00291C  0E38               	movlw	56
  5526   00291E  6E16               	movwf	(___flmul@a+1)^0,c
  5527   002920  0E76               	movlw	118
  5528   002922  6E17               	movwf	(___flmul@a+2)^0,c
  5529   002924  0E3F               	movlw	63
  5530   002926  6E18               	movwf	(___flmul@a+3)^0,c
  5531   002928  C164  F011         	movff	powf@p_l,___flmul@b
  5532   00292C  C165  F012         	movff	powf@p_l+1,___flmul@b+1
  5533   002930  C166  F013         	movff	powf@p_l+2,___flmul@b+2
  5534   002934  C167  F014         	movff	powf@p_l+3,___flmul@b+3
  5535   002938  EC83  F024         	call	___flmul	;wreg free
  5536   00293C  C011  F005         	movff	?___flmul,___fladd@a
  5537   002940  C012  F006         	movff	?___flmul+1,___fladd@a+1
  5538   002944  C013  F007         	movff	?___flmul+2,___fladd@a+2
  5539   002948  C014  F008         	movff	?___flmul+3,___fladd@a+3
  5540   00294C  0EC6               	movlw	198
  5541   00294E  6E15               	movwf	___flmul@a^0,c
  5542   002950  0E23               	movlw	35
  5543   002952  6E16               	movwf	(___flmul@a+1)^0,c
  5544   002954  0EF6               	movlw	246
  5545   002956  6E17               	movwf	(___flmul@a+2)^0,c
  5546   002958  0EB8               	movlw	184
  5547   00295A  6E18               	movwf	(___flmul@a+3)^0,c
  5548   00295C  C19C  F011         	movff	powf@p_h,___flmul@b
  5549   002960  C19D  F012         	movff	powf@p_h+1,___flmul@b+1
  5550   002964  C19E  F013         	movff	powf@p_h+2,___flmul@b+2
  5551   002968  C19F  F014         	movff	powf@p_h+3,___flmul@b+3
  5552   00296C  EC83  F024         	call	___flmul	;wreg free
  5553   002970  C011  F001         	movff	?___flmul,___fladd@b
  5554   002974  C012  F002         	movff	?___flmul+1,___fladd@b+1
  5555   002978  C013  F003         	movff	?___flmul+2,___fladd@b+2
  5556   00297C  C014  F004         	movff	?___flmul+3,___fladd@b+3
  5557   002980  EC23  F022         	call	___fladd	;wreg free
  5558   002984  C001  F158         	movff	?___fladd,_powf$1358
  5559   002988  C002  F159         	movff	?___fladd+1,_powf$1358+1
  5560   00298C  C003  F15A         	movff	?___fladd+2,_powf$1358+2
  5561   002990  C004  F15B         	movff	?___fladd+3,_powf$1358+3
  5562   002994  C158  F001         	movff	_powf$1358,___fladd@b
  5563   002998  C159  F002         	movff	_powf$1358+1,___fladd@b+1
  5564   00299C  C15A  F003         	movff	_powf$1358+2,___fladd@b+2
  5565   0029A0  C15B  F004         	movff	_powf$1358+3,___fladd@b+3
  5566   0029A4  C1A0  F04B         	movff	powf@k,??_powf
  5567   0029A8  C1A1  F04C         	movff	powf@k+1,??_powf+1
  5568   0029AC  90D8               	bcf	status,0,c
  5569   0029AE  364B               	rlcf	??_powf^0,f,c
  5570   0029B0  364C               	rlcf	(??_powf+1)^0,f,c
  5571   0029B2  90D8               	bcf	status,0,c
  5572   0029B4  364B               	rlcf	??_powf^0,f,c
  5573   0029B6  364C               	rlcf	(??_powf+1)^0,f,c
  5574   0029B8  0E01               	movlw	low _dp_l
  5575   0029BA  244B               	addwf	??_powf^0,w,c
  5576   0029BC  6EF6               	movwf	tblptrl,c
  5577   0029BE  0E10               	movlw	high _dp_l
  5578   0029C0  204C               	addwfc	(??_powf+1)^0,w,c
  5579   0029C2  6EF7               	movwf	tblptrh,c
  5580   0029C4                     	if	0	;There are less than 3 active tblptr bytes
  5581   0029C4                     	endif
  5582   0029C4  0009               	tblrd		*+
  5583   0029C6  CFF5 F005          	movff	tablat,___fladd@a
  5584   0029CA  0009               	tblrd		*+
  5585   0029CC  CFF5 F006          	movff	tablat,___fladd@a+1
  5586   0029D0  0009               	tblrd		*+
  5587   0029D2  CFF5 F007          	movff	tablat,___fladd@a+2
  5588   0029D6  000A               	tblrd		*-
  5589   0029D8  CFF5 F008          	movff	tablat,___fladd@a+3
  5590   0029DC  EC23  F022         	call	___fladd	;wreg free
  5591   0029E0  C001  F124         	movff	?___fladd,powf@z_l
  5592   0029E4  C002  F125         	movff	?___fladd+1,powf@z_l+1
  5593   0029E8  C003  F126         	movff	?___fladd+2,powf@z_l+2
  5594   0029EC  C004  F127         	movff	?___fladd+3,powf@z_l+3
  5595   0029F0  C17C  F001         	movff	powf@n,___xxtofl@val
  5596   0029F4  C17D  F002         	movff	powf@n+1,___xxtofl@val+1
  5597   0029F8  C17E  F003         	movff	powf@n+2,___xxtofl@val+2
  5598   0029FC  C17F  F004         	movff	powf@n+3,___xxtofl@val+3
  5599   002A00  0E01               	movlw	1
  5600   002A02  EC74  F02A         	call	___xxtofl
  5601   002A06  C001  F1B0         	movff	?___xxtofl,powf@t
  5602   002A0A  C002  F1B1         	movff	?___xxtofl+1,powf@t+1
  5603   002A0E  C003  F1B2         	movff	?___xxtofl+2,powf@t+2
  5604   002A12  C004  F1B3         	movff	?___xxtofl+3,powf@t+3
  5605   002A16  C124  F005         	movff	powf@z_l,___fladd@a
  5606   002A1A  C125  F006         	movff	powf@z_l+1,___fladd@a+1
  5607   002A1E  C126  F007         	movff	powf@z_l+2,___fladd@a+2
  5608   002A22  C127  F008         	movff	powf@z_l+3,___fladd@a+3
  5609   002A26  C120  F001         	movff	powf@z_h,___fladd@b
  5610   002A2A  C121  F002         	movff	powf@z_h+1,___fladd@b+1
  5611   002A2E  C122  F003         	movff	powf@z_h+2,___fladd@b+2
  5612   002A32  C123  F004         	movff	powf@z_h+3,___fladd@b+3
  5613   002A36  EC23  F022         	call	___fladd	;wreg free
  5614   002A3A  C001  F158         	movff	?___fladd,_powf$1358
  5615   002A3E  C002  F159         	movff	?___fladd+1,_powf$1358+1
  5616   002A42  C003  F15A         	movff	?___fladd+2,_powf$1358+2
  5617   002A46  C004  F15B         	movff	?___fladd+3,_powf$1358+3
  5618   002A4A  C1A0  F04B         	movff	powf@k,??_powf
  5619   002A4E  C1A1  F04C         	movff	powf@k+1,??_powf+1
  5620   002A52  90D8               	bcf	status,0,c
  5621   002A54  364B               	rlcf	??_powf^0,f,c
  5622   002A56  364C               	rlcf	(??_powf+1)^0,f,c
  5623   002A58  90D8               	bcf	status,0,c
  5624   002A5A  364B               	rlcf	??_powf^0,f,c
  5625   002A5C  364C               	rlcf	(??_powf+1)^0,f,c
  5626   002A5E  0E09               	movlw	low _dp_h
  5627   002A60  244B               	addwf	??_powf^0,w,c
  5628   002A62  6EF6               	movwf	tblptrl,c
  5629   002A64  0E10               	movlw	high _dp_h
  5630   002A66  204C               	addwfc	(??_powf+1)^0,w,c
  5631   002A68  6EF7               	movwf	tblptrh,c
  5632   002A6A                     	if	0	;There are less than 3 active tblptr bytes
  5633   002A6A                     	endif
  5634   002A6A  0009               	tblrd		*+
  5635   002A6C  CFF5 F005          	movff	tablat,___fladd@a
  5636   002A70  0009               	tblrd		*+
  5637   002A72  CFF5 F006          	movff	tablat,___fladd@a+1
  5638   002A76  0009               	tblrd		*+
  5639   002A78  CFF5 F007          	movff	tablat,___fladd@a+2
  5640   002A7C  000A               	tblrd		*-
  5641   002A7E  CFF5 F008          	movff	tablat,___fladd@a+3
  5642   002A82  C158  F001         	movff	_powf$1358,___fladd@b
  5643   002A86  C159  F002         	movff	_powf$1358+1,___fladd@b+1
  5644   002A8A  C15A  F003         	movff	_powf$1358+2,___fladd@b+2
  5645   002A8E  C15B  F004         	movff	_powf$1358+3,___fladd@b+3
  5646   002A92  EC23  F022         	call	___fladd	;wreg free
  5647   002A96  C001  F108         	movff	?___fladd,_powf$1361
  5648   002A9A  C002  F109         	movff	?___fladd+1,_powf$1361+1
  5649   002A9E  C003  F10A         	movff	?___fladd+2,_powf$1361+2
  5650   002AA2  C004  F10B         	movff	?___fladd+3,_powf$1361+3
  5651   002AA6  C108  F001         	movff	_powf$1361,___fladd@b
  5652   002AAA  C109  F002         	movff	_powf$1361+1,___fladd@b+1
  5653   002AAE  C10A  F003         	movff	_powf$1361+2,___fladd@b+2
  5654   002AB2  C10B  F004         	movff	_powf$1361+3,___fladd@b+3
  5655   002AB6  C1B0  F005         	movff	powf@t,___fladd@a
  5656   002ABA  C1B1  F006         	movff	powf@t+1,___fladd@a+1
  5657   002ABE  C1B2  F007         	movff	powf@t+2,___fladd@a+2
  5658   002AC2  C1B3  F008         	movff	powf@t+3,___fladd@a+3
  5659   002AC6  EC23  F022         	call	___fladd	;wreg free
  5660   002ACA  C001  F180         	movff	?___fladd,powf@t1
  5661   002ACE  C002  F181         	movff	?___fladd+1,powf@t1+1
  5662   002AD2  C003  F182         	movff	?___fladd+2,powf@t1+2
  5663   002AD6  C004  F183         	movff	?___fladd+3,powf@t1+3
  5664   002ADA  C180  F1B8         	movff	powf@t1,powf@__xc8_float_word
  5665   002ADE  C181  F1B9         	movff	powf@t1+1,powf@__xc8_float_word+1
  5666   002AE2  C182  F1BA         	movff	powf@t1+2,powf@__xc8_float_word+2
  5667   002AE6  C183  F1BB         	movff	powf@t1+3,powf@__xc8_float_word+3
  5668   002AEA  C1B8  F190         	movff	powf@__xc8_float_word,powf@is
  5669   002AEE  C1B9  F191         	movff	powf@__xc8_float_word+1,powf@is+1
  5670   002AF2  C1BA  F192         	movff	powf@__xc8_float_word+2,powf@is+2
  5671   002AF6  C1BB  F193         	movff	powf@__xc8_float_word+3,powf@is+3
  5672   002AFA  0E00               	movlw	0
  5673   002AFC  0101               	movlb	1	; () banked
  5674   002AFE  1590               	andwf	powf@is& (0+255),w,b
  5675   002B00  6FB8               	movwf	powf@__xc8_float_word& (0+255),b
  5676   002B02  0EF0               	movlw	240
  5677   002B04  1591               	andwf	(powf@is+1)& (0+255),w,b
  5678   002B06  6FB9               	movwf	(powf@__xc8_float_word+1)& (0+255),b
  5679   002B08  0EFF               	movlw	255
  5680   002B0A  1592               	andwf	(powf@is+2)& (0+255),w,b
  5681   002B0C  6FBA               	movwf	(powf@__xc8_float_word+2)& (0+255),b
  5682   002B0E  0EFF               	movlw	255
  5683   002B10  1593               	andwf	(powf@is+3)& (0+255),w,b
  5684   002B12  6FBB               	movwf	(powf@__xc8_float_word+3)& (0+255),b
  5685   002B14                     
  5686                           ; BSR set to: 1
  5687   002B14  C1B8  F180         	movff	powf@__xc8_float_word,powf@t1
  5688   002B18  C1B9  F181         	movff	powf@__xc8_float_word+1,powf@t1+1
  5689   002B1C  C1BA  F182         	movff	powf@__xc8_float_word+2,powf@t1+2
  5690   002B20  C1BB  F183         	movff	powf@__xc8_float_word+3,powf@t1+3
  5691   002B24                     
  5692                           ; BSR set to: 1
  5693   002B24  C1B0  F02E         	movff	powf@t,___flsub@a
  5694   002B28  C1B1  F02F         	movff	powf@t+1,___flsub@a+1
  5695   002B2C  C1B2  F030         	movff	powf@t+2,___flsub@a+2
  5696   002B30  C1B3  F031         	movff	powf@t+3,___flsub@a+3
  5697   002B34  C180  F02A         	movff	powf@t1,___flsub@b
  5698   002B38  C181  F02B         	movff	powf@t1+1,___flsub@b+1
  5699   002B3C  C182  F02C         	movff	powf@t1+2,___flsub@b+2
  5700   002B40  C183  F02D         	movff	powf@t1+3,___flsub@b+3
  5701   002B44  EC14  F030         	call	___flsub	;wreg free
  5702   002B48  C02A  F194         	movff	?___flsub,_powf$1354
  5703   002B4C  C02B  F195         	movff	?___flsub+1,_powf$1354+1
  5704   002B50  C02C  F196         	movff	?___flsub+2,_powf$1354+2
  5705   002B54  C02D  F197         	movff	?___flsub+3,_powf$1354+3
  5706   002B58  C1A0  F04B         	movff	powf@k,??_powf
  5707   002B5C  C1A1  F04C         	movff	powf@k+1,??_powf+1
  5708   002B60  90D8               	bcf	status,0,c
  5709   002B62  364B               	rlcf	??_powf^0,f,c
  5710   002B64  364C               	rlcf	(??_powf+1)^0,f,c
  5711   002B66  90D8               	bcf	status,0,c
  5712   002B68  364B               	rlcf	??_powf^0,f,c
  5713   002B6A  364C               	rlcf	(??_powf+1)^0,f,c
  5714   002B6C  0E09               	movlw	low _dp_h
  5715   002B6E  244B               	addwf	??_powf^0,w,c
  5716   002B70  6EF6               	movwf	tblptrl,c
  5717   002B72  0E10               	movlw	high _dp_h
  5718   002B74  204C               	addwfc	(??_powf+1)^0,w,c
  5719   002B76  6EF7               	movwf	tblptrh,c
  5720   002B78                     	if	0	;There are less than 3 active tblptr bytes
  5721   002B78                     	endif
  5722   002B78  0009               	tblrd		*+
  5723   002B7A  CFF5 F02E          	movff	tablat,___flsub@a
  5724   002B7E  0009               	tblrd		*+
  5725   002B80  CFF5 F02F          	movff	tablat,___flsub@a+1
  5726   002B84  0009               	tblrd		*+
  5727   002B86  CFF5 F030          	movff	tablat,___flsub@a+2
  5728   002B8A  000A               	tblrd		*-
  5729   002B8C  CFF5 F031          	movff	tablat,___flsub@a+3
  5730   002B90  C194  F02A         	movff	_powf$1354,___flsub@b
  5731   002B94  C195  F02B         	movff	_powf$1354+1,___flsub@b+1
  5732   002B98  C196  F02C         	movff	_powf$1354+2,___flsub@b+2
  5733   002B9C  C197  F02D         	movff	_powf$1354+3,___flsub@b+3
  5734   002BA0  EC14  F030         	call	___flsub	;wreg free
  5735   002BA4  C02A  F140         	movff	?___flsub,_powf$1360
  5736   002BA8  C02B  F141         	movff	?___flsub+1,_powf$1360+1
  5737   002BAC  C02C  F142         	movff	?___flsub+2,_powf$1360+2
  5738   002BB0  C02D  F143         	movff	?___flsub+3,_powf$1360+3
  5739   002BB4  C120  F02E         	movff	powf@z_h,___flsub@a
  5740   002BB8  C121  F02F         	movff	powf@z_h+1,___flsub@a+1
  5741   002BBC  C122  F030         	movff	powf@z_h+2,___flsub@a+2
  5742   002BC0  C123  F031         	movff	powf@z_h+3,___flsub@a+3
  5743   002BC4  C140  F02A         	movff	_powf$1360,___flsub@b
  5744   002BC8  C141  F02B         	movff	_powf$1360+1,___flsub@b+1
  5745   002BCC  C142  F02C         	movff	_powf$1360+2,___flsub@b+2
  5746   002BD0  C143  F02D         	movff	_powf$1360+3,___flsub@b+3
  5747   002BD4  EC14  F030         	call	___flsub	;wreg free
  5748   002BD8  C02A  F10C         	movff	?___flsub,_powf$1362
  5749   002BDC  C02B  F10D         	movff	?___flsub+1,_powf$1362+1
  5750   002BE0  C02C  F10E         	movff	?___flsub+2,_powf$1362+2
  5751   002BE4  C02D  F10F         	movff	?___flsub+3,_powf$1362+3
  5752   002BE8  C124  F02A         	movff	powf@z_l,___flsub@b
  5753   002BEC  C125  F02B         	movff	powf@z_l+1,___flsub@b+1
  5754   002BF0  C126  F02C         	movff	powf@z_l+2,___flsub@b+2
  5755   002BF4  C127  F02D         	movff	powf@z_l+3,___flsub@b+3
  5756   002BF8  C10C  F02E         	movff	_powf$1362,___flsub@a
  5757   002BFC  C10D  F02F         	movff	_powf$1362+1,___flsub@a+1
  5758   002C00  C10E  F030         	movff	_powf$1362+2,___flsub@a+2
  5759   002C04  C10F  F031         	movff	_powf$1362+3,___flsub@a+3
  5760   002C08  EC14  F030         	call	___flsub	;wreg free
  5761   002C0C  C02A  F11C         	movff	?___flsub,powf@t2
  5762   002C10  C02B  F11D         	movff	?___flsub+1,powf@t2+1
  5763   002C14  C02C  F11E         	movff	?___flsub+2,powf@t2+2
  5764   002C18  C02D  F11F         	movff	?___flsub+3,powf@t2+3
  5765   002C1C                     l3997:
  5766   002C1C  C088  F1B8         	movff	powf@y,powf@__xc8_float_word
  5767   002C20  C089  F1B9         	movff	powf@y+1,powf@__xc8_float_word+1
  5768   002C24  C08A  F1BA         	movff	powf@y+2,powf@__xc8_float_word+2
  5769   002C28  C08B  F1BB         	movff	powf@y+3,powf@__xc8_float_word+3
  5770   002C2C  C1B8  F190         	movff	powf@__xc8_float_word,powf@is
  5771   002C30  C1B9  F191         	movff	powf@__xc8_float_word+1,powf@is+1
  5772   002C34  C1BA  F192         	movff	powf@__xc8_float_word+2,powf@is+2
  5773   002C38  C1BB  F193         	movff	powf@__xc8_float_word+3,powf@is+3
  5774   002C3C  0E00               	movlw	0
  5775   002C3E  0101               	movlb	1	; () banked
  5776   002C40  1590               	andwf	powf@is& (0+255),w,b
  5777   002C42  6FB8               	movwf	powf@__xc8_float_word& (0+255),b
  5778   002C44  0EF0               	movlw	240
  5779   002C46  1591               	andwf	(powf@is+1)& (0+255),w,b
  5780   002C48  6FB9               	movwf	(powf@__xc8_float_word+1)& (0+255),b
  5781   002C4A  0EFF               	movlw	255
  5782   002C4C  1592               	andwf	(powf@is+2)& (0+255),w,b
  5783   002C4E  6FBA               	movwf	(powf@__xc8_float_word+2)& (0+255),b
  5784   002C50  0EFF               	movlw	255
  5785   002C52  1593               	andwf	(powf@is+3)& (0+255),w,b
  5786   002C54  6FBB               	movwf	(powf@__xc8_float_word+3)& (0+255),b
  5787   002C56                     
  5788                           ; BSR set to: 1
  5789   002C56  C1B8  F128         	movff	powf@__xc8_float_word,powf@y1
  5790   002C5A  C1B9  F129         	movff	powf@__xc8_float_word+1,powf@y1+1
  5791   002C5E  C1BA  F12A         	movff	powf@__xc8_float_word+2,powf@y1+2
  5792   002C62  C1BB  F12B         	movff	powf@__xc8_float_word+3,powf@y1+3
  5793   002C66                     
  5794                           ; BSR set to: 1
  5795   002C66  C180  F015         	movff	powf@t1,___flmul@a
  5796   002C6A  C181  F016         	movff	powf@t1+1,___flmul@a+1
  5797   002C6E  C182  F017         	movff	powf@t1+2,___flmul@a+2
  5798   002C72  C183  F018         	movff	powf@t1+3,___flmul@a+3
  5799   002C76  C128  F02E         	movff	powf@y1,___flsub@a
  5800   002C7A  C129  F02F         	movff	powf@y1+1,___flsub@a+1
  5801   002C7E  C12A  F030         	movff	powf@y1+2,___flsub@a+2
  5802   002C82  C12B  F031         	movff	powf@y1+3,___flsub@a+3
  5803   002C86  C088  F02A         	movff	powf@y,___flsub@b
  5804   002C8A  C089  F02B         	movff	powf@y+1,___flsub@b+1
  5805   002C8E  C08A  F02C         	movff	powf@y+2,___flsub@b+2
  5806   002C92  C08B  F02D         	movff	powf@y+3,___flsub@b+3
  5807   002C96  EC14  F030         	call	___flsub	;wreg free
  5808   002C9A  C02A  F011         	movff	?___flsub,___flmul@b
  5809   002C9E  C02B  F012         	movff	?___flsub+1,___flmul@b+1
  5810   002CA2  C02C  F013         	movff	?___flsub+2,___flmul@b+2
  5811   002CA6  C02D  F014         	movff	?___flsub+3,___flmul@b+3
  5812   002CAA  EC83  F024         	call	___flmul	;wreg free
  5813   002CAE  C011  F110         	movff	?___flmul,_powf$1363
  5814   002CB2  C012  F111         	movff	?___flmul+1,_powf$1363+1
  5815   002CB6  C013  F112         	movff	?___flmul+2,_powf$1363+2
  5816   002CBA  C014  F113         	movff	?___flmul+3,_powf$1363+3
  5817   002CBE  C110  F001         	movff	_powf$1363,___fladd@b
  5818   002CC2  C111  F002         	movff	_powf$1363+1,___fladd@b+1
  5819   002CC6  C112  F003         	movff	_powf$1363+2,___fladd@b+2
  5820   002CCA  C113  F004         	movff	_powf$1363+3,___fladd@b+3
  5821   002CCE  C11C  F015         	movff	powf@t2,___flmul@a
  5822   002CD2  C11D  F016         	movff	powf@t2+1,___flmul@a+1
  5823   002CD6  C11E  F017         	movff	powf@t2+2,___flmul@a+2
  5824   002CDA  C11F  F018         	movff	powf@t2+3,___flmul@a+3
  5825   002CDE  C088  F011         	movff	powf@y,___flmul@b
  5826   002CE2  C089  F012         	movff	powf@y+1,___flmul@b+1
  5827   002CE6  C08A  F013         	movff	powf@y+2,___flmul@b+2
  5828   002CEA  C08B  F014         	movff	powf@y+3,___flmul@b+3
  5829   002CEE  EC83  F024         	call	___flmul	;wreg free
  5830   002CF2  C011  F005         	movff	?___flmul,___fladd@a
  5831   002CF6  C012  F006         	movff	?___flmul+1,___fladd@a+1
  5832   002CFA  C013  F007         	movff	?___flmul+2,___fladd@a+2
  5833   002CFE  C014  F008         	movff	?___flmul+3,___fladd@a+3
  5834   002D02  EC23  F022         	call	___fladd	;wreg free
  5835   002D06  C001  F164         	movff	?___fladd,powf@p_l
  5836   002D0A  C002  F165         	movff	?___fladd+1,powf@p_l+1
  5837   002D0E  C003  F166         	movff	?___fladd+2,powf@p_l+2
  5838   002D12  C004  F167         	movff	?___fladd+3,powf@p_l+3
  5839   002D16  C128  F011         	movff	powf@y1,___flmul@b
  5840   002D1A  C129  F012         	movff	powf@y1+1,___flmul@b+1
  5841   002D1E  C12A  F013         	movff	powf@y1+2,___flmul@b+2
  5842   002D22  C12B  F014         	movff	powf@y1+3,___flmul@b+3
  5843   002D26  C180  F015         	movff	powf@t1,___flmul@a
  5844   002D2A  C181  F016         	movff	powf@t1+1,___flmul@a+1
  5845   002D2E  C182  F017         	movff	powf@t1+2,___flmul@a+2
  5846   002D32  C183  F018         	movff	powf@t1+3,___flmul@a+3
  5847   002D36  EC83  F024         	call	___flmul	;wreg free
  5848   002D3A  C011  F19C         	movff	?___flmul,powf@p_h
  5849   002D3E  C012  F19D         	movff	?___flmul+1,powf@p_h+1
  5850   002D42  C013  F19E         	movff	?___flmul+2,powf@p_h+2
  5851   002D46  C014  F19F         	movff	?___flmul+3,powf@p_h+3
  5852   002D4A  C164  F001         	movff	powf@p_l,___fladd@b
  5853   002D4E  C165  F002         	movff	powf@p_l+1,___fladd@b+1
  5854   002D52  C166  F003         	movff	powf@p_l+2,___fladd@b+2
  5855   002D56  C167  F004         	movff	powf@p_l+3,___fladd@b+3
  5856   002D5A  C19C  F005         	movff	powf@p_h,___fladd@a
  5857   002D5E  C19D  F006         	movff	powf@p_h+1,___fladd@a+1
  5858   002D62  C19E  F007         	movff	powf@p_h+2,___fladd@a+2
  5859   002D66  C19F  F008         	movff	powf@p_h+3,___fladd@a+3
  5860   002D6A  EC23  F022         	call	___fladd	;wreg free
  5861   002D6E  C001  F1B4         	movff	?___fladd,powf@z
  5862   002D72  C002  F1B5         	movff	?___fladd+1,powf@z+1
  5863   002D76  C003  F1B6         	movff	?___fladd+2,powf@z+2
  5864   002D7A  C004  F1B7         	movff	?___fladd+3,powf@z+3
  5865   002D7E  C1B4  F1B8         	movff	powf@z,powf@__xc8_float_word
  5866   002D82  C1B5  F1B9         	movff	powf@z+1,powf@__xc8_float_word+1
  5867   002D86  C1B6  F1BA         	movff	powf@z+2,powf@__xc8_float_word+2
  5868   002D8A  C1B7  F1BB         	movff	powf@z+3,powf@__xc8_float_word+3
  5869   002D8E  C1B8  F1AC         	movff	powf@__xc8_float_word,powf@j
  5870   002D92  C1B9  F1AD         	movff	powf@__xc8_float_word+1,powf@j+1
  5871   002D96  C1BA  F1AE         	movff	powf@__xc8_float_word+2,powf@j+2
  5872   002D9A  C1BB  F1AF         	movff	powf@__xc8_float_word+3,powf@j+3
  5873   002D9E  0101               	movlb	1	; () banked
  5874   002DA0  BFAF               	btfsc	(powf@j+3)& (0+255),7,b
  5875   002DA2  EFDF  F016         	goto	u3941
  5876   002DA6  05AC               	decf	powf@j& (0+255),w,b
  5877   002DA8  0E00               	movlw	0
  5878   002DAA  59AD               	subwfb	(powf@j+1)& (0+255),w,b
  5879   002DAC  0E00               	movlw	0
  5880   002DAE  59AE               	subwfb	(powf@j+2)& (0+255),w,b
  5881   002DB0  0E43               	movlw	67
  5882   002DB2  59AF               	subwfb	(powf@j+3)& (0+255),w,b
  5883   002DB4  A0D8               	btfss	status,0,c
  5884   002DB6  EFDF  F016         	goto	u3941
  5885   002DBA  EFE1  F016         	goto	u3940
  5886   002DBE                     u3941:
  5887   002DBE  EF17  F017         	goto	l4025
  5888   002DC2                     u3940:
  5889   002DC2                     
  5890                           ; BSR set to: 1
  5891   002DC2  0ECA               	movlw	202
  5892   002DC4  6E15               	movwf	___flmul@a^0,c
  5893   002DC6  0EF2               	movlw	242
  5894   002DC8  6E16               	movwf	(___flmul@a+1)^0,c
  5895   002DCA  0E49               	movlw	73
  5896   002DCC  6E17               	movwf	(___flmul@a+2)^0,c
  5897   002DCE  0E71               	movlw	113
  5898   002DD0  6E18               	movwf	(___flmul@a+3)^0,c
  5899   002DD2  C188  F011         	movff	powf@sn,___flmul@b
  5900   002DD6  C189  F012         	movff	powf@sn+1,___flmul@b+1
  5901   002DDA  C18A  F013         	movff	powf@sn+2,___flmul@b+2
  5902   002DDE  C18B  F014         	movff	powf@sn+3,___flmul@b+3
  5903   002DE2  EC83  F024         	call	___flmul	;wreg free
  5904   002DE6  C011  F1A4         	movff	?___flmul,_powf$1351
  5905   002DEA  C012  F1A5         	movff	?___flmul+1,_powf$1351+1
  5906   002DEE  C013  F1A6         	movff	?___flmul+2,_powf$1351+2
  5907   002DF2  C014  F1A7         	movff	?___flmul+3,_powf$1351+3
  5908   002DF6  C1A4  F011         	movff	_powf$1351,___flmul@b
  5909   002DFA  C1A5  F012         	movff	_powf$1351+1,___flmul@b+1
  5910   002DFE  C1A6  F013         	movff	_powf$1351+2,___flmul@b+2
  5911   002E02  C1A7  F014         	movff	_powf$1351+3,___flmul@b+3
  5912   002E06  0ECA               	movlw	202
  5913   002E08  6E15               	movwf	___flmul@a^0,c
  5914   002E0A  0EF2               	movlw	242
  5915   002E0C  6E16               	movwf	(___flmul@a+1)^0,c
  5916   002E0E  0E49               	movlw	73
  5917   002E10  6E17               	movwf	(___flmul@a+2)^0,c
  5918   002E12  0E71               	movlw	113
  5919   002E14  6E18               	movwf	(___flmul@a+3)^0,c
  5920   002E16  EC83  F024         	call	___flmul	;wreg free
  5921   002E1A  C011  F084         	movff	?___flmul,?_powf
  5922   002E1E  C012  F085         	movff	?___flmul+1,?_powf+1
  5923   002E22  C013  F086         	movff	?___flmul+2,?_powf+2
  5924   002E26  C014  F087         	movff	?___flmul+3,?_powf+3
  5925   002E2A  EFDB  F01C         	goto	l1074
  5926   002E2E                     l4025:
  5927                           
  5928                           ; BSR set to: 1
  5929   002E2E  0E43               	movlw	67
  5930   002E30  19AF               	xorwf	(powf@j+3)& (0+255),w,b
  5931   002E32  11AC               	iorwf	powf@j& (0+255),w,b
  5932   002E34  11AD               	iorwf	(powf@j+1)& (0+255),w,b
  5933   002E36  11AE               	iorwf	(powf@j+2)& (0+255),w,b
  5934   002E38  A4D8               	btfss	status,2,c
  5935   002E3A  EF21  F017         	goto	u3951
  5936   002E3E  EF23  F017         	goto	u3950
  5937   002E42                     u3951:
  5938   002E42  EF96  F017         	goto	l4033
  5939   002E46                     u3950:
  5940   002E46                     
  5941                           ; BSR set to: 1
  5942   002E46  C19C  F02E         	movff	powf@p_h,___flsub@a
  5943   002E4A  C19D  F02F         	movff	powf@p_h+1,___flsub@a+1
  5944   002E4E  C19E  F030         	movff	powf@p_h+2,___flsub@a+2
  5945   002E52  C19F  F031         	movff	powf@p_h+3,___flsub@a+3
  5946   002E56  C1B4  F02A         	movff	powf@z,___flsub@b
  5947   002E5A  C1B5  F02B         	movff	powf@z+1,___flsub@b+1
  5948   002E5E  C1B6  F02C         	movff	powf@z+2,___flsub@b+2
  5949   002E62  C1B7  F02D         	movff	powf@z+3,___flsub@b+3
  5950   002E66  EC14  F030         	call	___flsub	;wreg free
  5951   002E6A  C02A  F032         	movff	?___flsub,___flge@ff1
  5952   002E6E  C02B  F033         	movff	?___flsub+1,___flge@ff1+1
  5953   002E72  C02C  F034         	movff	?___flsub+2,___flge@ff1+2
  5954   002E76  C02D  F035         	movff	?___flsub+3,___flge@ff1+3
  5955   002E7A  0E3C               	movlw	60
  5956   002E7C  6E05               	movwf	___fladd@a^0,c
  5957   002E7E  0EAA               	movlw	170
  5958   002E80  6E06               	movwf	(___fladd@a+1)^0,c
  5959   002E82  0E38               	movlw	56
  5960   002E84  6E07               	movwf	(___fladd@a+2)^0,c
  5961   002E86  0E33               	movlw	51
  5962   002E88  6E08               	movwf	(___fladd@a+3)^0,c
  5963   002E8A  C164  F001         	movff	powf@p_l,___fladd@b
  5964   002E8E  C165  F002         	movff	powf@p_l+1,___fladd@b+1
  5965   002E92  C166  F003         	movff	powf@p_l+2,___fladd@b+2
  5966   002E96  C167  F004         	movff	powf@p_l+3,___fladd@b+3
  5967   002E9A  EC23  F022         	call	___fladd	;wreg free
  5968   002E9E  C001  F036         	movff	?___fladd,___flge@ff2
  5969   002EA2  C002  F037         	movff	?___fladd+1,___flge@ff2+1
  5970   002EA6  C003  F038         	movff	?___fladd+2,___flge@ff2+2
  5971   002EAA  C004  F039         	movff	?___fladd+3,___flge@ff2+3
  5972   002EAE  EC7F  F02C         	call	___flge	;wreg free
  5973   002EB2  B0D8               	btfsc	status,0,c
  5974   002EB4  EF5E  F017         	goto	u3961
  5975   002EB8  EF60  F017         	goto	u3960
  5976   002EBC                     u3961:
  5977   002EBC  EF58  F018         	goto	l4049
  5978   002EC0                     u3960:
  5979   002EC0  0ECA               	movlw	202
  5980   002EC2  6E15               	movwf	___flmul@a^0,c
  5981   002EC4  0EF2               	movlw	242
  5982   002EC6  6E16               	movwf	(___flmul@a+1)^0,c
  5983   002EC8  0E49               	movlw	73
  5984   002ECA  6E17               	movwf	(___flmul@a+2)^0,c
  5985   002ECC  0E71               	movlw	113
  5986   002ECE  6E18               	movwf	(___flmul@a+3)^0,c
  5987   002ED0  C188  F011         	movff	powf@sn,___flmul@b
  5988   002ED4  C189  F012         	movff	powf@sn+1,___flmul@b+1
  5989   002ED8  C18A  F013         	movff	powf@sn+2,___flmul@b+2
  5990   002EDC  C18B  F014         	movff	powf@sn+3,___flmul@b+3
  5991   002EE0  EC83  F024         	call	___flmul	;wreg free
  5992   002EE4  C011  F1A4         	movff	?___flmul,_powf$1351
  5993   002EE8  C012  F1A5         	movff	?___flmul+1,_powf$1351+1
  5994   002EEC  C013  F1A6         	movff	?___flmul+2,_powf$1351+2
  5995   002EF0  C014  F1A7         	movff	?___flmul+3,_powf$1351+3
  5996   002EF4  C1A4  F011         	movff	_powf$1351,___flmul@b
  5997   002EF8  C1A5  F012         	movff	_powf$1351+1,___flmul@b+1
  5998   002EFC  C1A6  F013         	movff	_powf$1351+2,___flmul@b+2
  5999   002F00  C1A7  F014         	movff	_powf$1351+3,___flmul@b+3
  6000   002F04  0ECA               	movlw	202
  6001   002F06  6E15               	movwf	___flmul@a^0,c
  6002   002F08  0EF2               	movlw	242
  6003   002F0A  6E16               	movwf	(___flmul@a+1)^0,c
  6004   002F0C  0E49               	movlw	73
  6005   002F0E  6E17               	movwf	(___flmul@a+2)^0,c
  6006   002F10  0E71               	movlw	113
  6007   002F12  6E18               	movwf	(___flmul@a+3)^0,c
  6008   002F14  EC83  F024         	call	___flmul	;wreg free
  6009   002F18  C011  F084         	movff	?___flmul,?_powf
  6010   002F1C  C012  F085         	movff	?___flmul+1,?_powf+1
  6011   002F20  C013  F086         	movff	?___flmul+2,?_powf+2
  6012   002F24  C014  F087         	movff	?___flmul+3,?_powf+3
  6013   002F28  EFDB  F01C         	goto	l1074
  6014   002F2C                     l4033:
  6015                           
  6016                           ; BSR set to: 1
  6017   002F2C  0EFF               	movlw	255
  6018   002F2E  15AC               	andwf	powf@j& (0+255),w,b
  6019   002F30  6E4B               	movwf	??_powf^0,c
  6020   002F32  0EFF               	movlw	255
  6021   002F34  15AD               	andwf	(powf@j+1)& (0+255),w,b
  6022   002F36  6E4C               	movwf	(??_powf+1)^0,c
  6023   002F38  0EFF               	movlw	255
  6024   002F3A  15AE               	andwf	(powf@j+2)& (0+255),w,b
  6025   002F3C  6E4D               	movwf	(??_powf+2)^0,c
  6026   002F3E  0E7F               	movlw	127
  6027   002F40  15AF               	andwf	(powf@j+3)& (0+255),w,b
  6028   002F42  6E4E               	movwf	(??_powf+3)^0,c
  6029   002F44  BE4E               	btfsc	(??_powf+3)^0,7,c
  6030   002F46  EFB1  F017         	goto	u3971
  6031   002F4A  044B               	decf	??_powf^0,w,c
  6032   002F4C  0E00               	movlw	0
  6033   002F4E  584C               	subwfb	(??_powf+1)^0,w,c
  6034   002F50  0E16               	movlw	22
  6035   002F52  584D               	subwfb	(??_powf+2)^0,w,c
  6036   002F54  0E43               	movlw	67
  6037   002F56  584E               	subwfb	(??_powf+3)^0,w,c
  6038   002F58  A0D8               	btfss	status,0,c
  6039   002F5A  EFB1  F017         	goto	u3971
  6040   002F5E  EFB3  F017         	goto	u3970
  6041   002F62                     u3971:
  6042   002F62  EFE9  F017         	goto	l4041
  6043   002F66                     u3970:
  6044   002F66                     
  6045                           ; BSR set to: 1
  6046   002F66  0E60               	movlw	96
  6047   002F68  6E15               	movwf	___flmul@a^0,c
  6048   002F6A  0E42               	movlw	66
  6049   002F6C  6E16               	movwf	(___flmul@a+1)^0,c
  6050   002F6E  0EA2               	movlw	162
  6051   002F70  6E17               	movwf	(___flmul@a+2)^0,c
  6052   002F72  0E0D               	movlw	13
  6053   002F74  6E18               	movwf	(___flmul@a+3)^0,c
  6054   002F76  C188  F011         	movff	powf@sn,___flmul@b
  6055   002F7A  C189  F012         	movff	powf@sn+1,___flmul@b+1
  6056   002F7E  C18A  F013         	movff	powf@sn+2,___flmul@b+2
  6057   002F82  C18B  F014         	movff	powf@sn+3,___flmul@b+3
  6058   002F86  EC83  F024         	call	___flmul	;wreg free
  6059   002F8A  C011  F1A4         	movff	?___flmul,_powf$1351
  6060   002F8E  C012  F1A5         	movff	?___flmul+1,_powf$1351+1
  6061   002F92  C013  F1A6         	movff	?___flmul+2,_powf$1351+2
  6062   002F96  C014  F1A7         	movff	?___flmul+3,_powf$1351+3
  6063   002F9A  C1A4  F011         	movff	_powf$1351,___flmul@b
  6064   002F9E  C1A5  F012         	movff	_powf$1351+1,___flmul@b+1
  6065   002FA2  C1A6  F013         	movff	_powf$1351+2,___flmul@b+2
  6066   002FA6  C1A7  F014         	movff	_powf$1351+3,___flmul@b+3
  6067   002FAA  0E60               	movlw	96
  6068   002FAC  6E15               	movwf	___flmul@a^0,c
  6069   002FAE  0E42               	movlw	66
  6070   002FB0  6E16               	movwf	(___flmul@a+1)^0,c
  6071   002FB2  0EA2               	movlw	162
  6072   002FB4  6E17               	movwf	(___flmul@a+2)^0,c
  6073   002FB6  0E0D               	movlw	13
  6074   002FB8  6E18               	movwf	(___flmul@a+3)^0,c
  6075   002FBA  EC83  F024         	call	___flmul	;wreg free
  6076   002FBE  C011  F084         	movff	?___flmul,?_powf
  6077   002FC2  C012  F085         	movff	?___flmul+1,?_powf+1
  6078   002FC6  C013  F086         	movff	?___flmul+2,?_powf+2
  6079   002FCA  C014  F087         	movff	?___flmul+3,?_powf+3
  6080   002FCE  EFDB  F01C         	goto	l1074
  6081   002FD2                     l4041:
  6082                           
  6083                           ; BSR set to: 1
  6084   002FD2  0E16               	movlw	22
  6085   002FD4  19AE               	xorwf	(powf@j+2)& (0+255),w,b
  6086   002FD6  E109               	bnz	u3981
  6087   002FD8  0EC3               	movlw	195
  6088   002FDA  19AF               	xorwf	(powf@j+3)& (0+255),w,b
  6089   002FDC  11AC               	iorwf	powf@j& (0+255),w,b
  6090   002FDE  11AD               	iorwf	(powf@j+1)& (0+255),w,b
  6091   002FE0  A4D8               	btfss	status,2,c
  6092   002FE2  EFF5  F017         	goto	u3981
  6093   002FE6  EFF7  F017         	goto	u3980
  6094   002FEA                     u3981:
  6095   002FEA  EF58  F018         	goto	l4049
  6096   002FEE                     u3980:
  6097   002FEE                     
  6098                           ; BSR set to: 1
  6099   002FEE  C19C  F02E         	movff	powf@p_h,___flsub@a
  6100   002FF2  C19D  F02F         	movff	powf@p_h+1,___flsub@a+1
  6101   002FF6  C19E  F030         	movff	powf@p_h+2,___flsub@a+2
  6102   002FFA  C19F  F031         	movff	powf@p_h+3,___flsub@a+3
  6103   002FFE  C1B4  F02A         	movff	powf@z,___flsub@b
  6104   003002  C1B5  F02B         	movff	powf@z+1,___flsub@b+1
  6105   003006  C1B6  F02C         	movff	powf@z+2,___flsub@b+2
  6106   00300A  C1B7  F02D         	movff	powf@z+3,___flsub@b+3
  6107   00300E  EC14  F030         	call	___flsub	;wreg free
  6108   003012  C02A  F032         	movff	?___flsub,___flge@ff1
  6109   003016  C02B  F033         	movff	?___flsub+1,___flge@ff1+1
  6110   00301A  C02C  F034         	movff	?___flsub+2,___flge@ff1+2
  6111   00301E  C02D  F035         	movff	?___flsub+3,___flge@ff1+3
  6112   003022  C164  F036         	movff	powf@p_l,___flge@ff2
  6113   003026  C165  F037         	movff	powf@p_l+1,___flge@ff2+1
  6114   00302A  C166  F038         	movff	powf@p_l+2,___flge@ff2+2
  6115   00302E  C167  F039         	movff	powf@p_l+3,___flge@ff2+3
  6116   003032  EC7F  F02C         	call	___flge	;wreg free
  6117   003036  A0D8               	btfss	status,0,c
  6118   003038  EF20  F018         	goto	u3991
  6119   00303C  EF22  F018         	goto	u3990
  6120   003040                     u3991:
  6121   003040  EF58  F018         	goto	l4049
  6122   003044                     u3990:
  6123   003044  0E60               	movlw	96
  6124   003046  6E15               	movwf	___flmul@a^0,c
  6125   003048  0E42               	movlw	66
  6126   00304A  6E16               	movwf	(___flmul@a+1)^0,c
  6127   00304C  0EA2               	movlw	162
  6128   00304E  6E17               	movwf	(___flmul@a+2)^0,c
  6129   003050  0E0D               	movlw	13
  6130   003052  6E18               	movwf	(___flmul@a+3)^0,c
  6131   003054  C188  F011         	movff	powf@sn,___flmul@b
  6132   003058  C189  F012         	movff	powf@sn+1,___flmul@b+1
  6133   00305C  C18A  F013         	movff	powf@sn+2,___flmul@b+2
  6134   003060  C18B  F014         	movff	powf@sn+3,___flmul@b+3
  6135   003064  EC83  F024         	call	___flmul	;wreg free
  6136   003068  C011  F1A4         	movff	?___flmul,_powf$1351
  6137   00306C  C012  F1A5         	movff	?___flmul+1,_powf$1351+1
  6138   003070  C013  F1A6         	movff	?___flmul+2,_powf$1351+2
  6139   003074  C014  F1A7         	movff	?___flmul+3,_powf$1351+3
  6140   003078  C1A4  F011         	movff	_powf$1351,___flmul@b
  6141   00307C  C1A5  F012         	movff	_powf$1351+1,___flmul@b+1
  6142   003080  C1A6  F013         	movff	_powf$1351+2,___flmul@b+2
  6143   003084  C1A7  F014         	movff	_powf$1351+3,___flmul@b+3
  6144   003088  0E60               	movlw	96
  6145   00308A  6E15               	movwf	___flmul@a^0,c
  6146   00308C  0E42               	movlw	66
  6147   00308E  6E16               	movwf	(___flmul@a+1)^0,c
  6148   003090  0EA2               	movlw	162
  6149   003092  6E17               	movwf	(___flmul@a+2)^0,c
  6150   003094  0E0D               	movlw	13
  6151   003096  6E18               	movwf	(___flmul@a+3)^0,c
  6152   003098  EC83  F024         	call	___flmul	;wreg free
  6153   00309C  C011  F084         	movff	?___flmul,?_powf
  6154   0030A0  C012  F085         	movff	?___flmul+1,?_powf+1
  6155   0030A4  C013  F086         	movff	?___flmul+2,?_powf+2
  6156   0030A8  C014  F087         	movff	?___flmul+3,?_powf+3
  6157   0030AC  EFDB  F01C         	goto	l1074
  6158   0030B0                     l4049:
  6159   0030B0  0EFF               	movlw	255
  6160   0030B2  0101               	movlb	1	; () banked
  6161   0030B4  15AC               	andwf	powf@j& (0+255),w,b
  6162   0030B6  6F2C               	movwf	powf@i& (0+255),b
  6163   0030B8  0EFF               	movlw	255
  6164   0030BA  15AD               	andwf	(powf@j+1)& (0+255),w,b
  6165   0030BC  6F2D               	movwf	(powf@i+1)& (0+255),b
  6166   0030BE  0EFF               	movlw	255
  6167   0030C0  15AE               	andwf	(powf@j+2)& (0+255),w,b
  6168   0030C2  6F2E               	movwf	(powf@i+2)& (0+255),b
  6169   0030C4  0E7F               	movlw	127
  6170   0030C6  15AF               	andwf	(powf@j+3)& (0+255),w,b
  6171   0030C8  6F2F               	movwf	(powf@i+3)& (0+255),b
  6172   0030CA  0E17               	movlw	23
  6173   0030CC  6E4B               	movwf	??_powf^0,c
  6174   0030CE  C12C  F04C         	movff	powf@i,??_powf+1
  6175   0030D2  C12D  F04D         	movff	powf@i+1,??_powf+2
  6176   0030D6  C12E  F04E         	movff	powf@i+2,??_powf+3
  6177   0030DA  C12F  F04F         	movff	powf@i+3,??_powf+4
  6178   0030DE                     u4005:
  6179   0030DE  664B               	tstfsz	??_powf^0,c
  6180   0030E0  EF74  F018         	goto	u4006
  6181   0030E4  EF7C  F018         	goto	u4007
  6182   0030E8                     u4006:
  6183   0030E8  344F               	rlcf	(??_powf+4)^0,w,c
  6184   0030EA  324F               	rrcf	(??_powf+4)^0,f,c
  6185   0030EC  324E               	rrcf	(??_powf+3)^0,f,c
  6186   0030EE  324D               	rrcf	(??_powf+2)^0,f,c
  6187   0030F0  324C               	rrcf	(??_powf+1)^0,f,c
  6188   0030F2  2E4B               	decfsz	??_powf^0,f,c
  6189   0030F4  EF6F  F018         	goto	u4005
  6190   0030F8                     u4007:
  6191   0030F8  0E81               	movlw	129
  6192   0030FA  244C               	addwf	(??_powf+1)^0,w,c
  6193   0030FC  0101               	movlb	1	; () banked
  6194   0030FE  6FA0               	movwf	powf@k& (0+255),b
  6195   003100  0EFF               	movlw	255
  6196   003102  204D               	addwfc	(??_powf+2)^0,w,c
  6197   003104  6FA1               	movwf	(powf@k+1)& (0+255),b
  6198   003106  0EFF               	movlw	255
  6199   003108  204E               	addwfc	(??_powf+3)^0,w,c
  6200   00310A  6FA2               	movwf	(powf@k+2)& (0+255),b
  6201   00310C  0EFF               	movlw	255
  6202   00310E  204F               	addwfc	(??_powf+4)^0,w,c
  6203   003110  6FA3               	movwf	(powf@k+3)& (0+255),b
  6204   003112                     
  6205                           ; BSR set to: 1
  6206   003112  0E00               	movlw	0
  6207   003114  6F7C               	movwf	powf@n& (0+255),b
  6208   003116  0E00               	movlw	0
  6209   003118  6F7D               	movwf	(powf@n+1)& (0+255),b
  6210   00311A  0E00               	movlw	0
  6211   00311C  6F7E               	movwf	(powf@n+2)& (0+255),b
  6212   00311E  0E00               	movlw	0
  6213   003120  6F7F               	movwf	(powf@n+3)& (0+255),b
  6214   003122                     
  6215                           ; BSR set to: 1
  6216   003122  BF2F               	btfsc	(powf@i+3)& (0+255),7,b
  6217   003124  EFA0  F018         	goto	u4011
  6218   003128  052C               	decf	powf@i& (0+255),w,b
  6219   00312A  0E00               	movlw	0
  6220   00312C  592D               	subwfb	(powf@i+1)& (0+255),w,b
  6221   00312E  0E00               	movlw	0
  6222   003130  592E               	subwfb	(powf@i+2)& (0+255),w,b
  6223   003132  0E3F               	movlw	63
  6224   003134  592F               	subwfb	(powf@i+3)& (0+255),w,b
  6225   003136  A0D8               	btfss	status,0,c
  6226   003138  EFA0  F018         	goto	u4011
  6227   00313C  EFA2  F018         	goto	u4010
  6228   003140                     u4011:
  6229   003140  EF82  F019         	goto	l4063
  6230   003144                     u4010:
  6231   003144                     
  6232                           ; BSR set to: 1
  6233   003144  C1A0  F04B         	movff	powf@k,??_powf
  6234   003148  0E01               	movlw	1
  6235   00314A  264B               	addwf	??_powf^0,f,c
  6236   00314C  0E00               	movlw	0
  6237   00314E  6E4C               	movwf	(??_powf+1)^0,c
  6238   003150  0E00               	movlw	0
  6239   003152  6E4D               	movwf	(??_powf+2)^0,c
  6240   003154  0E80               	movlw	128
  6241   003156  6E4E               	movwf	(??_powf+3)^0,c
  6242   003158  0E00               	movlw	0
  6243   00315A  6E4F               	movwf	(??_powf+4)^0,c
  6244   00315C                     u4025:
  6245   00315C  664B               	tstfsz	??_powf^0,c
  6246   00315E  EFB3  F018         	goto	u4026
  6247   003162  EFBB  F018         	goto	u4027
  6248   003166                     u4026:
  6249   003166  344F               	rlcf	(??_powf+4)^0,w,c
  6250   003168  324F               	rrcf	(??_powf+4)^0,f,c
  6251   00316A  324E               	rrcf	(??_powf+3)^0,f,c
  6252   00316C  324D               	rrcf	(??_powf+2)^0,f,c
  6253   00316E  324C               	rrcf	(??_powf+1)^0,f,c
  6254   003170  2E4B               	decfsz	??_powf^0,f,c
  6255   003172  EFAE  F018         	goto	u4025
  6256   003176                     u4027:
  6257   003176  0101               	movlb	1	; () banked
  6258   003178  51AC               	movf	powf@j& (0+255),w,b
  6259   00317A  244C               	addwf	(??_powf+1)^0,w,c
  6260   00317C  6F7C               	movwf	powf@n& (0+255),b
  6261   00317E  51AD               	movf	(powf@j+1)& (0+255),w,b
  6262   003180  204D               	addwfc	(??_powf+2)^0,w,c
  6263   003182  6F7D               	movwf	(powf@n+1)& (0+255),b
  6264   003184  51AE               	movf	(powf@j+2)& (0+255),w,b
  6265   003186  204E               	addwfc	(??_powf+3)^0,w,c
  6266   003188  6F7E               	movwf	(powf@n+2)& (0+255),b
  6267   00318A  51AF               	movf	(powf@j+3)& (0+255),w,b
  6268   00318C  204F               	addwfc	(??_powf+4)^0,w,c
  6269   00318E  6F7F               	movwf	(powf@n+3)& (0+255),b
  6270   003190  0E81               	movlw	129
  6271   003192  6E4B               	movwf	??_powf^0,c
  6272   003194  0EFF               	movlw	255
  6273   003196  6E4C               	movwf	(??_powf+1)^0,c
  6274   003198  0EFF               	movlw	255
  6275   00319A  6E4D               	movwf	(??_powf+2)^0,c
  6276   00319C  0EFF               	movlw	255
  6277   00319E  6E4E               	movwf	(??_powf+3)^0,c
  6278   0031A0  0E17               	movlw	23
  6279   0031A2  6E4F               	movwf	(??_powf+4)^0,c
  6280   0031A4  C17C  F050         	movff	powf@n,??_powf+5
  6281   0031A8  C17D  F051         	movff	powf@n+1,??_powf+6
  6282   0031AC  C17E  F052         	movff	powf@n+2,??_powf+7
  6283   0031B0  C17F  F053         	movff	powf@n+3,??_powf+8
  6284   0031B4                     u4035:
  6285   0031B4  664F               	tstfsz	(??_powf+4)^0,c
  6286   0031B6  EFDF  F018         	goto	u4036
  6287   0031BA  EFE7  F018         	goto	u4037
  6288   0031BE                     u4036:
  6289   0031BE  3453               	rlcf	(??_powf+8)^0,w,c
  6290   0031C0  3253               	rrcf	(??_powf+8)^0,f,c
  6291   0031C2  3252               	rrcf	(??_powf+7)^0,f,c
  6292   0031C4  3251               	rrcf	(??_powf+6)^0,f,c
  6293   0031C6  3250               	rrcf	(??_powf+5)^0,f,c
  6294   0031C8  2E4F               	decfsz	(??_powf+4)^0,f,c
  6295   0031CA  EFDA  F018         	goto	u4035
  6296   0031CE                     u4037:
  6297   0031CE  5050               	movf	(??_powf+5)^0,w,c
  6298   0031D0  244B               	addwf	??_powf^0,w,c
  6299   0031D2  0101               	movlb	1	; () banked
  6300   0031D4  6FA0               	movwf	powf@k& (0+255),b
  6301   0031D6  0E00               	movlw	0
  6302   0031D8  204C               	addwfc	(??_powf+1)^0,w,c
  6303   0031DA  6FA1               	movwf	(powf@k+1)& (0+255),b
  6304   0031DC  0E00               	movlw	0
  6305   0031DE  204D               	addwfc	(??_powf+2)^0,w,c
  6306   0031E0  6FA2               	movwf	(powf@k+2)& (0+255),b
  6307   0031E2  0E00               	movlw	0
  6308   0031E4  204E               	addwfc	(??_powf+3)^0,w,c
  6309   0031E6  6FA3               	movwf	(powf@k+3)& (0+255),b
  6310   0031E8                     
  6311                           ; BSR set to: 1
  6312   0031E8  C1A0  F04B         	movff	powf@k,??_powf
  6313   0031EC  0EFF               	movlw	255
  6314   0031EE  6E4C               	movwf	(??_powf+1)^0,c
  6315   0031F0  0EFF               	movlw	255
  6316   0031F2  6E4D               	movwf	(??_powf+2)^0,c
  6317   0031F4  0E7F               	movlw	127
  6318   0031F6  6E4E               	movwf	(??_powf+3)^0,c
  6319   0031F8  0E00               	movlw	0
  6320   0031FA  6E4F               	movwf	(??_powf+4)^0,c
  6321   0031FC                     u4045:
  6322   0031FC  664B               	tstfsz	??_powf^0,c
  6323   0031FE  EF03  F019         	goto	u4046
  6324   003202  EF0B  F019         	goto	u4047
  6325   003206                     u4046:
  6326   003206  344F               	rlcf	(??_powf+4)^0,w,c
  6327   003208  324F               	rrcf	(??_powf+4)^0,f,c
  6328   00320A  324E               	rrcf	(??_powf+3)^0,f,c
  6329   00320C  324D               	rrcf	(??_powf+2)^0,f,c
  6330   00320E  324C               	rrcf	(??_powf+1)^0,f,c
  6331   003210  2E4B               	decfsz	??_powf^0,f,c
  6332   003212  EFFE  F018         	goto	u4045
  6333   003216                     u4047:
  6334   003216  1C4C               	comf	(??_powf+1)^0,w,c
  6335   003218  6E50               	movwf	(??_powf+5)^0,c
  6336   00321A  1C4D               	comf	(??_powf+2)^0,w,c
  6337   00321C  6E51               	movwf	(??_powf+6)^0,c
  6338   00321E  1C4E               	comf	(??_powf+3)^0,w,c
  6339   003220  6E52               	movwf	(??_powf+7)^0,c
  6340   003222  1C4F               	comf	(??_powf+4)^0,w,c
  6341   003224  6E53               	movwf	(??_powf+8)^0,c
  6342   003226  0101               	movlb	1	; () banked
  6343   003228  517C               	movf	powf@n& (0+255),w,b
  6344   00322A  1450               	andwf	(??_powf+5)^0,w,c
  6345   00322C  6FB8               	movwf	powf@__xc8_float_word& (0+255),b
  6346   00322E  517D               	movf	(powf@n+1)& (0+255),w,b
  6347   003230  1451               	andwf	(??_powf+6)^0,w,c
  6348   003232  6FB9               	movwf	(powf@__xc8_float_word+1)& (0+255),b
  6349   003234  517E               	movf	(powf@n+2)& (0+255),w,b
  6350   003236  1452               	andwf	(??_powf+7)^0,w,c
  6351   003238  6FBA               	movwf	(powf@__xc8_float_word+2)& (0+255),b
  6352   00323A  517F               	movf	(powf@n+3)& (0+255),w,b
  6353   00323C  1453               	andwf	(??_powf+8)^0,w,c
  6354   00323E  6FBB               	movwf	(powf@__xc8_float_word+3)& (0+255),b
  6355   003240                     
  6356                           ; BSR set to: 1
  6357   003240  C1B8  F1B0         	movff	powf@__xc8_float_word,powf@t
  6358   003244  C1B9  F1B1         	movff	powf@__xc8_float_word+1,powf@t+1
  6359   003248  C1BA  F1B2         	movff	powf@__xc8_float_word+2,powf@t+2
  6360   00324C  C1BB  F1B3         	movff	powf@__xc8_float_word+3,powf@t+3
  6361   003250                     
  6362                           ; BSR set to: 1
  6363   003250  51A0               	movf	powf@k& (0+255),w,b
  6364   003252  0817               	sublw	23
  6365   003254  6E4B               	movwf	??_powf^0,c
  6366   003256  0EFF               	movlw	255
  6367   003258  157C               	andwf	powf@n& (0+255),w,b
  6368   00325A  6E4C               	movwf	(??_powf+1)^0,c
  6369   00325C  0EFF               	movlw	255
  6370   00325E  157D               	andwf	(powf@n+1)& (0+255),w,b
  6371   003260  6E4D               	movwf	(??_powf+2)^0,c
  6372   003262  0E7F               	movlw	127
  6373   003264  157E               	andwf	(powf@n+2)& (0+255),w,b
  6374   003266  6E4E               	movwf	(??_powf+3)^0,c
  6375   003268  0E00               	movlw	0
  6376   00326A  157F               	andwf	(powf@n+3)& (0+255),w,b
  6377   00326C  6E4F               	movwf	(??_powf+4)^0,c
  6378   00326E  0E00               	movlw	0
  6379   003270  104C               	iorwf	(??_powf+1)^0,w,c
  6380   003272  6E50               	movwf	(??_powf+5)^0,c
  6381   003274  0E00               	movlw	0
  6382   003276  104D               	iorwf	(??_powf+2)^0,w,c
  6383   003278  6E51               	movwf	(??_powf+6)^0,c
  6384   00327A  0E80               	movlw	128
  6385   00327C  104E               	iorwf	(??_powf+3)^0,w,c
  6386   00327E  6E52               	movwf	(??_powf+7)^0,c
  6387   003280  0E00               	movlw	0
  6388   003282  104F               	iorwf	(??_powf+4)^0,w,c
  6389   003284  6E53               	movwf	(??_powf+8)^0,c
  6390   003286                     u4055:
  6391   003286  664B               	tstfsz	??_powf^0,c
  6392   003288  EF48  F019         	goto	u4056
  6393   00328C  EF50  F019         	goto	u4057
  6394   003290                     u4056:
  6395   003290  3453               	rlcf	(??_powf+8)^0,w,c
  6396   003292  3253               	rrcf	(??_powf+8)^0,f,c
  6397   003294  3252               	rrcf	(??_powf+7)^0,f,c
  6398   003296  3251               	rrcf	(??_powf+6)^0,f,c
  6399   003298  3250               	rrcf	(??_powf+5)^0,f,c
  6400   00329A  2E4B               	decfsz	??_powf^0,f,c
  6401   00329C  EF43  F019         	goto	u4055
  6402   0032A0                     u4057:
  6403   0032A0  C050  F17C         	movff	??_powf+5,powf@n
  6404   0032A4  C051  F17D         	movff	??_powf+6,powf@n+1
  6405   0032A8  C052  F17E         	movff	??_powf+7,powf@n+2
  6406   0032AC  C053  F17F         	movff	??_powf+8,powf@n+3
  6407   0032B0  0101               	movlb	1	; () banked
  6408   0032B2  BFAF               	btfsc	(powf@j+3)& (0+255),7,b
  6409   0032B4  EF60  F019         	goto	u4060
  6410   0032B8  EF5E  F019         	goto	u4061
  6411   0032BC                     u4061:
  6412   0032BC  EF68  F019         	goto	l4061
  6413   0032C0                     u4060:
  6414   0032C0                     
  6415                           ; BSR set to: 1
  6416   0032C0  1F7F               	comf	(powf@n+3)& (0+255),f,b
  6417   0032C2  1F7E               	comf	(powf@n+2)& (0+255),f,b
  6418   0032C4  1F7D               	comf	(powf@n+1)& (0+255),f,b
  6419   0032C6  6D7C               	negf	powf@n& (0+255),b
  6420   0032C8  0E00               	movlw	0
  6421   0032CA  237D               	addwfc	(powf@n+1)& (0+255),f,b
  6422   0032CC  237E               	addwfc	(powf@n+2)& (0+255),f,b
  6423   0032CE  237F               	addwfc	(powf@n+3)& (0+255),f,b
  6424   0032D0                     l4061:
  6425                           
  6426                           ; BSR set to: 1
  6427   0032D0  C19C  F02A         	movff	powf@p_h,___flsub@b
  6428   0032D4  C19D  F02B         	movff	powf@p_h+1,___flsub@b+1
  6429   0032D8  C19E  F02C         	movff	powf@p_h+2,___flsub@b+2
  6430   0032DC  C19F  F02D         	movff	powf@p_h+3,___flsub@b+3
  6431   0032E0  C1B0  F02E         	movff	powf@t,___flsub@a
  6432   0032E4  C1B1  F02F         	movff	powf@t+1,___flsub@a+1
  6433   0032E8  C1B2  F030         	movff	powf@t+2,___flsub@a+2
  6434   0032EC  C1B3  F031         	movff	powf@t+3,___flsub@a+3
  6435   0032F0  EC14  F030         	call	___flsub	;wreg free
  6436   0032F4  C02A  F19C         	movff	?___flsub,powf@p_h
  6437   0032F8  C02B  F19D         	movff	?___flsub+1,powf@p_h+1
  6438   0032FC  C02C  F19E         	movff	?___flsub+2,powf@p_h+2
  6439   003300  C02D  F19F         	movff	?___flsub+3,powf@p_h+3
  6440   003304                     l4063:
  6441   003304  C164  F001         	movff	powf@p_l,___fladd@b
  6442   003308  C165  F002         	movff	powf@p_l+1,___fladd@b+1
  6443   00330C  C166  F003         	movff	powf@p_l+2,___fladd@b+2
  6444   003310  C167  F004         	movff	powf@p_l+3,___fladd@b+3
  6445   003314  C19C  F005         	movff	powf@p_h,___fladd@a
  6446   003318  C19D  F006         	movff	powf@p_h+1,___fladd@a+1
  6447   00331C  C19E  F007         	movff	powf@p_h+2,___fladd@a+2
  6448   003320  C19F  F008         	movff	powf@p_h+3,___fladd@a+3
  6449   003324  EC23  F022         	call	___fladd	;wreg free
  6450   003328  C001  F1B0         	movff	?___fladd,powf@t
  6451   00332C  C002  F1B1         	movff	?___fladd+1,powf@t+1
  6452   003330  C003  F1B2         	movff	?___fladd+2,powf@t+2
  6453   003334  C004  F1B3         	movff	?___fladd+3,powf@t+3
  6454   003338  C1B0  F1B8         	movff	powf@t,powf@__xc8_float_word
  6455   00333C  C1B1  F1B9         	movff	powf@t+1,powf@__xc8_float_word+1
  6456   003340  C1B2  F1BA         	movff	powf@t+2,powf@__xc8_float_word+2
  6457   003344  C1B3  F1BB         	movff	powf@t+3,powf@__xc8_float_word+3
  6458   003348  C1B8  F190         	movff	powf@__xc8_float_word,powf@is
  6459   00334C  C1B9  F191         	movff	powf@__xc8_float_word+1,powf@is+1
  6460   003350  C1BA  F192         	movff	powf@__xc8_float_word+2,powf@is+2
  6461   003354  C1BB  F193         	movff	powf@__xc8_float_word+3,powf@is+3
  6462   003358  0E00               	movlw	0
  6463   00335A  0101               	movlb	1	; () banked
  6464   00335C  1590               	andwf	powf@is& (0+255),w,b
  6465   00335E  6FB8               	movwf	powf@__xc8_float_word& (0+255),b
  6466   003360  0E80               	movlw	128
  6467   003362  1591               	andwf	(powf@is+1)& (0+255),w,b
  6468   003364  6FB9               	movwf	(powf@__xc8_float_word+1)& (0+255),b
  6469   003366  0EFF               	movlw	255
  6470   003368  1592               	andwf	(powf@is+2)& (0+255),w,b
  6471   00336A  6FBA               	movwf	(powf@__xc8_float_word+2)& (0+255),b
  6472   00336C  0EFF               	movlw	255
  6473   00336E  1593               	andwf	(powf@is+3)& (0+255),w,b
  6474   003370  6FBB               	movwf	(powf@__xc8_float_word+3)& (0+255),b
  6475   003372                     
  6476                           ; BSR set to: 1
  6477   003372  C1B8  F1B0         	movff	powf@__xc8_float_word,powf@t
  6478   003376  C1B9  F1B1         	movff	powf@__xc8_float_word+1,powf@t+1
  6479   00337A  C1BA  F1B2         	movff	powf@__xc8_float_word+2,powf@t+2
  6480   00337E  C1BB  F1B3         	movff	powf@__xc8_float_word+3,powf@t+3
  6481   003382                     
  6482                           ; BSR set to: 1
  6483   003382  C1B0  F011         	movff	powf@t,___flmul@b
  6484   003386  C1B1  F012         	movff	powf@t+1,___flmul@b+1
  6485   00338A  C1B2  F013         	movff	powf@t+2,___flmul@b+2
  6486   00338E  C1B3  F014         	movff	powf@t+3,___flmul@b+3
  6487   003392  0E00               	movlw	0
  6488   003394  6E15               	movwf	___flmul@a^0,c
  6489   003396  0E72               	movlw	114
  6490   003398  6E16               	movwf	(___flmul@a+1)^0,c
  6491   00339A  0E31               	movlw	49
  6492   00339C  6E17               	movwf	(___flmul@a+2)^0,c
  6493   00339E  0E3F               	movlw	63
  6494   0033A0  6E18               	movwf	(___flmul@a+3)^0,c
  6495   0033A2  EC83  F024         	call	___flmul	;wreg free
  6496   0033A6  C011  F174         	movff	?___flmul,powf@u
  6497   0033AA  C012  F175         	movff	?___flmul+1,powf@u+1
  6498   0033AE  C013  F176         	movff	?___flmul+2,powf@u+2
  6499   0033B2  C014  F177         	movff	?___flmul+3,powf@u+3
  6500   0033B6  C19C  F02E         	movff	powf@p_h,___flsub@a
  6501   0033BA  C19D  F02F         	movff	powf@p_h+1,___flsub@a+1
  6502   0033BE  C19E  F030         	movff	powf@p_h+2,___flsub@a+2
  6503   0033C2  C19F  F031         	movff	powf@p_h+3,___flsub@a+3
  6504   0033C6  C1B0  F02A         	movff	powf@t,___flsub@b
  6505   0033CA  C1B1  F02B         	movff	powf@t+1,___flsub@b+1
  6506   0033CE  C1B2  F02C         	movff	powf@t+2,___flsub@b+2
  6507   0033D2  C1B3  F02D         	movff	powf@t+3,___flsub@b+3
  6508   0033D6  EC14  F030         	call	___flsub	;wreg free
  6509   0033DA  C02A  F194         	movff	?___flsub,_powf$1354
  6510   0033DE  C02B  F195         	movff	?___flsub+1,_powf$1354+1
  6511   0033E2  C02C  F196         	movff	?___flsub+2,_powf$1354+2
  6512   0033E6  C02D  F197         	movff	?___flsub+3,_powf$1354+3
  6513   0033EA  0E18               	movlw	24
  6514   0033EC  6E15               	movwf	___flmul@a^0,c
  6515   0033EE  0E72               	movlw	114
  6516   0033F0  6E16               	movwf	(___flmul@a+1)^0,c
  6517   0033F2  0E31               	movlw	49
  6518   0033F4  6E17               	movwf	(___flmul@a+2)^0,c
  6519   0033F6  0E3F               	movlw	63
  6520   0033F8  6E18               	movwf	(___flmul@a+3)^0,c
  6521   0033FA  C194  F02E         	movff	_powf$1354,___flsub@a
  6522   0033FE  C195  F02F         	movff	_powf$1354+1,___flsub@a+1
  6523   003402  C196  F030         	movff	_powf$1354+2,___flsub@a+2
  6524   003406  C197  F031         	movff	_powf$1354+3,___flsub@a+3
  6525   00340A  C164  F02A         	movff	powf@p_l,___flsub@b
  6526   00340E  C165  F02B         	movff	powf@p_l+1,___flsub@b+1
  6527   003412  C166  F02C         	movff	powf@p_l+2,___flsub@b+2
  6528   003416  C167  F02D         	movff	powf@p_l+3,___flsub@b+3
  6529   00341A  EC14  F030         	call	___flsub	;wreg free
  6530   00341E  C02A  F011         	movff	?___flsub,___flmul@b
  6531   003422  C02B  F012         	movff	?___flsub+1,___flmul@b+1
  6532   003426  C02C  F013         	movff	?___flsub+2,___flmul@b+2
  6533   00342A  C02D  F014         	movff	?___flsub+3,___flmul@b+3
  6534   00342E  EC83  F024         	call	___flmul	;wreg free
  6535   003432  C011  F114         	movff	?___flmul,_powf$1364
  6536   003436  C012  F115         	movff	?___flmul+1,_powf$1364+1
  6537   00343A  C013  F116         	movff	?___flmul+2,_powf$1364+2
  6538   00343E  C014  F117         	movff	?___flmul+3,_powf$1364+3
  6539   003442  C114  F001         	movff	_powf$1364,___fladd@b
  6540   003446  C115  F002         	movff	_powf$1364+1,___fladd@b+1
  6541   00344A  C116  F003         	movff	_powf$1364+2,___fladd@b+2
  6542   00344E  C117  F004         	movff	_powf$1364+3,___fladd@b+3
  6543   003452  0E8C               	movlw	140
  6544   003454  6E15               	movwf	___flmul@a^0,c
  6545   003456  0EBE               	movlw	190
  6546   003458  6E16               	movwf	(___flmul@a+1)^0,c
  6547   00345A  0EBF               	movlw	191
  6548   00345C  6E17               	movwf	(___flmul@a+2)^0,c
  6549   00345E  0E35               	movlw	53
  6550   003460  6E18               	movwf	(___flmul@a+3)^0,c
  6551   003462  C1B0  F011         	movff	powf@t,___flmul@b
  6552   003466  C1B1  F012         	movff	powf@t+1,___flmul@b+1
  6553   00346A  C1B2  F013         	movff	powf@t+2,___flmul@b+2
  6554   00346E  C1B3  F014         	movff	powf@t+3,___flmul@b+3
  6555   003472  EC83  F024         	call	___flmul	;wreg free
  6556   003476  C011  F005         	movff	?___flmul,___fladd@a
  6557   00347A  C012  F006         	movff	?___flmul+1,___fladd@a+1
  6558   00347E  C013  F007         	movff	?___flmul+2,___fladd@a+2
  6559   003482  C014  F008         	movff	?___flmul+3,___fladd@a+3
  6560   003486  EC23  F022         	call	___fladd	;wreg free
  6561   00348A  C001  F178         	movff	?___fladd,powf@v
  6562   00348E  C002  F179         	movff	?___fladd+1,powf@v+1
  6563   003492  C003  F17A         	movff	?___fladd+2,powf@v+2
  6564   003496  C004  F17B         	movff	?___fladd+3,powf@v+3
  6565   00349A  C174  F001         	movff	powf@u,___fladd@b
  6566   00349E  C175  F002         	movff	powf@u+1,___fladd@b+1
  6567   0034A2  C176  F003         	movff	powf@u+2,___fladd@b+2
  6568   0034A6  C177  F004         	movff	powf@u+3,___fladd@b+3
  6569   0034AA  C178  F005         	movff	powf@v,___fladd@a
  6570   0034AE  C179  F006         	movff	powf@v+1,___fladd@a+1
  6571   0034B2  C17A  F007         	movff	powf@v+2,___fladd@a+2
  6572   0034B6  C17B  F008         	movff	powf@v+3,___fladd@a+3
  6573   0034BA  EC23  F022         	call	___fladd	;wreg free
  6574   0034BE  C001  F1B4         	movff	?___fladd,powf@z
  6575   0034C2  C002  F1B5         	movff	?___fladd+1,powf@z+1
  6576   0034C6  C003  F1B6         	movff	?___fladd+2,powf@z+2
  6577   0034CA  C004  F1B7         	movff	?___fladd+3,powf@z+3
  6578   0034CE  C174  F02E         	movff	powf@u,___flsub@a
  6579   0034D2  C175  F02F         	movff	powf@u+1,___flsub@a+1
  6580   0034D6  C176  F030         	movff	powf@u+2,___flsub@a+2
  6581   0034DA  C177  F031         	movff	powf@u+3,___flsub@a+3
  6582   0034DE  C1B4  F02A         	movff	powf@z,___flsub@b
  6583   0034E2  C1B5  F02B         	movff	powf@z+1,___flsub@b+1
  6584   0034E6  C1B6  F02C         	movff	powf@z+2,___flsub@b+2
  6585   0034EA  C1B7  F02D         	movff	powf@z+3,___flsub@b+3
  6586   0034EE  EC14  F030         	call	___flsub	;wreg free
  6587   0034F2  C02A  F194         	movff	?___flsub,_powf$1354
  6588   0034F6  C02B  F195         	movff	?___flsub+1,_powf$1354+1
  6589   0034FA  C02C  F196         	movff	?___flsub+2,_powf$1354+2
  6590   0034FE  C02D  F197         	movff	?___flsub+3,_powf$1354+3
  6591   003502  C178  F02A         	movff	powf@v,___flsub@b
  6592   003506  C179  F02B         	movff	powf@v+1,___flsub@b+1
  6593   00350A  C17A  F02C         	movff	powf@v+2,___flsub@b+2
  6594   00350E  C17B  F02D         	movff	powf@v+3,___flsub@b+3
  6595   003512  C194  F02E         	movff	_powf$1354,___flsub@a
  6596   003516  C195  F02F         	movff	_powf$1354+1,___flsub@a+1
  6597   00351A  C196  F030         	movff	_powf$1354+2,___flsub@a+2
  6598   00351E  C197  F031         	movff	_powf$1354+3,___flsub@a+3
  6599   003522  EC14  F030         	call	___flsub	;wreg free
  6600   003526  C02A  F144         	movff	?___flsub,powf@w
  6601   00352A  C02B  F145         	movff	?___flsub+1,powf@w+1
  6602   00352E  C02C  F146         	movff	?___flsub+2,powf@w+2
  6603   003532  C02D  F147         	movff	?___flsub+3,powf@w+3
  6604   003536  C1B4  F011         	movff	powf@z,___flmul@b
  6605   00353A  C1B5  F012         	movff	powf@z+1,___flmul@b+1
  6606   00353E  C1B6  F013         	movff	powf@z+2,___flmul@b+2
  6607   003542  C1B7  F014         	movff	powf@z+3,___flmul@b+3
  6608   003546  C1B4  F015         	movff	powf@z,___flmul@a
  6609   00354A  C1B5  F016         	movff	powf@z+1,___flmul@a+1
  6610   00354E  C1B6  F017         	movff	powf@z+2,___flmul@a+2
  6611   003552  C1B7  F018         	movff	powf@z+3,___flmul@a+3
  6612   003556  EC83  F024         	call	___flmul	;wreg free
  6613   00355A  C011  F1B0         	movff	?___flmul,powf@t
  6614   00355E  C012  F1B1         	movff	?___flmul+1,powf@t+1
  6615   003562  C013  F1B2         	movff	?___flmul+2,powf@t+2
  6616   003566  C014  F1B3         	movff	?___flmul+3,powf@t+3
  6617   00356A  0E0E               	movlw	14
  6618   00356C  6E05               	movwf	___fladd@a^0,c
  6619   00356E  0EEA               	movlw	234
  6620   003570  6E06               	movwf	(___fladd@a+1)^0,c
  6621   003572  0EDD               	movlw	221
  6622   003574  6E07               	movwf	(___fladd@a+2)^0,c
  6623   003576  0EB5               	movlw	181
  6624   003578  6E08               	movwf	(___fladd@a+3)^0,c
  6625   00357A  0E4C               	movlw	76
  6626   00357C  6E15               	movwf	___flmul@a^0,c
  6627   00357E  0EBB               	movlw	187
  6628   003580  6E16               	movwf	(___flmul@a+1)^0,c
  6629   003582  0E31               	movlw	49
  6630   003584  6E17               	movwf	(___flmul@a+2)^0,c
  6631   003586  0E33               	movlw	51
  6632   003588  6E18               	movwf	(___flmul@a+3)^0,c
  6633   00358A  C1B0  F011         	movff	powf@t,___flmul@b
  6634   00358E  C1B1  F012         	movff	powf@t+1,___flmul@b+1
  6635   003592  C1B2  F013         	movff	powf@t+2,___flmul@b+2
  6636   003596  C1B3  F014         	movff	powf@t+3,___flmul@b+3
  6637   00359A  EC83  F024         	call	___flmul	;wreg free
  6638   00359E  C011  F001         	movff	?___flmul,___fladd@b
  6639   0035A2  C012  F002         	movff	?___flmul+1,___fladd@b+1
  6640   0035A6  C013  F003         	movff	?___flmul+2,___fladd@b+2
  6641   0035AA  C014  F004         	movff	?___flmul+3,___fladd@b+3
  6642   0035AE  EC23  F022         	call	___fladd	;wreg free
  6643   0035B2  C001  F1A4         	movff	?___fladd,_powf$1351
  6644   0035B6  C002  F1A5         	movff	?___fladd+1,_powf$1351+1
  6645   0035BA  C003  F1A6         	movff	?___fladd+2,_powf$1351+2
  6646   0035BE  C004  F1A7         	movff	?___fladd+3,_powf$1351+3
  6647   0035C2  0E55               	movlw	85
  6648   0035C4  6E05               	movwf	___fladd@a^0,c
  6649   0035C6  0EB3               	movlw	179
  6650   0035C8  6E06               	movwf	(___fladd@a+1)^0,c
  6651   0035CA  0E8A               	movlw	138
  6652   0035CC  6E07               	movwf	(___fladd@a+2)^0,c
  6653   0035CE  0E38               	movlw	56
  6654   0035D0  6E08               	movwf	(___fladd@a+3)^0,c
  6655   0035D2  C1B0  F015         	movff	powf@t,___flmul@a
  6656   0035D6  C1B1  F016         	movff	powf@t+1,___flmul@a+1
  6657   0035DA  C1B2  F017         	movff	powf@t+2,___flmul@a+2
  6658   0035DE  C1B3  F018         	movff	powf@t+3,___flmul@a+3
  6659   0035E2  C1A4  F011         	movff	_powf$1351,___flmul@b
  6660   0035E6  C1A5  F012         	movff	_powf$1351+1,___flmul@b+1
  6661   0035EA  C1A6  F013         	movff	_powf$1351+2,___flmul@b+2
  6662   0035EE  C1A7  F014         	movff	_powf$1351+3,___flmul@b+3
  6663   0035F2  EC83  F024         	call	___flmul	;wreg free
  6664   0035F6  C011  F001         	movff	?___flmul,___fladd@b
  6665   0035FA  C012  F002         	movff	?___flmul+1,___fladd@b+1
  6666   0035FE  C013  F003         	movff	?___flmul+2,___fladd@b+2
  6667   003602  C014  F004         	movff	?___flmul+3,___fladd@b+3
  6668   003606  EC23  F022         	call	___fladd	;wreg free
  6669   00360A  C001  F154         	movff	?___fladd,_powf$1352
  6670   00360E  C002  F155         	movff	?___fladd+1,_powf$1352+1
  6671   003612  C003  F156         	movff	?___fladd+2,_powf$1352+2
  6672   003616  C004  F157         	movff	?___fladd+3,_powf$1352+3
  6673   00361A  0E61               	movlw	97
  6674   00361C  6E05               	movwf	___fladd@a^0,c
  6675   00361E  0E0B               	movlw	11
  6676   003620  6E06               	movwf	(___fladd@a+1)^0,c
  6677   003622  0E36               	movlw	54
  6678   003624  6E07               	movwf	(___fladd@a+2)^0,c
  6679   003626  0EBB               	movlw	187
  6680   003628  6E08               	movwf	(___fladd@a+3)^0,c
  6681   00362A  C1B0  F015         	movff	powf@t,___flmul@a
  6682   00362E  C1B1  F016         	movff	powf@t+1,___flmul@a+1
  6683   003632  C1B2  F017         	movff	powf@t+2,___flmul@a+2
  6684   003636  C1B3  F018         	movff	powf@t+3,___flmul@a+3
  6685   00363A  C154  F011         	movff	_powf$1352,___flmul@b
  6686   00363E  C155  F012         	movff	_powf$1352+1,___flmul@b+1
  6687   003642  C156  F013         	movff	_powf$1352+2,___flmul@b+2
  6688   003646  C157  F014         	movff	_powf$1352+3,___flmul@b+3
  6689   00364A  EC83  F024         	call	___flmul	;wreg free
  6690   00364E  C011  F001         	movff	?___flmul,___fladd@b
  6691   003652  C012  F002         	movff	?___flmul+1,___fladd@b+1
  6692   003656  C013  F003         	movff	?___flmul+2,___fladd@b+2
  6693   00365A  C014  F004         	movff	?___flmul+3,___fladd@b+3
  6694   00365E  EC23  F022         	call	___fladd	;wreg free
  6695   003662  C001  F148         	movff	?___fladd,_powf$1353
  6696   003666  C002  F149         	movff	?___fladd+1,_powf$1353+1
  6697   00366A  C003  F14A         	movff	?___fladd+2,_powf$1353+2
  6698   00366E  C004  F14B         	movff	?___fladd+3,_powf$1353+3
  6699   003672  0EAB               	movlw	171
  6700   003674  6E05               	movwf	___fladd@a^0,c
  6701   003676  0EAA               	movlw	170
  6702   003678  6E06               	movwf	(___fladd@a+1)^0,c
  6703   00367A  0E2A               	movlw	42
  6704   00367C  6E07               	movwf	(___fladd@a+2)^0,c
  6705   00367E  0E3E               	movlw	62
  6706   003680  6E08               	movwf	(___fladd@a+3)^0,c
  6707   003682  C1B0  F015         	movff	powf@t,___flmul@a
  6708   003686  C1B1  F016         	movff	powf@t+1,___flmul@a+1
  6709   00368A  C1B2  F017         	movff	powf@t+2,___flmul@a+2
  6710   00368E  C1B3  F018         	movff	powf@t+3,___flmul@a+3
  6711   003692  C148  F011         	movff	_powf$1353,___flmul@b
  6712   003696  C149  F012         	movff	_powf$1353+1,___flmul@b+1
  6713   00369A  C14A  F013         	movff	_powf$1353+2,___flmul@b+2
  6714   00369E  C14B  F014         	movff	_powf$1353+3,___flmul@b+3
  6715   0036A2  EC83  F024         	call	___flmul	;wreg free
  6716   0036A6  C011  F001         	movff	?___flmul,___fladd@b
  6717   0036AA  C012  F002         	movff	?___flmul+1,___fladd@b+1
  6718   0036AE  C013  F003         	movff	?___flmul+2,___fladd@b+2
  6719   0036B2  C014  F004         	movff	?___flmul+3,___fladd@b+3
  6720   0036B6  EC23  F022         	call	___fladd	;wreg free
  6721   0036BA  C001  F138         	movff	?___fladd,_powf$1355
  6722   0036BE  C002  F139         	movff	?___fladd+1,_powf$1355+1
  6723   0036C2  C003  F13A         	movff	?___fladd+2,_powf$1355+2
  6724   0036C6  C004  F13B         	movff	?___fladd+3,_powf$1355+3
  6725   0036CA  C1B4  F02A         	movff	powf@z,___flsub@b
  6726   0036CE  C1B5  F02B         	movff	powf@z+1,___flsub@b+1
  6727   0036D2  C1B6  F02C         	movff	powf@z+2,___flsub@b+2
  6728   0036D6  C1B7  F02D         	movff	powf@z+3,___flsub@b+3
  6729   0036DA  C1B0  F015         	movff	powf@t,___flmul@a
  6730   0036DE  C1B1  F016         	movff	powf@t+1,___flmul@a+1
  6731   0036E2  C1B2  F017         	movff	powf@t+2,___flmul@a+2
  6732   0036E6  C1B3  F018         	movff	powf@t+3,___flmul@a+3
  6733   0036EA  C138  F011         	movff	_powf$1355,___flmul@b
  6734   0036EE  C139  F012         	movff	_powf$1355+1,___flmul@b+1
  6735   0036F2  C13A  F013         	movff	_powf$1355+2,___flmul@b+2
  6736   0036F6  C13B  F014         	movff	_powf$1355+3,___flmul@b+3
  6737   0036FA  EC83  F024         	call	___flmul	;wreg free
  6738   0036FE  C011  F02E         	movff	?___flmul,___flsub@a
  6739   003702  C012  F02F         	movff	?___flmul+1,___flsub@a+1
  6740   003706  C013  F030         	movff	?___flmul+2,___flsub@a+2
  6741   00370A  C014  F031         	movff	?___flmul+3,___flsub@a+3
  6742   00370E  EC14  F030         	call	___flsub	;wreg free
  6743   003712  C02A  F180         	movff	?___flsub,powf@t1
  6744   003716  C02B  F181         	movff	?___flsub+1,powf@t1+1
  6745   00371A  C02C  F182         	movff	?___flsub+2,powf@t1+2
  6746   00371E  C02D  F183         	movff	?___flsub+3,powf@t1+3
  6747   003722  0E00               	movlw	0
  6748   003724  6E05               	movwf	___fladd@a^0,c
  6749   003726  0E00               	movlw	0
  6750   003728  6E06               	movwf	(___fladd@a+1)^0,c
  6751   00372A  0E00               	movlw	0
  6752   00372C  6E07               	movwf	(___fladd@a+2)^0,c
  6753   00372E  0EC0               	movlw	192
  6754   003730  6E08               	movwf	(___fladd@a+3)^0,c
  6755   003732  C180  F001         	movff	powf@t1,___fladd@b
  6756   003736  C181  F002         	movff	powf@t1+1,___fladd@b+1
  6757   00373A  C182  F003         	movff	powf@t1+2,___fladd@b+2
  6758   00373E  C183  F004         	movff	powf@t1+3,___fladd@b+3
  6759   003742  EC23  F022         	call	___fladd	;wreg free
  6760   003746  C001  F036         	movff	?___fladd,___fldiv@a
  6761   00374A  C002  F037         	movff	?___fladd+1,___fldiv@a+1
  6762   00374E  C003  F038         	movff	?___fladd+2,___fldiv@a+2
  6763   003752  C004  F039         	movff	?___fladd+3,___fldiv@a+3
  6764   003756  C180  F015         	movff	powf@t1,___flmul@a
  6765   00375A  C181  F016         	movff	powf@t1+1,___flmul@a+1
  6766   00375E  C182  F017         	movff	powf@t1+2,___flmul@a+2
  6767   003762  C183  F018         	movff	powf@t1+3,___flmul@a+3
  6768   003766  C1B4  F011         	movff	powf@z,___flmul@b
  6769   00376A  C1B5  F012         	movff	powf@z+1,___flmul@b+1
  6770   00376E  C1B6  F013         	movff	powf@z+2,___flmul@b+2
  6771   003772  C1B7  F014         	movff	powf@z+3,___flmul@b+3
  6772   003776  EC83  F024         	call	___flmul	;wreg free
  6773   00377A  C011  F032         	movff	?___flmul,___fldiv@b
  6774   00377E  C012  F033         	movff	?___flmul+1,___fldiv@b+1
  6775   003782  C013  F034         	movff	?___flmul+2,___fldiv@b+2
  6776   003786  C014  F035         	movff	?___flmul+3,___fldiv@b+3
  6777   00378A  EC98  F026         	call	___fldiv	;wreg free
  6778   00378E  C032  F13C         	movff	?___fldiv,_powf$1359
  6779   003792  C033  F13D         	movff	?___fldiv+1,_powf$1359+1
  6780   003796  C034  F13E         	movff	?___fldiv+2,_powf$1359+2
  6781   00379A  C035  F13F         	movff	?___fldiv+3,_powf$1359+3
  6782   00379E  C144  F005         	movff	powf@w,___fladd@a
  6783   0037A2  C145  F006         	movff	powf@w+1,___fladd@a+1
  6784   0037A6  C146  F007         	movff	powf@w+2,___fladd@a+2
  6785   0037AA  C147  F008         	movff	powf@w+3,___fladd@a+3
  6786   0037AE  C144  F015         	movff	powf@w,___flmul@a
  6787   0037B2  C145  F016         	movff	powf@w+1,___flmul@a+1
  6788   0037B6  C146  F017         	movff	powf@w+2,___flmul@a+2
  6789   0037BA  C147  F018         	movff	powf@w+3,___flmul@a+3
  6790   0037BE  C1B4  F011         	movff	powf@z,___flmul@b
  6791   0037C2  C1B5  F012         	movff	powf@z+1,___flmul@b+1
  6792   0037C6  C1B6  F013         	movff	powf@z+2,___flmul@b+2
  6793   0037CA  C1B7  F014         	movff	powf@z+3,___flmul@b+3
  6794   0037CE  EC83  F024         	call	___flmul	;wreg free
  6795   0037D2  C011  F001         	movff	?___flmul,___fladd@b
  6796   0037D6  C012  F002         	movff	?___flmul+1,___fladd@b+1
  6797   0037DA  C013  F003         	movff	?___flmul+2,___fladd@b+2
  6798   0037DE  C014  F004         	movff	?___flmul+3,___fladd@b+3
  6799   0037E2  EC23  F022         	call	___fladd	;wreg free
  6800   0037E6  C001  F118         	movff	?___fladd,_powf$1365
  6801   0037EA  C002  F119         	movff	?___fladd+1,_powf$1365+1
  6802   0037EE  C003  F11A         	movff	?___fladd+2,_powf$1365+2
  6803   0037F2  C004  F11B         	movff	?___fladd+3,_powf$1365+3
  6804   0037F6  C13C  F02A         	movff	_powf$1359,___flsub@b
  6805   0037FA  C13D  F02B         	movff	_powf$1359+1,___flsub@b+1
  6806   0037FE  C13E  F02C         	movff	_powf$1359+2,___flsub@b+2
  6807   003802  C13F  F02D         	movff	_powf$1359+3,___flsub@b+3
  6808   003806  C118  F02E         	movff	_powf$1365,___flsub@a
  6809   00380A  C119  F02F         	movff	_powf$1365+1,___flsub@a+1
  6810   00380E  C11A  F030         	movff	_powf$1365+2,___flsub@a+2
  6811   003812  C11B  F031         	movff	_powf$1365+3,___flsub@a+3
  6812   003816  EC14  F030         	call	___flsub	;wreg free
  6813   00381A  C02A  F14C         	movff	?___flsub,powf@r
  6814   00381E  C02B  F14D         	movff	?___flsub+1,powf@r+1
  6815   003822  C02C  F14E         	movff	?___flsub+2,powf@r+2
  6816   003826  C02D  F14F         	movff	?___flsub+3,powf@r+3
  6817   00382A  C1B4  F02E         	movff	powf@z,___flsub@a
  6818   00382E  C1B5  F02F         	movff	powf@z+1,___flsub@a+1
  6819   003832  C1B6  F030         	movff	powf@z+2,___flsub@a+2
  6820   003836  C1B7  F031         	movff	powf@z+3,___flsub@a+3
  6821   00383A  C14C  F02A         	movff	powf@r,___flsub@b
  6822   00383E  C14D  F02B         	movff	powf@r+1,___flsub@b+1
  6823   003842  C14E  F02C         	movff	powf@r+2,___flsub@b+2
  6824   003846  C14F  F02D         	movff	powf@r+3,___flsub@b+3
  6825   00384A  EC14  F030         	call	___flsub	;wreg free
  6826   00384E  C02A  F194         	movff	?___flsub,_powf$1354
  6827   003852  C02B  F195         	movff	?___flsub+1,_powf$1354+1
  6828   003856  C02C  F196         	movff	?___flsub+2,_powf$1354+2
  6829   00385A  C02D  F197         	movff	?___flsub+3,_powf$1354+3
  6830   00385E  0E00               	movlw	0
  6831   003860  6E2A               	movwf	___flsub@b^0,c
  6832   003862  0E00               	movlw	0
  6833   003864  6E2B               	movwf	(___flsub@b+1)^0,c
  6834   003866  0E80               	movlw	128
  6835   003868  6E2C               	movwf	(___flsub@b+2)^0,c
  6836   00386A  0E3F               	movlw	63
  6837   00386C  6E2D               	movwf	(___flsub@b+3)^0,c
  6838   00386E  C194  F02E         	movff	_powf$1354,___flsub@a
  6839   003872  C195  F02F         	movff	_powf$1354+1,___flsub@a+1
  6840   003876  C196  F030         	movff	_powf$1354+2,___flsub@a+2
  6841   00387A  C197  F031         	movff	_powf$1354+3,___flsub@a+3
  6842   00387E  EC14  F030         	call	___flsub	;wreg free
  6843   003882  C02A  F1B4         	movff	?___flsub,powf@z
  6844   003886  C02B  F1B5         	movff	?___flsub+1,powf@z+1
  6845   00388A  C02C  F1B6         	movff	?___flsub+2,powf@z+2
  6846   00388E  C02D  F1B7         	movff	?___flsub+3,powf@z+3
  6847   003892  C1B4  F1B8         	movff	powf@z,powf@__xc8_float_word
  6848   003896  C1B5  F1B9         	movff	powf@z+1,powf@__xc8_float_word+1
  6849   00389A  C1B6  F1BA         	movff	powf@z+2,powf@__xc8_float_word+2
  6850   00389E  C1B7  F1BB         	movff	powf@z+3,powf@__xc8_float_word+3
  6851   0038A2  C1B8  F1AC         	movff	powf@__xc8_float_word,powf@j
  6852   0038A6  C1B9  F1AD         	movff	powf@__xc8_float_word+1,powf@j+1
  6853   0038AA  C1BA  F1AE         	movff	powf@__xc8_float_word+2,powf@j+2
  6854   0038AE  C1BB  F1AF         	movff	powf@__xc8_float_word+3,powf@j+3
  6855   0038B2  C17C  F04B         	movff	powf@n,??_powf
  6856   0038B6  C17D  F04C         	movff	powf@n+1,??_powf+1
  6857   0038BA  C17E  F04D         	movff	powf@n+2,??_powf+2
  6858   0038BE  C17F  F04E         	movff	powf@n+3,??_powf+3
  6859   0038C2  0E17               	movlw	23
  6860   0038C4                     u4075:
  6861   0038C4  90D8               	bcf	status,0,c
  6862   0038C6  364B               	rlcf	??_powf^0,f,c
  6863   0038C8  364C               	rlcf	(??_powf+1)^0,f,c
  6864   0038CA  364D               	rlcf	(??_powf+2)^0,f,c
  6865   0038CC  364E               	rlcf	(??_powf+3)^0,f,c
  6866   0038CE  2EE8               	decfsz	wreg,f,c
  6867   0038D0  EF62  F01C         	goto	u4075
  6868   0038D4  504B               	movf	??_powf^0,w,c
  6869   0038D6  0101               	movlb	1	; () banked
  6870   0038D8  27AC               	addwf	powf@j& (0+255),f,b
  6871   0038DA  504C               	movf	(??_powf+1)^0,w,c
  6872   0038DC  23AD               	addwfc	(powf@j+1)& (0+255),f,b
  6873   0038DE  504D               	movf	(??_powf+2)^0,w,c
  6874   0038E0  23AE               	addwfc	(powf@j+2)& (0+255),f,b
  6875   0038E2  504E               	movf	(??_powf+3)^0,w,c
  6876   0038E4  23AF               	addwfc	(powf@j+3)& (0+255),f,b
  6877   0038E6                     
  6878                           ; BSR set to: 1
  6879   0038E6  0E17               	movlw	23
  6880   0038E8  6E4B               	movwf	??_powf^0,c
  6881   0038EA  C1AC  F04C         	movff	powf@j,??_powf+1
  6882   0038EE  C1AD  F04D         	movff	powf@j+1,??_powf+2
  6883   0038F2  C1AE  F04E         	movff	powf@j+2,??_powf+3
  6884   0038F6  C1AF  F04F         	movff	powf@j+3,??_powf+4
  6885   0038FA                     u4085:
  6886   0038FA  664B               	tstfsz	??_powf^0,c
  6887   0038FC  EF82  F01C         	goto	u4086
  6888   003900  EF8A  F01C         	goto	u4087
  6889   003904                     u4086:
  6890   003904  344F               	rlcf	(??_powf+4)^0,w,c
  6891   003906  324F               	rrcf	(??_powf+4)^0,f,c
  6892   003908  324E               	rrcf	(??_powf+3)^0,f,c
  6893   00390A  324D               	rrcf	(??_powf+2)^0,f,c
  6894   00390C  324C               	rrcf	(??_powf+1)^0,f,c
  6895   00390E  2E4B               	decfsz	??_powf^0,f,c
  6896   003910  EF7D  F01C         	goto	u4085
  6897   003914                     u4087:
  6898   003914  BE4F               	btfsc	(??_powf+4)^0,7,c
  6899   003916  EF99  F01C         	goto	u4090
  6900   00391A  504F               	movf	(??_powf+4)^0,w,c
  6901   00391C  104E               	iorwf	(??_powf+3)^0,w,c
  6902   00391E  104D               	iorwf	(??_powf+2)^0,w,c
  6903   003920  E106               	bnz	u4091
  6904   003922  044C               	decf	(??_powf+1)^0,w,c
  6905   003924  B0D8               	btfsc	status,0,c
  6906   003926  EF97  F01C         	goto	u4091
  6907   00392A  EF99  F01C         	goto	u4090
  6908   00392E                     u4091:
  6909   00392E  EFB1  F01C         	goto	l1186
  6910   003932                     u4090:
  6911   003932  C1B4  F02A         	movff	powf@z,scalbnf@x
  6912   003936  C1B5  F02B         	movff	powf@z+1,scalbnf@x+1
  6913   00393A  C1B6  F02C         	movff	powf@z+2,scalbnf@x+2
  6914   00393E  C1B7  F02D         	movff	powf@z+3,scalbnf@x+3
  6915   003942  C17C  F02E         	movff	powf@n,scalbnf@n
  6916   003946  C17D  F02F         	movff	powf@n+1,scalbnf@n+1
  6917   00394A  EC65  F028         	call	_scalbnf	;wreg free
  6918   00394E  C02A  F1B4         	movff	?_scalbnf,powf@z
  6919   003952  C02B  F1B5         	movff	?_scalbnf+1,powf@z+1
  6920   003956  C02C  F1B6         	movff	?_scalbnf+2,powf@z+2
  6921   00395A  C02D  F1B7         	movff	?_scalbnf+3,powf@z+3
  6922   00395E  EFC1  F01C         	goto	l4119
  6923   003962                     l1186:
  6924   003962  C1AC  F1B8         	movff	powf@j,powf@__xc8_float_word
  6925   003966  C1AD  F1B9         	movff	powf@j+1,powf@__xc8_float_word+1
  6926   00396A  C1AE  F1BA         	movff	powf@j+2,powf@__xc8_float_word+2
  6927   00396E  C1AF  F1BB         	movff	powf@j+3,powf@__xc8_float_word+3
  6928   003972  C1B8  F1B4         	movff	powf@__xc8_float_word,powf@z
  6929   003976  C1B9  F1B5         	movff	powf@__xc8_float_word+1,powf@z+1
  6930   00397A  C1BA  F1B6         	movff	powf@__xc8_float_word+2,powf@z+2
  6931   00397E  C1BB  F1B7         	movff	powf@__xc8_float_word+3,powf@z+3
  6932   003982                     l4119:
  6933   003982  C188  F011         	movff	powf@sn,___flmul@b
  6934   003986  C189  F012         	movff	powf@sn+1,___flmul@b+1
  6935   00398A  C18A  F013         	movff	powf@sn+2,___flmul@b+2
  6936   00398E  C18B  F014         	movff	powf@sn+3,___flmul@b+3
  6937   003992  C1B4  F015         	movff	powf@z,___flmul@a
  6938   003996  C1B5  F016         	movff	powf@z+1,___flmul@a+1
  6939   00399A  C1B6  F017         	movff	powf@z+2,___flmul@a+2
  6940   00399E  C1B7  F018         	movff	powf@z+3,___flmul@a+3
  6941   0039A2  EC83  F024         	call	___flmul	;wreg free
  6942   0039A6  C011  F084         	movff	?___flmul,?_powf
  6943   0039AA  C012  F085         	movff	?___flmul+1,?_powf+1
  6944   0039AE  C013  F086         	movff	?___flmul+2,?_powf+2
  6945   0039B2  C014  F087         	movff	?___flmul+3,?_powf+3
  6946   0039B6                     l1074:
  6947   0039B6  0012               	return		;funcret
  6948   0039B8                     __end_of_powf:
  6949                           	callstack 0
  6950                           
  6951 ;; *************** function _sqrtf *****************
  6952 ;; Defined at:
  6953 ;;		line 22 in file "C:\Program Files\Microchip\xc8\v2.40\pic\sources\c99\common\sqrtf.c"
  6954 ;; Parameters:    Size  Location     Type
  6955 ;;  x               4   61[COMRAM] float 
  6956 ;; Auto vars:     Size  Location     Type
  6957 ;;  ix              4   32[BANK0 ] long 
  6958 ;;  r               4   28[BANK0 ] unsigned long 
  6959 ;;  m               4   24[BANK0 ] long 
  6960 ;;  z               4   20[BANK0 ] float 
  6961 ;;  t               4   16[BANK0 ] long 
  6962 ;;  q               4   12[BANK0 ] long 
  6963 ;;  __xc8_float_    4    8[BANK0 ] struct .
  6964 ;;  i               4    4[BANK0 ] long 
  6965 ;;  s               4    0[BANK0 ] long 
  6966 ;;  sign            4    0        long 
  6967 ;; Return value:  Size  Location     Type
  6968 ;;                  4   61[COMRAM] float 
  6969 ;; Registers used:
  6970 ;;		wreg, status,2, status,0, prodl, prodh, cstack
  6971 ;; Tracked objects:
  6972 ;;		On entry : 0/0
  6973 ;;		On exit  : 0/0
  6974 ;;		Unchanged: 0/0
  6975 ;; Data sizes:     COMRAM   BANK0   BANK1   BANK2   BANK3   BANK4   BANK5   BANK6   BANK7   BANK8   BANK9  BANK10  BANK1
      +1  BANK12  BANK13  BANK14  BANK15
  6976 ;;      Params:         4       0       0       0       0       0       0       0       0       0       0       0       
      +0       0       0       0       0
  6977 ;;      Locals:         0      36       0       0       0       0       0       0       0       0       0       0       
      +0       0       0       0       0
  6978 ;;      Temps:          5       0       0       0       0       0       0       0       0       0       0       0       
      +0       0       0       0       0
  6979 ;;      Totals:         9      36       0       0       0       0       0       0       0       0       0       0       
      +0       0       0       0       0
  6980 ;;Total ram usage:       45 bytes
  6981 ;; Hardware stack levels used: 1
  6982 ;; Hardware stack levels required when called: 1
  6983 ;; This function calls:
  6984 ;;		___fladd
  6985 ;;		___flge
  6986 ;;		___flmul
  6987 ;;		_nanf
  6988 ;; This function is called by:
  6989 ;;		_powf
  6990 ;; This function uses a non-reentrant model
  6991 ;;
  6992                           
  6993                           	psect	text8
  6994   003F86                     __ptext8:
  6995                           	callstack 0
  6996   003F86                     _sqrtf:
  6997                           	callstack 26
  6998   003F86  C03E  F068         	movff	sqrtf@x,sqrtf@__xc8_float_word
  6999   003F8A  C03F  F069         	movff	sqrtf@x+1,sqrtf@__xc8_float_word+1
  7000   003F8E  C040  F06A         	movff	sqrtf@x+2,sqrtf@__xc8_float_word+2
  7001   003F92  C041  F06B         	movff	sqrtf@x+3,sqrtf@__xc8_float_word+3
  7002   003F96  C068  F080         	movff	sqrtf@__xc8_float_word,sqrtf@ix
  7003   003F9A  C069  F081         	movff	sqrtf@__xc8_float_word+1,sqrtf@ix+1
  7004   003F9E  C06A  F082         	movff	sqrtf@__xc8_float_word+2,sqrtf@ix+2
  7005   003FA2  C06B  F083         	movff	sqrtf@__xc8_float_word+3,sqrtf@ix+3
  7006   003FA6  0E00               	movlw	0
  7007   003FA8  0100               	movlb	0	; () banked
  7008   003FAA  1580               	andwf	sqrtf@ix& (0+255),w,b
  7009   003FAC  6E42               	movwf	??_sqrtf^0,c
  7010   003FAE  0E00               	movlw	0
  7011   003FB0  1581               	andwf	(sqrtf@ix+1)& (0+255),w,b
  7012   003FB2  6E43               	movwf	(??_sqrtf+1)^0,c
  7013   003FB4  0E80               	movlw	128
  7014   003FB6  1582               	andwf	(sqrtf@ix+2)& (0+255),w,b
  7015   003FB8  6E44               	movwf	(??_sqrtf+2)^0,c
  7016   003FBA  0E7F               	movlw	127
  7017   003FBC  1583               	andwf	(sqrtf@ix+3)& (0+255),w,b
  7018   003FBE  6E45               	movwf	(??_sqrtf+3)^0,c
  7019   003FC0  0E80               	movlw	128
  7020   003FC2  1844               	xorwf	(??_sqrtf+2)^0,w,c
  7021   003FC4  E109               	bnz	u3201
  7022   003FC6  0E7F               	movlw	127
  7023   003FC8  1845               	xorwf	(??_sqrtf+3)^0,w,c
  7024   003FCA  1042               	iorwf	??_sqrtf^0,w,c
  7025   003FCC  1043               	iorwf	(??_sqrtf+1)^0,w,c
  7026   003FCE  A4D8               	btfss	status,2,c
  7027   003FD0  EFEC  F01F         	goto	u3201
  7028   003FD4  EFEE  F01F         	goto	u3200
  7029   003FD8                     u3201:
  7030   003FD8  EF1C  F020         	goto	l3507
  7031   003FDC                     u3200:
  7032   003FDC                     
  7033                           ; BSR set to: 0
  7034   003FDC  C03E  F015         	movff	sqrtf@x,___flmul@a
  7035   003FE0  C03F  F016         	movff	sqrtf@x+1,___flmul@a+1
  7036   003FE4  C040  F017         	movff	sqrtf@x+2,___flmul@a+2
  7037   003FE8  C041  F018         	movff	sqrtf@x+3,___flmul@a+3
  7038   003FEC  C03E  F011         	movff	sqrtf@x,___flmul@b
  7039   003FF0  C03F  F012         	movff	sqrtf@x+1,___flmul@b+1
  7040   003FF4  C040  F013         	movff	sqrtf@x+2,___flmul@b+2
  7041   003FF8  C041  F014         	movff	sqrtf@x+3,___flmul@b+3
  7042   003FFC  EC83  F024         	call	___flmul	;wreg free
  7043   004000  C011  F001         	movff	?___flmul,___fladd@b
  7044   004004  C012  F002         	movff	?___flmul+1,___fladd@b+1
  7045   004008  C013  F003         	movff	?___flmul+2,___fladd@b+2
  7046   00400C  C014  F004         	movff	?___flmul+3,___fladd@b+3
  7047   004010  C03E  F005         	movff	sqrtf@x,___fladd@a
  7048   004014  C03F  F006         	movff	sqrtf@x+1,___fladd@a+1
  7049   004018  C040  F007         	movff	sqrtf@x+2,___fladd@a+2
  7050   00401C  C041  F008         	movff	sqrtf@x+3,___fladd@a+3
  7051   004020  EC23  F022         	call	___fladd	;wreg free
  7052   004024  C001  F03E         	movff	?___fladd,?_sqrtf
  7053   004028  C002  F03F         	movff	?___fladd+1,?_sqrtf+1
  7054   00402C  C003  F040         	movff	?___fladd+2,?_sqrtf+2
  7055   004030  C004  F041         	movff	?___fladd+3,?_sqrtf+3
  7056   004034  EF22  F022         	goto	l1216
  7057   004038                     l3507:
  7058                           
  7059                           ; BSR set to: 0
  7060   004038  BF83               	btfsc	(sqrtf@ix+3)& (0+255),7,b
  7061   00403A  EF2B  F020         	goto	u3210
  7062   00403E  5183               	movf	(sqrtf@ix+3)& (0+255),w,b
  7063   004040  1182               	iorwf	(sqrtf@ix+2)& (0+255),w,b
  7064   004042  1181               	iorwf	(sqrtf@ix+1)& (0+255),w,b
  7065   004044  E106               	bnz	u3211
  7066   004046  0580               	decf	sqrtf@ix& (0+255),w,b
  7067   004048  B0D8               	btfsc	status,0,c
  7068   00404A  EF29  F020         	goto	u3211
  7069   00404E  EF2B  F020         	goto	u3210
  7070   004052                     u3211:
  7071   004052  EF67  F020         	goto	l3521
  7072   004056                     u3210:
  7073   004056                     
  7074                           ; BSR set to: 0
  7075   004056  0EFF               	movlw	255
  7076   004058  1580               	andwf	sqrtf@ix& (0+255),w,b
  7077   00405A  6E42               	movwf	??_sqrtf^0,c
  7078   00405C  0EFF               	movlw	255
  7079   00405E  1581               	andwf	(sqrtf@ix+1)& (0+255),w,b
  7080   004060  6E43               	movwf	(??_sqrtf+1)^0,c
  7081   004062  0EFF               	movlw	255
  7082   004064  1582               	andwf	(sqrtf@ix+2)& (0+255),w,b
  7083   004066  6E44               	movwf	(??_sqrtf+2)^0,c
  7084   004068  0E7F               	movlw	127
  7085   00406A  1583               	andwf	(sqrtf@ix+3)& (0+255),w,b
  7086   00406C  6E45               	movwf	(??_sqrtf+3)^0,c
  7087   00406E  5042               	movf	??_sqrtf^0,w,c
  7088   004070  1043               	iorwf	(??_sqrtf+1)^0,w,c
  7089   004072  1044               	iorwf	(??_sqrtf+2)^0,w,c
  7090   004074  1045               	iorwf	(??_sqrtf+3)^0,w,c
  7091   004076  A4D8               	btfss	status,2,c
  7092   004078  EF40  F020         	goto	u3221
  7093   00407C  EF42  F020         	goto	u3220
  7094   004080                     u3221:
  7095   004080  EF4C  F020         	goto	l3513
  7096   004084                     u3220:
  7097   004084                     
  7098                           ; BSR set to: 0
  7099   004084  C03E  F03E         	movff	sqrtf@x,?_sqrtf
  7100   004088  C03F  F03F         	movff	sqrtf@x+1,?_sqrtf+1
  7101   00408C  C040  F040         	movff	sqrtf@x+2,?_sqrtf+2
  7102   004090  C041  F041         	movff	sqrtf@x+3,?_sqrtf+3
  7103   004094  EF22  F022         	goto	l1216
  7104   004098                     l3513:
  7105                           
  7106                           ; BSR set to: 0
  7107   004098  BF83               	btfsc	(sqrtf@ix+3)& (0+255),7,b
  7108   00409A  EF53  F020         	goto	u3230
  7109   00409E  EF51  F020         	goto	u3231
  7110   0040A2                     u3231:
  7111   0040A2  EF67  F020         	goto	l3521
  7112   0040A6                     u3230:
  7113   0040A6                     
  7114                           ; BSR set to: 0
  7115   0040A6  0E00               	movlw	0
  7116   0040A8  6FB7               	movwf	(_errno+1)& (0+255),b
  7117   0040AA  0E21               	movlw	33
  7118   0040AC  6FB6               	movwf	_errno& (0+255),b
  7119   0040AE                     
  7120                           ; BSR set to: 0
  7121   0040AE  0EB4               	movlw	low (STR_1+4)
  7122   0040B0  6E01               	movwf	nanf@s^0,c
  7123   0040B2  0E10               	movlw	high (STR_1+4)
  7124   0040B4  6E02               	movwf	(nanf@s+1)^0,c
  7125   0040B6  ECCE  F030         	call	_nanf	;wreg free
  7126   0040BA  C001  F03E         	movff	?_nanf,?_sqrtf
  7127   0040BE  C002  F03F         	movff	?_nanf+1,?_sqrtf+1
  7128   0040C2  C003  F040         	movff	?_nanf+2,?_sqrtf+2
  7129   0040C6  C004  F041         	movff	?_nanf+3,?_sqrtf+3
  7130   0040CA  EF22  F022         	goto	l1216
  7131   0040CE                     l3521:
  7132                           
  7133                           ; BSR set to: 0
  7134   0040CE  0E17               	movlw	23
  7135   0040D0  6E42               	movwf	??_sqrtf^0,c
  7136   0040D2  C080  F043         	movff	sqrtf@ix,??_sqrtf+1
  7137   0040D6  C081  F044         	movff	sqrtf@ix+1,??_sqrtf+2
  7138   0040DA  C082  F045         	movff	sqrtf@ix+2,??_sqrtf+3
  7139   0040DE  C083  F046         	movff	sqrtf@ix+3,??_sqrtf+4
  7140   0040E2                     u3245:
  7141   0040E2  6642               	tstfsz	??_sqrtf^0,c
  7142   0040E4  EF76  F020         	goto	u3246
  7143   0040E8  EF7E  F020         	goto	u3247
  7144   0040EC                     u3246:
  7145   0040EC  3446               	rlcf	(??_sqrtf+4)^0,w,c
  7146   0040EE  3246               	rrcf	(??_sqrtf+4)^0,f,c
  7147   0040F0  3245               	rrcf	(??_sqrtf+3)^0,f,c
  7148   0040F2  3244               	rrcf	(??_sqrtf+2)^0,f,c
  7149   0040F4  3243               	rrcf	(??_sqrtf+1)^0,f,c
  7150   0040F6  2E42               	decfsz	??_sqrtf^0,f,c
  7151   0040F8  EF71  F020         	goto	u3245
  7152   0040FC                     u3247:
  7153   0040FC  C043  F078         	movff	??_sqrtf+1,sqrtf@m
  7154   004100  C044  F079         	movff	??_sqrtf+2,sqrtf@m+1
  7155   004104  C045  F07A         	movff	??_sqrtf+3,sqrtf@m+2
  7156   004108  C046  F07B         	movff	??_sqrtf+4,sqrtf@m+3
  7157   00410C  0100               	movlb	0	; () banked
  7158   00410E  5178               	movf	sqrtf@m& (0+255),w,b
  7159   004110  1179               	iorwf	(sqrtf@m+1)& (0+255),w,b
  7160   004112  117A               	iorwf	(sqrtf@m+2)& (0+255),w,b
  7161   004114  117B               	iorwf	(sqrtf@m+3)& (0+255),w,b
  7162   004116  A4D8               	btfss	status,2,c
  7163   004118  EF90  F020         	goto	u3251
  7164   00411C  EF92  F020         	goto	u3250
  7165   004120                     u3251:
  7166   004120  EFC2  F020         	goto	l1220
  7167   004124                     u3250:
  7168   004124                     
  7169                           ; BSR set to: 0
  7170   004124  0E00               	movlw	0
  7171   004126  6F64               	movwf	sqrtf@i& (0+255),b
  7172   004128  0E00               	movlw	0
  7173   00412A  6F65               	movwf	(sqrtf@i+1)& (0+255),b
  7174   00412C  0E00               	movlw	0
  7175   00412E  6F66               	movwf	(sqrtf@i+2)& (0+255),b
  7176   004130  0E00               	movlw	0
  7177   004132  6F67               	movwf	(sqrtf@i+3)& (0+255),b
  7178   004134  EFA7  F020         	goto	l3529
  7179   004138                     l3525:
  7180                           
  7181                           ; BSR set to: 0
  7182   004138  90D8               	bcf	status,0,c
  7183   00413A  3780               	rlcf	sqrtf@ix& (0+255),f,b
  7184   00413C  3781               	rlcf	(sqrtf@ix+1)& (0+255),f,b
  7185   00413E  3782               	rlcf	(sqrtf@ix+2)& (0+255),f,b
  7186   004140  3783               	rlcf	(sqrtf@ix+3)& (0+255),f,b
  7187   004142                     
  7188                           ; BSR set to: 0
  7189   004142  0E01               	movlw	1
  7190   004144  2764               	addwf	sqrtf@i& (0+255),f,b
  7191   004146  0E00               	movlw	0
  7192   004148  2365               	addwfc	(sqrtf@i+1)& (0+255),f,b
  7193   00414A  2366               	addwfc	(sqrtf@i+2)& (0+255),f,b
  7194   00414C  2367               	addwfc	(sqrtf@i+3)& (0+255),f,b
  7195   00414E                     l3529:
  7196                           
  7197                           ; BSR set to: 0
  7198   00414E  AF82               	btfss	(sqrtf@ix+2)& (0+255),7,b
  7199   004150  EFAC  F020         	goto	u3261
  7200   004154  EFAE  F020         	goto	u3260
  7201   004158                     u3261:
  7202   004158  EF9C  F020         	goto	l3525
  7203   00415C                     u3260:
  7204   00415C                     
  7205                           ; BSR set to: 0
  7206   00415C  0EFF               	movlw	255
  7207   00415E  2564               	addwf	sqrtf@i& (0+255),w,b
  7208   004160  6E42               	movwf	??_sqrtf^0,c
  7209   004162  0EFF               	movlw	255
  7210   004164  2165               	addwfc	(sqrtf@i+1)& (0+255),w,b
  7211   004166  6E43               	movwf	(??_sqrtf+1)^0,c
  7212   004168  0EFF               	movlw	255
  7213   00416A  2166               	addwfc	(sqrtf@i+2)& (0+255),w,b
  7214   00416C  6E44               	movwf	(??_sqrtf+2)^0,c
  7215   00416E  0EFF               	movlw	255
  7216   004170  2167               	addwfc	(sqrtf@i+3)& (0+255),w,b
  7217   004172  6E45               	movwf	(??_sqrtf+3)^0,c
  7218   004174  5042               	movf	??_sqrtf^0,w,c
  7219   004176  5F78               	subwf	sqrtf@m& (0+255),f,b
  7220   004178  5043               	movf	(??_sqrtf+1)^0,w,c
  7221   00417A  5B79               	subwfb	(sqrtf@m+1)& (0+255),f,b
  7222   00417C  5044               	movf	(??_sqrtf+2)^0,w,c
  7223   00417E  5B7A               	subwfb	(sqrtf@m+2)& (0+255),f,b
  7224   004180  5045               	movf	(??_sqrtf+3)^0,w,c
  7225   004182  5B7B               	subwfb	(sqrtf@m+3)& (0+255),f,b
  7226   004184                     l1220:
  7227                           
  7228                           ; BSR set to: 0
  7229   004184  0E81               	movlw	129
  7230   004186  2778               	addwf	sqrtf@m& (0+255),f,b
  7231   004188  0EFF               	movlw	255
  7232   00418A  2379               	addwfc	(sqrtf@m+1)& (0+255),f,b
  7233   00418C  0EFF               	movlw	255
  7234   00418E  237A               	addwfc	(sqrtf@m+2)& (0+255),f,b
  7235   004190  0EFF               	movlw	255
  7236   004192  237B               	addwfc	(sqrtf@m+3)& (0+255),f,b
  7237   004194  0EFF               	movlw	255
  7238   004196  1580               	andwf	sqrtf@ix& (0+255),w,b
  7239   004198  6E42               	movwf	??_sqrtf^0,c
  7240   00419A  0EFF               	movlw	255
  7241   00419C  1581               	andwf	(sqrtf@ix+1)& (0+255),w,b
  7242   00419E  6E43               	movwf	(??_sqrtf+1)^0,c
  7243   0041A0  0E7F               	movlw	127
  7244   0041A2  1582               	andwf	(sqrtf@ix+2)& (0+255),w,b
  7245   0041A4  6E44               	movwf	(??_sqrtf+2)^0,c
  7246   0041A6  0E00               	movlw	0
  7247   0041A8  1583               	andwf	(sqrtf@ix+3)& (0+255),w,b
  7248   0041AA  6E45               	movwf	(??_sqrtf+3)^0,c
  7249   0041AC  0E00               	movlw	0
  7250   0041AE  1042               	iorwf	??_sqrtf^0,w,c
  7251   0041B0  6F80               	movwf	sqrtf@ix& (0+255),b
  7252   0041B2  0E00               	movlw	0
  7253   0041B4  1043               	iorwf	(??_sqrtf+1)^0,w,c
  7254   0041B6  6F81               	movwf	(sqrtf@ix+1)& (0+255),b
  7255   0041B8  0E80               	movlw	128
  7256   0041BA  1044               	iorwf	(??_sqrtf+2)^0,w,c
  7257   0041BC  6F82               	movwf	(sqrtf@ix+2)& (0+255),b
  7258   0041BE  0E00               	movlw	0
  7259   0041C0  1045               	iorwf	(??_sqrtf+3)^0,w,c
  7260   0041C2  6F83               	movwf	(sqrtf@ix+3)& (0+255),b
  7261   0041C4                     
  7262                           ; BSR set to: 0
  7263   0041C4  A178               	btfss	sqrtf@m& (0+255),0,b
  7264   0041C6  EFE7  F020         	goto	u3271
  7265   0041CA  EFE9  F020         	goto	u3270
  7266   0041CE                     u3271:
  7267   0041CE  EFF1  F020         	goto	l1224
  7268   0041D2                     u3270:
  7269   0041D2                     
  7270                           ; BSR set to: 0
  7271   0041D2  5180               	movf	sqrtf@ix& (0+255),w,b
  7272   0041D4  2780               	addwf	sqrtf@ix& (0+255),f,b
  7273   0041D6  5181               	movf	(sqrtf@ix+1)& (0+255),w,b
  7274   0041D8  2381               	addwfc	(sqrtf@ix+1)& (0+255),f,b
  7275   0041DA  5182               	movf	(sqrtf@ix+2)& (0+255),w,b
  7276   0041DC  2382               	addwfc	(sqrtf@ix+2)& (0+255),f,b
  7277   0041DE  5183               	movf	(sqrtf@ix+3)& (0+255),w,b
  7278   0041E0  2383               	addwfc	(sqrtf@ix+3)& (0+255),f,b
  7279   0041E2                     l1224:
  7280                           
  7281                           ; BSR set to: 0
  7282   0041E2  357B               	rlcf	(sqrtf@m+3)& (0+255),w,b
  7283   0041E4  337B               	rrcf	(sqrtf@m+3)& (0+255),f,b
  7284   0041E6  337A               	rrcf	(sqrtf@m+2)& (0+255),f,b
  7285   0041E8  3379               	rrcf	(sqrtf@m+1)& (0+255),f,b
  7286   0041EA  3378               	rrcf	sqrtf@m& (0+255),f,b
  7287   0041EC  5180               	movf	sqrtf@ix& (0+255),w,b
  7288   0041EE  2780               	addwf	sqrtf@ix& (0+255),f,b
  7289   0041F0  5181               	movf	(sqrtf@ix+1)& (0+255),w,b
  7290   0041F2  2381               	addwfc	(sqrtf@ix+1)& (0+255),f,b
  7291   0041F4  5182               	movf	(sqrtf@ix+2)& (0+255),w,b
  7292   0041F6  2382               	addwfc	(sqrtf@ix+2)& (0+255),f,b
  7293   0041F8  5183               	movf	(sqrtf@ix+3)& (0+255),w,b
  7294   0041FA  2383               	addwfc	(sqrtf@ix+3)& (0+255),f,b
  7295   0041FC                     
  7296                           ; BSR set to: 0
  7297   0041FC  0E00               	movlw	0
  7298   0041FE  6F60               	movwf	sqrtf@s& (0+255),b
  7299   004200  0E00               	movlw	0
  7300   004202  6F61               	movwf	(sqrtf@s+1)& (0+255),b
  7301   004204  0E00               	movlw	0
  7302   004206  6F62               	movwf	(sqrtf@s+2)& (0+255),b
  7303   004208  0E00               	movlw	0
  7304   00420A  6F63               	movwf	(sqrtf@s+3)& (0+255),b
  7305   00420C  C060  F06C         	movff	sqrtf@s,sqrtf@q
  7306   004210  C061  F06D         	movff	sqrtf@s+1,sqrtf@q+1
  7307   004214  C062  F06E         	movff	sqrtf@s+2,sqrtf@q+2
  7308   004218  C063  F06F         	movff	sqrtf@s+3,sqrtf@q+3
  7309   00421C                     
  7310                           ; BSR set to: 0
  7311   00421C  0E00               	movlw	0
  7312   00421E  6F7C               	movwf	sqrtf@r& (0+255),b
  7313   004220  0E00               	movlw	0
  7314   004222  6F7D               	movwf	(sqrtf@r+1)& (0+255),b
  7315   004224  0E00               	movlw	0
  7316   004226  6F7E               	movwf	(sqrtf@r+2)& (0+255),b
  7317   004228  0E01               	movlw	1
  7318   00422A  6F7F               	movwf	(sqrtf@r+3)& (0+255),b
  7319   00422C  EF60  F021         	goto	l3547
  7320   004230                     l3541:
  7321                           
  7322                           ; BSR set to: 0
  7323   004230  5160               	movf	sqrtf@s& (0+255),w,b
  7324   004232  257C               	addwf	sqrtf@r& (0+255),w,b
  7325   004234  6F70               	movwf	sqrtf@t& (0+255),b
  7326   004236  5161               	movf	(sqrtf@s+1)& (0+255),w,b
  7327   004238  217D               	addwfc	(sqrtf@r+1)& (0+255),w,b
  7328   00423A  6F71               	movwf	(sqrtf@t+1)& (0+255),b
  7329   00423C  5162               	movf	(sqrtf@s+2)& (0+255),w,b
  7330   00423E  217E               	addwfc	(sqrtf@r+2)& (0+255),w,b
  7331   004240  6F72               	movwf	(sqrtf@t+2)& (0+255),b
  7332   004242  5163               	movf	(sqrtf@s+3)& (0+255),w,b
  7333   004244  217F               	addwfc	(sqrtf@r+3)& (0+255),w,b
  7334   004246  6F73               	movwf	(sqrtf@t+3)& (0+255),b
  7335   004248  5170               	movf	sqrtf@t& (0+255),w,b
  7336   00424A  5D80               	subwf	sqrtf@ix& (0+255),w,b
  7337   00424C  5171               	movf	(sqrtf@t+1)& (0+255),w,b
  7338   00424E  5981               	subwfb	(sqrtf@ix+1)& (0+255),w,b
  7339   004250  5172               	movf	(sqrtf@t+2)& (0+255),w,b
  7340   004252  5982               	subwfb	(sqrtf@ix+2)& (0+255),w,b
  7341   004254  5183               	movf	(sqrtf@ix+3)& (0+255),w,b
  7342   004256  0A80               	xorlw	128
  7343   004258  6E42               	movwf	??_sqrtf^0,c
  7344   00425A  5173               	movf	(sqrtf@t+3)& (0+255),w,b
  7345   00425C  0A80               	xorlw	128
  7346   00425E  5842               	subwfb	??_sqrtf^0,w,c
  7347   004260  A0D8               	btfss	status,0,c
  7348   004262  EF35  F021         	goto	u3281
  7349   004266  EF37  F021         	goto	u3280
  7350   00426A                     u3281:
  7351   00426A  EF53  F021         	goto	l1227
  7352   00426E                     u3280:
  7353   00426E                     
  7354                           ; BSR set to: 0
  7355   00426E  5170               	movf	sqrtf@t& (0+255),w,b
  7356   004270  257C               	addwf	sqrtf@r& (0+255),w,b
  7357   004272  6F60               	movwf	sqrtf@s& (0+255),b
  7358   004274  5171               	movf	(sqrtf@t+1)& (0+255),w,b
  7359   004276  217D               	addwfc	(sqrtf@r+1)& (0+255),w,b
  7360   004278  6F61               	movwf	(sqrtf@s+1)& (0+255),b
  7361   00427A  5172               	movf	(sqrtf@t+2)& (0+255),w,b
  7362   00427C  217E               	addwfc	(sqrtf@r+2)& (0+255),w,b
  7363   00427E  6F62               	movwf	(sqrtf@s+2)& (0+255),b
  7364   004280  5173               	movf	(sqrtf@t+3)& (0+255),w,b
  7365   004282  217F               	addwfc	(sqrtf@r+3)& (0+255),w,b
  7366   004284  6F63               	movwf	(sqrtf@s+3)& (0+255),b
  7367   004286  5170               	movf	sqrtf@t& (0+255),w,b
  7368   004288  5F80               	subwf	sqrtf@ix& (0+255),f,b
  7369   00428A  5171               	movf	(sqrtf@t+1)& (0+255),w,b
  7370   00428C  5B81               	subwfb	(sqrtf@ix+1)& (0+255),f,b
  7371   00428E  5172               	movf	(sqrtf@t+2)& (0+255),w,b
  7372   004290  5B82               	subwfb	(sqrtf@ix+2)& (0+255),f,b
  7373   004292  5173               	movf	(sqrtf@t+3)& (0+255),w,b
  7374   004294  5B83               	subwfb	(sqrtf@ix+3)& (0+255),f,b
  7375   004296  517C               	movf	sqrtf@r& (0+255),w,b
  7376   004298  276C               	addwf	sqrtf@q& (0+255),f,b
  7377   00429A  517D               	movf	(sqrtf@r+1)& (0+255),w,b
  7378   00429C  236D               	addwfc	(sqrtf@q+1)& (0+255),f,b
  7379   00429E  517E               	movf	(sqrtf@r+2)& (0+255),w,b
  7380   0042A0  236E               	addwfc	(sqrtf@q+2)& (0+255),f,b
  7381   0042A2  517F               	movf	(sqrtf@r+3)& (0+255),w,b
  7382   0042A4  236F               	addwfc	(sqrtf@q+3)& (0+255),f,b
  7383   0042A6                     l1227:
  7384                           
  7385                           ; BSR set to: 0
  7386   0042A6  5180               	movf	sqrtf@ix& (0+255),w,b
  7387   0042A8  2780               	addwf	sqrtf@ix& (0+255),f,b
  7388   0042AA  5181               	movf	(sqrtf@ix+1)& (0+255),w,b
  7389   0042AC  2381               	addwfc	(sqrtf@ix+1)& (0+255),f,b
  7390   0042AE  5182               	movf	(sqrtf@ix+2)& (0+255),w,b
  7391   0042B0  2382               	addwfc	(sqrtf@ix+2)& (0+255),f,b
  7392   0042B2  5183               	movf	(sqrtf@ix+3)& (0+255),w,b
  7393   0042B4  2383               	addwfc	(sqrtf@ix+3)& (0+255),f,b
  7394   0042B6                     
  7395                           ; BSR set to: 0
  7396   0042B6  90D8               	bcf	status,0,c
  7397   0042B8  337F               	rrcf	(sqrtf@r+3)& (0+255),f,b
  7398   0042BA  337E               	rrcf	(sqrtf@r+2)& (0+255),f,b
  7399   0042BC  337D               	rrcf	(sqrtf@r+1)& (0+255),f,b
  7400   0042BE  337C               	rrcf	sqrtf@r& (0+255),f,b
  7401   0042C0                     l3547:
  7402                           
  7403                           ; BSR set to: 0
  7404   0042C0  517C               	movf	sqrtf@r& (0+255),w,b
  7405   0042C2  117D               	iorwf	(sqrtf@r+1)& (0+255),w,b
  7406   0042C4  117E               	iorwf	(sqrtf@r+2)& (0+255),w,b
  7407   0042C6  117F               	iorwf	(sqrtf@r+3)& (0+255),w,b
  7408   0042C8  A4D8               	btfss	status,2,c
  7409   0042CA  EF69  F021         	goto	u3291
  7410   0042CE  EF6B  F021         	goto	u3290
  7411   0042D2                     u3291:
  7412   0042D2  EF18  F021         	goto	l3541
  7413   0042D6                     u3290:
  7414   0042D6                     
  7415                           ; BSR set to: 0
  7416   0042D6  5180               	movf	sqrtf@ix& (0+255),w,b
  7417   0042D8  1181               	iorwf	(sqrtf@ix+1)& (0+255),w,b
  7418   0042DA  1182               	iorwf	(sqrtf@ix+2)& (0+255),w,b
  7419   0042DC  1183               	iorwf	(sqrtf@ix+3)& (0+255),w,b
  7420   0042DE  B4D8               	btfsc	status,2,c
  7421   0042E0  EF74  F021         	goto	u3301
  7422   0042E4  EF76  F021         	goto	u3300
  7423   0042E8                     u3301:
  7424   0042E8  EFD7  F021         	goto	l1229
  7425   0042EC                     u3300:
  7426   0042EC                     
  7427                           ; BSR set to: 0
  7428   0042EC  0E00               	movlw	0
  7429   0042EE  6F74               	movwf	sqrtf@z& (0+255),b
  7430   0042F0  0E00               	movlw	0
  7431   0042F2  6F75               	movwf	(sqrtf@z+1)& (0+255),b
  7432   0042F4  0E80               	movlw	128
  7433   0042F6  6F76               	movwf	(sqrtf@z+2)& (0+255),b
  7434   0042F8  0E3F               	movlw	63
  7435   0042FA  6F77               	movwf	(sqrtf@z+3)& (0+255),b
  7436   0042FC                     
  7437                           ; BSR set to: 0
  7438   0042FC  C074  F032         	movff	sqrtf@z,___flge@ff1
  7439   004300  C075  F033         	movff	sqrtf@z+1,___flge@ff1+1
  7440   004304  C076  F034         	movff	sqrtf@z+2,___flge@ff1+2
  7441   004308  C077  F035         	movff	sqrtf@z+3,___flge@ff1+3
  7442   00430C  0E00               	movlw	0
  7443   00430E  6E36               	movwf	___flge@ff2^0,c
  7444   004310  0E00               	movlw	0
  7445   004312  6E37               	movwf	(___flge@ff2+1)^0,c
  7446   004314  0E80               	movlw	128
  7447   004316  6E38               	movwf	(___flge@ff2+2)^0,c
  7448   004318  0E3F               	movlw	63
  7449   00431A  6E39               	movwf	(___flge@ff2+3)^0,c
  7450   00431C  EC7F  F02C         	call	___flge	;wreg free
  7451   004320  A0D8               	btfss	status,0,c
  7452   004322  EF95  F021         	goto	u3311
  7453   004326  EF97  F021         	goto	u3310
  7454   00432A                     u3311:
  7455   00432A  EFD7  F021         	goto	l1229
  7456   00432E                     u3310:
  7457   00432E  0E00               	movlw	0
  7458   004330  0100               	movlb	0	; () banked
  7459   004332  6F74               	movwf	sqrtf@z& (0+255),b
  7460   004334  0E00               	movlw	0
  7461   004336  6F75               	movwf	(sqrtf@z+1)& (0+255),b
  7462   004338  0E80               	movlw	128
  7463   00433A  6F76               	movwf	(sqrtf@z+2)& (0+255),b
  7464   00433C  0E3F               	movlw	63
  7465   00433E  6F77               	movwf	(sqrtf@z+3)& (0+255),b
  7466   004340                     
  7467                           ; BSR set to: 0
  7468   004340  0E00               	movlw	0
  7469   004342  6E32               	movwf	___flge@ff1^0,c
  7470   004344  0E00               	movlw	0
  7471   004346  6E33               	movwf	(___flge@ff1+1)^0,c
  7472   004348  0E80               	movlw	128
  7473   00434A  6E34               	movwf	(___flge@ff1+2)^0,c
  7474   00434C  0E3F               	movlw	63
  7475   00434E  6E35               	movwf	(___flge@ff1+3)^0,c
  7476   004350  C074  F036         	movff	sqrtf@z,___flge@ff2
  7477   004354  C075  F037         	movff	sqrtf@z+1,___flge@ff2+1
  7478   004358  C076  F038         	movff	sqrtf@z+2,___flge@ff2+2
  7479   00435C  C077  F039         	movff	sqrtf@z+3,___flge@ff2+3
  7480   004360  EC7F  F02C         	call	___flge	;wreg free
  7481   004364  B0D8               	btfsc	status,0,c
  7482   004366  EFB7  F021         	goto	u3321
  7483   00436A  EFB9  F021         	goto	u3320
  7484   00436E                     u3321:
  7485   00436E  EFC2  F021         	goto	l3561
  7486   004372                     u3320:
  7487   004372  0E02               	movlw	2
  7488   004374  0100               	movlb	0	; () banked
  7489   004376  276C               	addwf	sqrtf@q& (0+255),f,b
  7490   004378  0E00               	movlw	0
  7491   00437A  236D               	addwfc	(sqrtf@q+1)& (0+255),f,b
  7492   00437C  236E               	addwfc	(sqrtf@q+2)& (0+255),f,b
  7493   00437E  236F               	addwfc	(sqrtf@q+3)& (0+255),f,b
  7494   004380  EFD7  F021         	goto	l1229
  7495   004384                     l3561:
  7496   004384  0E01               	movlw	1
  7497   004386  0100               	movlb	0	; () banked
  7498   004388  156C               	andwf	sqrtf@q& (0+255),w,b
  7499   00438A  6E42               	movwf	??_sqrtf^0,c
  7500   00438C  0E00               	movlw	0
  7501   00438E  156D               	andwf	(sqrtf@q+1)& (0+255),w,b
  7502   004390  6E43               	movwf	(??_sqrtf+1)^0,c
  7503   004392  0E00               	movlw	0
  7504   004394  156E               	andwf	(sqrtf@q+2)& (0+255),w,b
  7505   004396  6E44               	movwf	(??_sqrtf+2)^0,c
  7506   004398  0E00               	movlw	0
  7507   00439A  156F               	andwf	(sqrtf@q+3)& (0+255),w,b
  7508   00439C  6E45               	movwf	(??_sqrtf+3)^0,c
  7509   00439E  5042               	movf	??_sqrtf^0,w,c
  7510   0043A0  276C               	addwf	sqrtf@q& (0+255),f,b
  7511   0043A2  5043               	movf	(??_sqrtf+1)^0,w,c
  7512   0043A4  236D               	addwfc	(sqrtf@q+1)& (0+255),f,b
  7513   0043A6  5044               	movf	(??_sqrtf+2)^0,w,c
  7514   0043A8  236E               	addwfc	(sqrtf@q+2)& (0+255),f,b
  7515   0043AA  5045               	movf	(??_sqrtf+3)^0,w,c
  7516   0043AC  236F               	addwfc	(sqrtf@q+3)& (0+255),f,b
  7517   0043AE                     l1229:
  7518   0043AE  C06C  F042         	movff	sqrtf@q,??_sqrtf
  7519   0043B2  C06D  F043         	movff	sqrtf@q+1,??_sqrtf+1
  7520   0043B6  C06E  F044         	movff	sqrtf@q+2,??_sqrtf+2
  7521   0043BA  C06F  F045         	movff	sqrtf@q+3,??_sqrtf+3
  7522   0043BE  3445               	rlcf	(??_sqrtf+3)^0,w,c
  7523   0043C0  3245               	rrcf	(??_sqrtf+3)^0,f,c
  7524   0043C2  3244               	rrcf	(??_sqrtf+2)^0,f,c
  7525   0043C4  3243               	rrcf	(??_sqrtf+1)^0,f,c
  7526   0043C6  3242               	rrcf	??_sqrtf^0,f,c
  7527   0043C8  0E00               	movlw	0
  7528   0043CA  2442               	addwf	??_sqrtf^0,w,c
  7529   0043CC  0100               	movlb	0	; () banked
  7530   0043CE  6F80               	movwf	sqrtf@ix& (0+255),b
  7531   0043D0  0E00               	movlw	0
  7532   0043D2  2043               	addwfc	(??_sqrtf+1)^0,w,c
  7533   0043D4  6F81               	movwf	(sqrtf@ix+1)& (0+255),b
  7534   0043D6  0E00               	movlw	0
  7535   0043D8  2044               	addwfc	(??_sqrtf+2)^0,w,c
  7536   0043DA  6F82               	movwf	(sqrtf@ix+2)& (0+255),b
  7537   0043DC  0E3F               	movlw	63
  7538   0043DE  2045               	addwfc	(??_sqrtf+3)^0,w,c
  7539   0043E0  6F83               	movwf	(sqrtf@ix+3)& (0+255),b
  7540   0043E2  C078  F042         	movff	sqrtf@m,??_sqrtf
  7541   0043E6  C079  F043         	movff	sqrtf@m+1,??_sqrtf+1
  7542   0043EA  C07A  F044         	movff	sqrtf@m+2,??_sqrtf+2
  7543   0043EE  C07B  F045         	movff	sqrtf@m+3,??_sqrtf+3
  7544   0043F2  0E17               	movlw	23
  7545   0043F4                     u3335:
  7546   0043F4  90D8               	bcf	status,0,c
  7547   0043F6  3642               	rlcf	??_sqrtf^0,f,c
  7548   0043F8  3643               	rlcf	(??_sqrtf+1)^0,f,c
  7549   0043FA  3644               	rlcf	(??_sqrtf+2)^0,f,c
  7550   0043FC  3645               	rlcf	(??_sqrtf+3)^0,f,c
  7551   0043FE  2EE8               	decfsz	wreg,f,c
  7552   004400  EFFA  F021         	goto	u3335
  7553   004404  5042               	movf	??_sqrtf^0,w,c
  7554   004406  2780               	addwf	sqrtf@ix& (0+255),f,b
  7555   004408  5043               	movf	(??_sqrtf+1)^0,w,c
  7556   00440A  2381               	addwfc	(sqrtf@ix+1)& (0+255),f,b
  7557   00440C  5044               	movf	(??_sqrtf+2)^0,w,c
  7558   00440E  2382               	addwfc	(sqrtf@ix+2)& (0+255),f,b
  7559   004410  5045               	movf	(??_sqrtf+3)^0,w,c
  7560   004412  2383               	addwfc	(sqrtf@ix+3)& (0+255),f,b
  7561   004414                     
  7562                           ; BSR set to: 0
  7563   004414  C080  F068         	movff	sqrtf@ix,sqrtf@__xc8_float_word
  7564   004418  C081  F069         	movff	sqrtf@ix+1,sqrtf@__xc8_float_word+1
  7565   00441C  C082  F06A         	movff	sqrtf@ix+2,sqrtf@__xc8_float_word+2
  7566   004420  C083  F06B         	movff	sqrtf@ix+3,sqrtf@__xc8_float_word+3
  7567   004424                     
  7568                           ; BSR set to: 0
  7569   004424  C068  F074         	movff	sqrtf@__xc8_float_word,sqrtf@z
  7570   004428  C069  F075         	movff	sqrtf@__xc8_float_word+1,sqrtf@z+1
  7571   00442C  C06A  F076         	movff	sqrtf@__xc8_float_word+2,sqrtf@z+2
  7572   004430  C06B  F077         	movff	sqrtf@__xc8_float_word+3,sqrtf@z+3
  7573   004434                     
  7574                           ; BSR set to: 0
  7575   004434  C074  F03E         	movff	sqrtf@z,?_sqrtf
  7576   004438  C075  F03F         	movff	sqrtf@z+1,?_sqrtf+1
  7577   00443C  C076  F040         	movff	sqrtf@z+2,?_sqrtf+2
  7578   004440  C077  F041         	movff	sqrtf@z+3,?_sqrtf+3
  7579   004444                     l1216:
  7580   004444  0012               	return		;funcret
  7581   004446                     __end_of_sqrtf:
  7582                           	callstack 0
  7583                           
  7584 ;; *************** function _nanf *****************
  7585 ;; Defined at:
  7586 ;;		line 4 in file "C:\Program Files\Microchip\xc8\v2.40\pic\sources\c99\common\nanf.c"
  7587 ;; Parameters:    Size  Location     Type
  7588 ;;  s               2    0[COMRAM] PTR const unsigned char 
  7589 ;;		 -> STR_16(1), 
  7590 ;; Auto vars:     Size  Location     Type
  7591 ;;  u               4    4[COMRAM] struct .
  7592 ;; Return value:  Size  Location     Type
  7593 ;;                  4    0[COMRAM] float 
  7594 ;; Registers used:
  7595 ;;		wreg, status,2
  7596 ;; Tracked objects:
  7597 ;;		On entry : 0/0
  7598 ;;		On exit  : 0/0
  7599 ;;		Unchanged: 0/0
  7600 ;; Data sizes:     COMRAM   BANK0   BANK1   BANK2   BANK3   BANK4   BANK5   BANK6   BANK7   BANK8   BANK9  BANK10  BANK1
      +1  BANK12  BANK13  BANK14  BANK15
  7601 ;;      Params:         4       0       0       0       0       0       0       0       0       0       0       0       
      +0       0       0       0       0
  7602 ;;      Locals:         4       0       0       0       0       0       0       0       0       0       0       0       
      +0       0       0       0       0
  7603 ;;      Temps:          0       0       0       0       0       0       0       0       0       0       0       0       
      +0       0       0       0       0
  7604 ;;      Totals:         8       0       0       0       0       0       0       0       0       0       0       0       
      +0       0       0       0       0
  7605 ;;Total ram usage:        8 bytes
  7606 ;; Hardware stack levels used: 1
  7607 ;; This function calls:
  7608 ;;		Nothing
  7609 ;; This function is called by:
  7610 ;;		_sqrtf
  7611 ;; This function uses a non-reentrant model
  7612 ;;
  7613                           
  7614                           	psect	text9
  7615   00619C                     __ptext9:
  7616                           	callstack 0
  7617   00619C                     _nanf:
  7618                           	callstack 26
  7619   00619C  0EFF               	movlw	255
  7620   00619E  6E05               	movwf	nanf@u^0,c
  7621   0061A0  0EFF               	movlw	255
  7622   0061A2  6E06               	movwf	(nanf@u+1)^0,c
  7623   0061A4  0EFF               	movlw	255
  7624   0061A6  6E07               	movwf	(nanf@u+2)^0,c
  7625   0061A8  0E7F               	movlw	127
  7626   0061AA  6E08               	movwf	(nanf@u+3)^0,c
  7627   0061AC  C005  F001         	movff	nanf@u,?_nanf
  7628   0061B0  C006  F002         	movff	nanf@u+1,?_nanf+1
  7629   0061B4  C007  F003         	movff	nanf@u+2,?_nanf+2
  7630   0061B8  C008  F004         	movff	nanf@u+3,?_nanf+3
  7631   0061BC  0012               	return		;funcret
  7632   0061BE                     __end_of_nanf:
  7633                           	callstack 0
  7634                           
  7635 ;; *************** function ___flge *****************
  7636 ;; Defined at:
  7637 ;;		line 4 in file "C:\Program Files\Microchip\xc8\v2.40\pic\sources\c99\common\flge.c"
  7638 ;; Parameters:    Size  Location     Type
  7639 ;;  ff1             4   49[COMRAM] float 
  7640 ;;  ff2             4   53[COMRAM] float 
  7641 ;; Auto vars:     Size  Location     Type
  7642 ;;		None
  7643 ;; Return value:  Size  Location     Type
  7644 ;;		None               void
  7645 ;; Registers used:
  7646 ;;		wreg, status,2, status,0
  7647 ;; Tracked objects:
  7648 ;;		On entry : 0/0
  7649 ;;		On exit  : 0/0
  7650 ;;		Unchanged: 0/0
  7651 ;; Data sizes:     COMRAM   BANK0   BANK1   BANK2   BANK3   BANK4   BANK5   BANK6   BANK7   BANK8   BANK9  BANK10  BANK1
      +1  BANK12  BANK13  BANK14  BANK15
  7652 ;;      Params:         8       0       0       0       0       0       0       0       0       0       0       0       
      +0       0       0       0       0
  7653 ;;      Locals:         0       0       0       0       0       0       0       0       0       0       0       0       
      +0       0       0       0       0
  7654 ;;      Temps:          4       0       0       0       0       0       0       0       0       0       0       0       
      +0       0       0       0       0
  7655 ;;      Totals:        12       0       0       0       0       0       0       0       0       0       0       0       
      +0       0       0       0       0
  7656 ;;Total ram usage:       12 bytes
  7657 ;; Hardware stack levels used: 1
  7658 ;; This function calls:
  7659 ;;		Nothing
  7660 ;; This function is called by:
  7661 ;;		_powf
  7662 ;;		_sqrtf
  7663 ;; This function uses a non-reentrant model
  7664 ;;
  7665                           
  7666                           	psect	text10
  7667   0058FE                     __ptext10:
  7668                           	callstack 0
  7669   0058FE                     ___flge:
  7670                           	callstack 26
  7671   0058FE  0E00               	movlw	0
  7672   005900  1432               	andwf	___flge@ff1^0,w,c
  7673   005902  6E3A               	movwf	??___flge^0,c
  7674   005904  0E00               	movlw	0
  7675   005906  1433               	andwf	(___flge@ff1+1)^0,w,c
  7676   005908  6E3B               	movwf	(??___flge+1)^0,c
  7677   00590A  0E80               	movlw	128
  7678   00590C  1434               	andwf	(___flge@ff1+2)^0,w,c
  7679   00590E  6E3C               	movwf	(??___flge+2)^0,c
  7680   005910  0E7F               	movlw	127
  7681   005912  1435               	andwf	(___flge@ff1+3)^0,w,c
  7682   005914  6E3D               	movwf	(??___flge+3)^0,c
  7683   005916  503A               	movf	??___flge^0,w,c
  7684   005918  103B               	iorwf	(??___flge+1)^0,w,c
  7685   00591A  103C               	iorwf	(??___flge+2)^0,w,c
  7686   00591C  103D               	iorwf	(??___flge+3)^0,w,c
  7687   00591E  A4D8               	btfss	status,2,c
  7688   005920  EF94  F02C         	goto	u2811
  7689   005924  EF96  F02C         	goto	u2810
  7690   005928                     u2811:
  7691   005928  EF9E  F02C         	goto	l3245
  7692   00592C                     u2810:
  7693   00592C  0E00               	movlw	0
  7694   00592E  6E32               	movwf	___flge@ff1^0,c
  7695   005930  0E00               	movlw	0
  7696   005932  6E33               	movwf	(___flge@ff1+1)^0,c
  7697   005934  0E00               	movlw	0
  7698   005936  6E34               	movwf	(___flge@ff1+2)^0,c
  7699   005938  0E00               	movlw	0
  7700   00593A  6E35               	movwf	(___flge@ff1+3)^0,c
  7701   00593C                     l3245:
  7702   00593C  0E00               	movlw	0
  7703   00593E  1436               	andwf	___flge@ff2^0,w,c
  7704   005940  6E3A               	movwf	??___flge^0,c
  7705   005942  0E00               	movlw	0
  7706   005944  1437               	andwf	(___flge@ff2+1)^0,w,c
  7707   005946  6E3B               	movwf	(??___flge+1)^0,c
  7708   005948  0E80               	movlw	128
  7709   00594A  1438               	andwf	(___flge@ff2+2)^0,w,c
  7710   00594C  6E3C               	movwf	(??___flge+2)^0,c
  7711   00594E  0E7F               	movlw	127
  7712   005950  1439               	andwf	(___flge@ff2+3)^0,w,c
  7713   005952  6E3D               	movwf	(??___flge+3)^0,c
  7714   005954  503A               	movf	??___flge^0,w,c
  7715   005956  103B               	iorwf	(??___flge+1)^0,w,c
  7716   005958  103C               	iorwf	(??___flge+2)^0,w,c
  7717   00595A  103D               	iorwf	(??___flge+3)^0,w,c
  7718   00595C  A4D8               	btfss	status,2,c
  7719   00595E  EFB3  F02C         	goto	u2821
  7720   005962  EFB5  F02C         	goto	u2820
  7721   005966                     u2821:
  7722   005966  EFBD  F02C         	goto	l3249
  7723   00596A                     u2820:
  7724   00596A  0E00               	movlw	0
  7725   00596C  6E36               	movwf	___flge@ff2^0,c
  7726   00596E  0E00               	movlw	0
  7727   005970  6E37               	movwf	(___flge@ff2+1)^0,c
  7728   005972  0E00               	movlw	0
  7729   005974  6E38               	movwf	(___flge@ff2+2)^0,c
  7730   005976  0E00               	movlw	0
  7731   005978  6E39               	movwf	(___flge@ff2+3)^0,c
  7732   00597A                     l3249:
  7733   00597A  AE35               	btfss	(___flge@ff1+3)^0,7,c
  7734   00597C  EFC2  F02C         	goto	u2831
  7735   005980  EFC4  F02C         	goto	u2830
  7736   005984                     u2831:
  7737   005984  EFCD  F02C         	goto	l3253
  7738   005988                     u2830:
  7739   005988  6C32               	negf	___flge@ff1^0,c
  7740   00598A  1E33               	comf	(___flge@ff1+1)^0,f,c
  7741   00598C  B0D8               	btfsc	status,0,c
  7742   00598E  2A33               	incf	(___flge@ff1+1)^0,f,c
  7743   005990  1E34               	comf	(___flge@ff1+2)^0,f,c
  7744   005992  B0D8               	btfsc	status,0,c
  7745   005994  2A34               	incf	(___flge@ff1+2)^0,f,c
  7746   005996  0E80               	movlw	128
  7747   005998  5635               	subfwb	(___flge@ff1+3)^0,f,c
  7748   00599A                     l3253:
  7749   00599A  AE39               	btfss	(___flge@ff2+3)^0,7,c
  7750   00599C  EFD2  F02C         	goto	u2841
  7751   0059A0  EFD4  F02C         	goto	u2840
  7752   0059A4                     u2841:
  7753   0059A4  EFDD  F02C         	goto	l598
  7754   0059A8                     u2840:
  7755   0059A8  6C36               	negf	___flge@ff2^0,c
  7756   0059AA  1E37               	comf	(___flge@ff2+1)^0,f,c
  7757   0059AC  B0D8               	btfsc	status,0,c
  7758   0059AE  2A37               	incf	(___flge@ff2+1)^0,f,c
  7759   0059B0  1E38               	comf	(___flge@ff2+2)^0,f,c
  7760   0059B2  B0D8               	btfsc	status,0,c
  7761   0059B4  2A38               	incf	(___flge@ff2+2)^0,f,c
  7762   0059B6  0E80               	movlw	128
  7763   0059B8  5639               	subfwb	(___flge@ff2+3)^0,f,c
  7764   0059BA                     l598:
  7765   0059BA  0E00               	movlw	0
  7766   0059BC  1A32               	xorwf	___flge@ff1^0,f,c
  7767   0059BE  0E00               	movlw	0
  7768   0059C0  1A33               	xorwf	(___flge@ff1+1)^0,f,c
  7769   0059C2  0E00               	movlw	0
  7770   0059C4  1A34               	xorwf	(___flge@ff1+2)^0,f,c
  7771   0059C6  0E80               	movlw	128
  7772   0059C8  1A35               	xorwf	(___flge@ff1+3)^0,f,c
  7773   0059CA  0E00               	movlw	0
  7774   0059CC  1A36               	xorwf	___flge@ff2^0,f,c
  7775   0059CE  0E00               	movlw	0
  7776   0059D0  1A37               	xorwf	(___flge@ff2+1)^0,f,c
  7777   0059D2  0E00               	movlw	0
  7778   0059D4  1A38               	xorwf	(___flge@ff2+2)^0,f,c
  7779   0059D6  0E80               	movlw	128
  7780   0059D8  1A39               	xorwf	(___flge@ff2+3)^0,f,c
  7781   0059DA  5036               	movf	___flge@ff2^0,w,c
  7782   0059DC  5C32               	subwf	___flge@ff1^0,w,c
  7783   0059DE  5037               	movf	(___flge@ff2+1)^0,w,c
  7784   0059E0  5833               	subwfb	(___flge@ff1+1)^0,w,c
  7785   0059E2  5038               	movf	(___flge@ff2+2)^0,w,c
  7786   0059E4  5834               	subwfb	(___flge@ff1+2)^0,w,c
  7787   0059E6  5039               	movf	(___flge@ff2+3)^0,w,c
  7788   0059E8  5835               	subwfb	(___flge@ff1+3)^0,w,c
  7789   0059EA  B0D8               	btfsc	status,0,c
  7790   0059EC  EFFA  F02C         	goto	u2851
  7791   0059F0  EFFC  F02C         	goto	u2850
  7792   0059F4                     u2851:
  7793   0059F4  EFFF  F02C         	goto	l3259
  7794   0059F8                     u2850:
  7795   0059F8  90D8               	bcf	status,0,c
  7796   0059FA  EF00  F02D         	goto	l603
  7797   0059FE                     l3259:
  7798   0059FE  80D8               	bsf	status,0,c
  7799   005A00                     l603:
  7800   005A00  0012               	return		;funcret
  7801   005A02                     __end_of___flge:
  7802                           	callstack 0
  7803                           
  7804 ;; *************** function _scalbnf *****************
  7805 ;; Defined at:
  7806 ;;		line 4 in file "C:\Program Files\Microchip\xc8\v2.40\pic\sources\c99\common\scalbnf.c"
  7807 ;; Parameters:    Size  Location     Type
  7808 ;;  x               4   41[COMRAM] float 
  7809 ;;  n               2   45[COMRAM] int 
  7810 ;; Auto vars:     Size  Location     Type
  7811 ;;  y               4   55[COMRAM] float 
  7812 ;;  u               4   51[COMRAM] struct .
  7813 ;; Return value:  Size  Location     Type
  7814 ;;                  4   41[COMRAM] float 
  7815 ;; Registers used:
  7816 ;;		wreg, status,2, status,0, prodl, prodh, cstack
  7817 ;; Tracked objects:
  7818 ;;		On entry : 0/0
  7819 ;;		On exit  : 0/0
  7820 ;;		Unchanged: 0/0
  7821 ;; Data sizes:     COMRAM   BANK0   BANK1   BANK2   BANK3   BANK4   BANK5   BANK6   BANK7   BANK8   BANK9  BANK10  BANK1
      +1  BANK12  BANK13  BANK14  BANK15
  7822 ;;      Params:         6       0       0       0       0       0       0       0       0       0       0       0       
      +0       0       0       0       0
  7823 ;;      Locals:         8       0       0       0       0       0       0       0       0       0       0       0       
      +0       0       0       0       0
  7824 ;;      Temps:          4       0       0       0       0       0       0       0       0       0       0       0       
      +0       0       0       0       0
  7825 ;;      Totals:        18       0       0       0       0       0       0       0       0       0       0       0       
      +0       0       0       0       0
  7826 ;;Total ram usage:       18 bytes
  7827 ;; Hardware stack levels used: 1
  7828 ;; Hardware stack levels required when called: 1
  7829 ;; This function calls:
  7830 ;;		___flmul
  7831 ;; This function is called by:
  7832 ;;		_powf
  7833 ;; This function uses a non-reentrant model
  7834 ;;
  7835                           
  7836                           	psect	text11
  7837   0050CA                     __ptext11:
  7838                           	callstack 0
  7839   0050CA                     _scalbnf:
  7840                           	callstack 26
  7841   0050CA  C02A  F038         	movff	scalbnf@x,scalbnf@y
  7842   0050CE  C02B  F039         	movff	scalbnf@x+1,scalbnf@y+1
  7843   0050D2  C02C  F03A         	movff	scalbnf@x+2,scalbnf@y+2
  7844   0050D6  C02D  F03B         	movff	scalbnf@x+3,scalbnf@y+3
  7845   0050DA  BE2F               	btfsc	(scalbnf@n+1)^0,7,c
  7846   0050DC  EF79  F028         	goto	u3341
  7847   0050E0  502F               	movf	(scalbnf@n+1)^0,w,c
  7848   0050E2  E109               	bnz	u3340
  7849   0050E4  0E80               	movlw	128
  7850   0050E6  5C2E               	subwf	scalbnf@n^0,w,c
  7851   0050E8  A0D8               	btfss	status,0,c
  7852   0050EA  EF79  F028         	goto	u3341
  7853   0050EE  EF7B  F028         	goto	u3340
  7854   0050F2                     u3341:
  7855   0050F2  EFD9  F028         	goto	l3597
  7856   0050F6                     u3340:
  7857   0050F6  C038  F011         	movff	scalbnf@y,___flmul@b
  7858   0050FA  C039  F012         	movff	scalbnf@y+1,___flmul@b+1
  7859   0050FE  C03A  F013         	movff	scalbnf@y+2,___flmul@b+2
  7860   005102  C03B  F014         	movff	scalbnf@y+3,___flmul@b+3
  7861   005106  0E00               	movlw	0
  7862   005108  6E15               	movwf	___flmul@a^0,c
  7863   00510A  0E00               	movlw	0
  7864   00510C  6E16               	movwf	(___flmul@a+1)^0,c
  7865   00510E  0E00               	movlw	0
  7866   005110  6E17               	movwf	(___flmul@a+2)^0,c
  7867   005112  0E7F               	movlw	127
  7868   005114  6E18               	movwf	(___flmul@a+3)^0,c
  7869   005116  EC83  F024         	call	___flmul	;wreg free
  7870   00511A  C011  F038         	movff	?___flmul,scalbnf@y
  7871   00511E  C012  F039         	movff	?___flmul+1,scalbnf@y+1
  7872   005122  C013  F03A         	movff	?___flmul+2,scalbnf@y+2
  7873   005126  C014  F03B         	movff	?___flmul+3,scalbnf@y+3
  7874   00512A  0E81               	movlw	129
  7875   00512C  262E               	addwf	scalbnf@n^0,f,c
  7876   00512E  0EFF               	movlw	255
  7877   005130  222F               	addwfc	(scalbnf@n+1)^0,f,c
  7878   005132  BE2F               	btfsc	(scalbnf@n+1)^0,7,c
  7879   005134  EFA5  F028         	goto	u3351
  7880   005138  502F               	movf	(scalbnf@n+1)^0,w,c
  7881   00513A  E109               	bnz	u3350
  7882   00513C  0E80               	movlw	128
  7883   00513E  5C2E               	subwf	scalbnf@n^0,w,c
  7884   005140  A0D8               	btfss	status,0,c
  7885   005142  EFA5  F028         	goto	u3351
  7886   005146  EFA7  F028         	goto	u3350
  7887   00514A                     u3351:
  7888   00514A  EF43  F029         	goto	l3613
  7889   00514E                     u3350:
  7890   00514E  C038  F011         	movff	scalbnf@y,___flmul@b
  7891   005152  C039  F012         	movff	scalbnf@y+1,___flmul@b+1
  7892   005156  C03A  F013         	movff	scalbnf@y+2,___flmul@b+2
  7893   00515A  C03B  F014         	movff	scalbnf@y+3,___flmul@b+3
  7894   00515E  0E00               	movlw	0
  7895   005160  6E15               	movwf	___flmul@a^0,c
  7896   005162  0E00               	movlw	0
  7897   005164  6E16               	movwf	(___flmul@a+1)^0,c
  7898   005166  0E00               	movlw	0
  7899   005168  6E17               	movwf	(___flmul@a+2)^0,c
  7900   00516A  0E7F               	movlw	127
  7901   00516C  6E18               	movwf	(___flmul@a+3)^0,c
  7902   00516E  EC83  F024         	call	___flmul	;wreg free
  7903   005172  C011  F038         	movff	?___flmul,scalbnf@y
  7904   005176  C012  F039         	movff	?___flmul+1,scalbnf@y+1
  7905   00517A  C013  F03A         	movff	?___flmul+2,scalbnf@y+2
  7906   00517E  C014  F03B         	movff	?___flmul+3,scalbnf@y+3
  7907   005182  0E81               	movlw	129
  7908   005184  262E               	addwf	scalbnf@n^0,f,c
  7909   005186  0EFF               	movlw	255
  7910   005188  222F               	addwfc	(scalbnf@n+1)^0,f,c
  7911   00518A  BE2F               	btfsc	(scalbnf@n+1)^0,7,c
  7912   00518C  EFD1  F028         	goto	u3361
  7913   005190  502F               	movf	(scalbnf@n+1)^0,w,c
  7914   005192  E109               	bnz	u3360
  7915   005194  0E80               	movlw	128
  7916   005196  5C2E               	subwf	scalbnf@n^0,w,c
  7917   005198  A0D8               	btfss	status,0,c
  7918   00519A  EFD1  F028         	goto	u3361
  7919   00519E  EFD3  F028         	goto	u3360
  7920   0051A2                     u3361:
  7921   0051A2  EF43  F029         	goto	l3613
  7922   0051A6                     u3360:
  7923   0051A6  0E00               	movlw	0
  7924   0051A8  6E2F               	movwf	(scalbnf@n+1)^0,c
  7925   0051AA  0E7F               	movlw	127
  7926   0051AC  6E2E               	movwf	scalbnf@n^0,c
  7927   0051AE  EF43  F029         	goto	l3613
  7928   0051B2                     l3597:
  7929   0051B2  AE2F               	btfss	(scalbnf@n+1)^0,7,c
  7930   0051B4  EFE5  F028         	goto	u3371
  7931   0051B8  0E82               	movlw	130
  7932   0051BA  5C2E               	subwf	scalbnf@n^0,w,c
  7933   0051BC  0EFF               	movlw	255
  7934   0051BE  582F               	subwfb	(scalbnf@n+1)^0,w,c
  7935   0051C0  B0D8               	btfsc	status,0,c
  7936   0051C2  EFE5  F028         	goto	u3371
  7937   0051C6  EFE7  F028         	goto	u3370
  7938   0051CA                     u3371:
  7939   0051CA  EF43  F029         	goto	l3613
  7940   0051CE                     u3370:
  7941   0051CE  C038  F011         	movff	scalbnf@y,___flmul@b
  7942   0051D2  C039  F012         	movff	scalbnf@y+1,___flmul@b+1
  7943   0051D6  C03A  F013         	movff	scalbnf@y+2,___flmul@b+2
  7944   0051DA  C03B  F014         	movff	scalbnf@y+3,___flmul@b+3
  7945   0051DE  0E00               	movlw	0
  7946   0051E0  6E15               	movwf	___flmul@a^0,c
  7947   0051E2  0E00               	movlw	0
  7948   0051E4  6E16               	movwf	(___flmul@a+1)^0,c
  7949   0051E6  0E80               	movlw	128
  7950   0051E8  6E17               	movwf	(___flmul@a+2)^0,c
  7951   0051EA  0E0C               	movlw	12
  7952   0051EC  6E18               	movwf	(___flmul@a+3)^0,c
  7953   0051EE  EC83  F024         	call	___flmul	;wreg free
  7954   0051F2  C011  F038         	movff	?___flmul,scalbnf@y
  7955   0051F6  C012  F039         	movff	?___flmul+1,scalbnf@y+1
  7956   0051FA  C013  F03A         	movff	?___flmul+2,scalbnf@y+2
  7957   0051FE  C014  F03B         	movff	?___flmul+3,scalbnf@y+3
  7958   005202  0E66               	movlw	102
  7959   005204  262E               	addwf	scalbnf@n^0,f,c
  7960   005206  0E00               	movlw	0
  7961   005208  222F               	addwfc	(scalbnf@n+1)^0,f,c
  7962   00520A  AE2F               	btfss	(scalbnf@n+1)^0,7,c
  7963   00520C  EF11  F029         	goto	u3381
  7964   005210  0E82               	movlw	130
  7965   005212  5C2E               	subwf	scalbnf@n^0,w,c
  7966   005214  0EFF               	movlw	255
  7967   005216  582F               	subwfb	(scalbnf@n+1)^0,w,c
  7968   005218  B0D8               	btfsc	status,0,c
  7969   00521A  EF11  F029         	goto	u3381
  7970   00521E  EF13  F029         	goto	u3380
  7971   005222                     u3381:
  7972   005222  EF43  F029         	goto	l3613
  7973   005226                     u3380:
  7974   005226  C038  F011         	movff	scalbnf@y,___flmul@b
  7975   00522A  C039  F012         	movff	scalbnf@y+1,___flmul@b+1
  7976   00522E  C03A  F013         	movff	scalbnf@y+2,___flmul@b+2
  7977   005232  C03B  F014         	movff	scalbnf@y+3,___flmul@b+3
  7978   005236  0E00               	movlw	0
  7979   005238  6E15               	movwf	___flmul@a^0,c
  7980   00523A  0E00               	movlw	0
  7981   00523C  6E16               	movwf	(___flmul@a+1)^0,c
  7982   00523E  0E80               	movlw	128
  7983   005240  6E17               	movwf	(___flmul@a+2)^0,c
  7984   005242  0E0C               	movlw	12
  7985   005244  6E18               	movwf	(___flmul@a+3)^0,c
  7986   005246  EC83  F024         	call	___flmul	;wreg free
  7987   00524A  C011  F038         	movff	?___flmul,scalbnf@y
  7988   00524E  C012  F039         	movff	?___flmul+1,scalbnf@y+1
  7989   005252  C013  F03A         	movff	?___flmul+2,scalbnf@y+2
  7990   005256  C014  F03B         	movff	?___flmul+3,scalbnf@y+3
  7991   00525A  0E66               	movlw	102
  7992   00525C  262E               	addwf	scalbnf@n^0,f,c
  7993   00525E  0E00               	movlw	0
  7994   005260  222F               	addwfc	(scalbnf@n+1)^0,f,c
  7995   005262  AE2F               	btfss	(scalbnf@n+1)^0,7,c
  7996   005264  EF3D  F029         	goto	u3391
  7997   005268  0E82               	movlw	130
  7998   00526A  5C2E               	subwf	scalbnf@n^0,w,c
  7999   00526C  0EFF               	movlw	255
  8000   00526E  582F               	subwfb	(scalbnf@n+1)^0,w,c
  8001   005270  B0D8               	btfsc	status,0,c
  8002   005272  EF3D  F029         	goto	u3391
  8003   005276  EF3F  F029         	goto	u3390
  8004   00527A                     u3391:
  8005   00527A  EF43  F029         	goto	l3613
  8006   00527E                     u3390:
  8007   00527E  0EFF               	movlw	255
  8008   005280  6E2F               	movwf	(scalbnf@n+1)^0,c
  8009   005282  0E82               	movlw	130
  8010   005284  6E2E               	movwf	scalbnf@n^0,c
  8011   005286                     l3613:
  8012   005286  0E7F               	movlw	127
  8013   005288  242E               	addwf	scalbnf@n^0,w,c
  8014   00528A  6E30               	movwf	??_scalbnf^0,c
  8015   00528C  0E00               	movlw	0
  8016   00528E  202F               	addwfc	(scalbnf@n+1)^0,w,c
  8017   005290  6E31               	movwf	(??_scalbnf+1)^0,c
  8018   005292  6A32               	clrf	(??_scalbnf+2)^0,c
  8019   005294  6A33               	clrf	(??_scalbnf+3)^0,c
  8020   005296  0E17               	movlw	23
  8021   005298                     u3405:
  8022   005298  90D8               	bcf	status,0,c
  8023   00529A  3630               	rlcf	??_scalbnf^0,f,c
  8024   00529C  3631               	rlcf	(??_scalbnf+1)^0,f,c
  8025   00529E  3632               	rlcf	(??_scalbnf+2)^0,f,c
  8026   0052A0  3633               	rlcf	(??_scalbnf+3)^0,f,c
  8027   0052A2  2EE8               	decfsz	wreg,f,c
  8028   0052A4  EF4C  F029         	goto	u3405
  8029   0052A8  C030  F034         	movff	??_scalbnf,scalbnf@u
  8030   0052AC  C031  F035         	movff	??_scalbnf+1,scalbnf@u+1
  8031   0052B0  C032  F036         	movff	??_scalbnf+2,scalbnf@u+2
  8032   0052B4  C033  F037         	movff	??_scalbnf+3,scalbnf@u+3
  8033   0052B8  C034  F011         	movff	scalbnf@u,___flmul@b
  8034   0052BC  C035  F012         	movff	scalbnf@u+1,___flmul@b+1
  8035   0052C0  C036  F013         	movff	scalbnf@u+2,___flmul@b+2
  8036   0052C4  C037  F014         	movff	scalbnf@u+3,___flmul@b+3
  8037   0052C8  C038  F015         	movff	scalbnf@y,___flmul@a
  8038   0052CC  C039  F016         	movff	scalbnf@y+1,___flmul@a+1
  8039   0052D0  C03A  F017         	movff	scalbnf@y+2,___flmul@a+2
  8040   0052D4  C03B  F018         	movff	scalbnf@y+3,___flmul@a+3
  8041   0052D8  EC83  F024         	call	___flmul	;wreg free
  8042   0052DC  C011  F02A         	movff	?___flmul,scalbnf@x
  8043   0052E0  C012  F02B         	movff	?___flmul+1,scalbnf@x+1
  8044   0052E4  C013  F02C         	movff	?___flmul+2,scalbnf@x+2
  8045   0052E8  C014  F02D         	movff	?___flmul+3,scalbnf@x+3
  8046   0052EC  C02A  F02A         	movff	scalbnf@x,?_scalbnf
  8047   0052F0  C02B  F02B         	movff	scalbnf@x+1,?_scalbnf+1
  8048   0052F4  C02C  F02C         	movff	scalbnf@x+2,?_scalbnf+2
  8049   0052F8  C02D  F02D         	movff	scalbnf@x+3,?_scalbnf+3
  8050   0052FC  0012               	return		;funcret
  8051   0052FE                     __end_of_scalbnf:
  8052                           	callstack 0
  8053                           
  8054 ;; *************** function ___flmul *****************
  8055 ;; Defined at:
  8056 ;;		line 8 in file "C:\Program Files\Microchip\xc8\v2.40\pic\sources\c99\common\sprcmul.c"
  8057 ;; Parameters:    Size  Location     Type
  8058 ;;  b               4   16[COMRAM] float 
  8059 ;;  a               4   20[COMRAM] float 
  8060 ;; Auto vars:     Size  Location     Type
  8061 ;;  prod            4   35[COMRAM] struct .
  8062 ;;  grs             4   29[COMRAM] unsigned long 
  8063 ;;  temp            2   39[COMRAM] struct .
  8064 ;;  bexp            1   34[COMRAM] unsigned char 
  8065 ;;  aexp            1   33[COMRAM] unsigned char 
  8066 ;;  sign            1   28[COMRAM] unsigned char 
  8067 ;; Return value:  Size  Location     Type
  8068 ;;                  4   16[COMRAM] unsigned char 
  8069 ;; Registers used:
  8070 ;;		wreg, status,2, status,0, prodl, prodh
  8071 ;; Tracked objects:
  8072 ;;		On entry : 0/0
  8073 ;;		On exit  : 0/0
  8074 ;;		Unchanged: 0/0
  8075 ;; Data sizes:     COMRAM   BANK0   BANK1   BANK2   BANK3   BANK4   BANK5   BANK6   BANK7   BANK8   BANK9  BANK10  BANK1
      +1  BANK12  BANK13  BANK14  BANK15
  8076 ;;      Params:         8       0       0       0       0       0       0       0       0       0       0       0       
      +0       0       0       0       0
  8077 ;;      Locals:        13       0       0       0       0       0       0       0       0       0       0       0       
      +0       0       0       0       0
  8078 ;;      Temps:          4       0       0       0       0       0       0       0       0       0       0       0       
      +0       0       0       0       0
  8079 ;;      Totals:        25       0       0       0       0       0       0       0       0       0       0       0       
      +0       0       0       0       0
  8080 ;;Total ram usage:       25 bytes
  8081 ;; Hardware stack levels used: 1
  8082 ;; This function calls:
  8083 ;;		Nothing
  8084 ;; This function is called by:
  8085 ;;		_increment
  8086 ;;		_powf
  8087 ;;		_scalbnf
  8088 ;;		_sqrtf
  8089 ;; This function uses a non-reentrant model
  8090 ;;
  8091                           
  8092                           	psect	text12
  8093   004906                     __ptext12:
  8094                           	callstack 0
  8095   004906                     ___flmul:
  8096                           	callstack 26
  8097   004906  5014               	movf	(___flmul@b+3)^0,w,c
  8098   004908  0B80               	andlw	128
  8099   00490A  6E1D               	movwf	___flmul@sign^0,c
  8100   00490C  5014               	movf	(___flmul@b+3)^0,w,c
  8101   00490E  2414               	addwf	(___flmul@b+3)^0,w,c
  8102   004910  6E23               	movwf	___flmul@bexp^0,c
  8103   004912  AE13               	btfss	(___flmul@b+2)^0,7,c
  8104   004914  EF8E  F024         	goto	u2621
  8105   004918  EF90  F024         	goto	u2620
  8106   00491C                     u2621:
  8107   00491C  EF91  F024         	goto	l3117
  8108   004920                     u2620:
  8109   004920  8023               	bsf	___flmul@bexp^0,0,c
  8110   004922                     l3117:
  8111   004922  5023               	movf	___flmul@bexp^0,w,c
  8112   004924  B4D8               	btfsc	status,2,c
  8113   004926  EF97  F024         	goto	u2631
  8114   00492A  EF99  F024         	goto	u2630
  8115   00492E                     u2631:
  8116   00492E  EFAC  F024         	goto	l3125
  8117   004932                     u2630:
  8118   004932  2823               	incf	___flmul@bexp^0,w,c
  8119   004934  A4D8               	btfss	status,2,c
  8120   004936  EF9F  F024         	goto	u2641
  8121   00493A  EFA1  F024         	goto	u2640
  8122   00493E                     u2641:
  8123   00493E  EFA9  F024         	goto	l3123
  8124   004942                     u2640:
  8125   004942  0E00               	movlw	0
  8126   004944  6E11               	movwf	___flmul@b^0,c
  8127   004946  0E00               	movlw	0
  8128   004948  6E12               	movwf	(___flmul@b+1)^0,c
  8129   00494A  0E00               	movlw	0
  8130   00494C  6E13               	movwf	(___flmul@b+2)^0,c
  8131   00494E  0E00               	movlw	0
  8132   004950  6E14               	movwf	(___flmul@b+3)^0,c
  8133   004952                     l3123:
  8134   004952  8E13               	bsf	(___flmul@b+2)^0,7,c
  8135   004954  EFB4  F024         	goto	l3127
  8136   004958                     l3125:
  8137   004958  0E00               	movlw	0
  8138   00495A  6E11               	movwf	___flmul@b^0,c
  8139   00495C  0E00               	movlw	0
  8140   00495E  6E12               	movwf	(___flmul@b+1)^0,c
  8141   004960  0E00               	movlw	0
  8142   004962  6E13               	movwf	(___flmul@b+2)^0,c
  8143   004964  0E00               	movlw	0
  8144   004966  6E14               	movwf	(___flmul@b+3)^0,c
  8145   004968                     l3127:
  8146   004968  5018               	movf	(___flmul@a+3)^0,w,c
  8147   00496A  0B80               	andlw	128
  8148   00496C  1A1D               	xorwf	___flmul@sign^0,f,c
  8149   00496E  5018               	movf	(___flmul@a+3)^0,w,c
  8150   004970  2418               	addwf	(___flmul@a+3)^0,w,c
  8151   004972  6E22               	movwf	___flmul@aexp^0,c
  8152   004974  AE17               	btfss	(___flmul@a+2)^0,7,c
  8153   004976  EFBF  F024         	goto	u2651
  8154   00497A  EFC1  F024         	goto	u2650
  8155   00497E                     u2651:
  8156   00497E  EFC2  F024         	goto	l3135
  8157   004982                     u2650:
  8158   004982  8022               	bsf	___flmul@aexp^0,0,c
  8159   004984                     l3135:
  8160   004984  5022               	movf	___flmul@aexp^0,w,c
  8161   004986  B4D8               	btfsc	status,2,c
  8162   004988  EFC8  F024         	goto	u2661
  8163   00498C  EFCA  F024         	goto	u2660
  8164   004990                     u2661:
  8165   004990  EFDD  F024         	goto	l3143
  8166   004994                     u2660:
  8167   004994  2822               	incf	___flmul@aexp^0,w,c
  8168   004996  A4D8               	btfss	status,2,c
  8169   004998  EFD0  F024         	goto	u2671
  8170   00499C  EFD2  F024         	goto	u2670
  8171   0049A0                     u2671:
  8172   0049A0  EFDA  F024         	goto	l3141
  8173   0049A4                     u2670:
  8174   0049A4  0E00               	movlw	0
  8175   0049A6  6E15               	movwf	___flmul@a^0,c
  8176   0049A8  0E00               	movlw	0
  8177   0049AA  6E16               	movwf	(___flmul@a+1)^0,c
  8178   0049AC  0E00               	movlw	0
  8179   0049AE  6E17               	movwf	(___flmul@a+2)^0,c
  8180   0049B0  0E00               	movlw	0
  8181   0049B2  6E18               	movwf	(___flmul@a+3)^0,c
  8182   0049B4                     l3141:
  8183   0049B4  8E17               	bsf	(___flmul@a+2)^0,7,c
  8184   0049B6  EFE5  F024         	goto	l947
  8185   0049BA                     l3143:
  8186   0049BA  0E00               	movlw	0
  8187   0049BC  6E15               	movwf	___flmul@a^0,c
  8188   0049BE  0E00               	movlw	0
  8189   0049C0  6E16               	movwf	(___flmul@a+1)^0,c
  8190   0049C2  0E00               	movlw	0
  8191   0049C4  6E17               	movwf	(___flmul@a+2)^0,c
  8192   0049C6  0E00               	movlw	0
  8193   0049C8  6E18               	movwf	(___flmul@a+3)^0,c
  8194   0049CA                     l947:
  8195   0049CA  5022               	movf	___flmul@aexp^0,w,c
  8196   0049CC  B4D8               	btfsc	status,2,c
  8197   0049CE  EFEB  F024         	goto	u2681
  8198   0049D2  EFED  F024         	goto	u2680
  8199   0049D6                     u2681:
  8200   0049D6  EFF5  F024         	goto	l3147
  8201   0049DA                     u2680:
  8202   0049DA  5023               	movf	___flmul@bexp^0,w,c
  8203   0049DC  A4D8               	btfss	status,2,c
  8204   0049DE  EFF3  F024         	goto	u2691
  8205   0049E2  EFF5  F024         	goto	u2690
  8206   0049E6                     u2691:
  8207   0049E6  EFFF  F024         	goto	l3151
  8208   0049EA                     u2690:
  8209   0049EA                     l3147:
  8210   0049EA  0E00               	movlw	0
  8211   0049EC  6E11               	movwf	?___flmul^0,c
  8212   0049EE  0E00               	movlw	0
  8213   0049F0  6E12               	movwf	(?___flmul+1)^0,c
  8214   0049F2  0E00               	movlw	0
  8215   0049F4  6E13               	movwf	(?___flmul+2)^0,c
  8216   0049F6  0E00               	movlw	0
  8217   0049F8  6E14               	movwf	(?___flmul+3)^0,c
  8218   0049FA  EF97  F026         	goto	l951
  8219   0049FE                     l3151:
  8220   0049FE  5017               	movf	(___flmul@a+2)^0,w,c
  8221   004A00  0211               	mulwf	___flmul@b^0,c
  8222   004A02  CFF3 F028          	movff	prodl,___flmul@temp
  8223   004A06  CFF4 F029          	movff	prodh,___flmul@temp+1
  8224   004A0A  5028               	movf	___flmul@temp^0,w,c
  8225   004A0C  6E1E               	movwf	___flmul@grs^0,c
  8226   004A0E  6A1F               	clrf	(___flmul@grs+1)^0,c
  8227   004A10  6A20               	clrf	(___flmul@grs+2)^0,c
  8228   004A12  6A21               	clrf	(___flmul@grs+3)^0,c
  8229   004A14  5029               	movf	(___flmul@temp+1)^0,w,c
  8230   004A16  6E24               	movwf	___flmul@prod^0,c
  8231   004A18  6A25               	clrf	(___flmul@prod+1)^0,c
  8232   004A1A  6A26               	clrf	(___flmul@prod+2)^0,c
  8233   004A1C  6A27               	clrf	(___flmul@prod+3)^0,c
  8234   004A1E  5016               	movf	(___flmul@a+1)^0,w,c
  8235   004A20  0212               	mulwf	(___flmul@b+1)^0,c
  8236   004A22  CFF3 F028          	movff	prodl,___flmul@temp
  8237   004A26  CFF4 F029          	movff	prodh,___flmul@temp+1
  8238   004A2A  5028               	movf	___flmul@temp^0,w,c
  8239   004A2C  261E               	addwf	___flmul@grs^0,f,c
  8240   004A2E  0E00               	movlw	0
  8241   004A30  221F               	addwfc	(___flmul@grs+1)^0,f,c
  8242   004A32  2220               	addwfc	(___flmul@grs+2)^0,f,c
  8243   004A34  2221               	addwfc	(___flmul@grs+3)^0,f,c
  8244   004A36  5029               	movf	(___flmul@temp+1)^0,w,c
  8245   004A38  2624               	addwf	___flmul@prod^0,f,c
  8246   004A3A  0E00               	movlw	0
  8247   004A3C  2225               	addwfc	(___flmul@prod+1)^0,f,c
  8248   004A3E  2226               	addwfc	(___flmul@prod+2)^0,f,c
  8249   004A40  2227               	addwfc	(___flmul@prod+3)^0,f,c
  8250   004A42  5015               	movf	___flmul@a^0,w,c
  8251   004A44  0213               	mulwf	(___flmul@b+2)^0,c
  8252   004A46  CFF3 F028          	movff	prodl,___flmul@temp
  8253   004A4A  CFF4 F029          	movff	prodh,___flmul@temp+1
  8254   004A4E  5028               	movf	___flmul@temp^0,w,c
  8255   004A50  261E               	addwf	___flmul@grs^0,f,c
  8256   004A52  0E00               	movlw	0
  8257   004A54  221F               	addwfc	(___flmul@grs+1)^0,f,c
  8258   004A56  2220               	addwfc	(___flmul@grs+2)^0,f,c
  8259   004A58  2221               	addwfc	(___flmul@grs+3)^0,f,c
  8260   004A5A  5029               	movf	(___flmul@temp+1)^0,w,c
  8261   004A5C  2624               	addwf	___flmul@prod^0,f,c
  8262   004A5E  0E00               	movlw	0
  8263   004A60  2225               	addwfc	(___flmul@prod+1)^0,f,c
  8264   004A62  2226               	addwfc	(___flmul@prod+2)^0,f,c
  8265   004A64  2227               	addwfc	(___flmul@prod+3)^0,f,c
  8266   004A66  C020  F021         	movff	___flmul@grs+2,___flmul@grs+3
  8267   004A6A  C01F  F020         	movff	___flmul@grs+1,___flmul@grs+2
  8268   004A6E  C01E  F01F         	movff	___flmul@grs,___flmul@grs+1
  8269   004A72  6A1E               	clrf	___flmul@grs^0,c
  8270   004A74  5015               	movf	___flmul@a^0,w,c
  8271   004A76  0212               	mulwf	(___flmul@b+1)^0,c
  8272   004A78  CFF3 F028          	movff	prodl,___flmul@temp
  8273   004A7C  CFF4 F029          	movff	prodh,___flmul@temp+1
  8274   004A80  5028               	movf	___flmul@temp^0,w,c
  8275   004A82  261E               	addwf	___flmul@grs^0,f,c
  8276   004A84  5029               	movf	(___flmul@temp+1)^0,w,c
  8277   004A86  221F               	addwfc	(___flmul@grs+1)^0,f,c
  8278   004A88  0E00               	movlw	0
  8279   004A8A  2220               	addwfc	(___flmul@grs+2)^0,f,c
  8280   004A8C  0E00               	movlw	0
  8281   004A8E  2221               	addwfc	(___flmul@grs+3)^0,f,c
  8282   004A90  5016               	movf	(___flmul@a+1)^0,w,c
  8283   004A92  0211               	mulwf	___flmul@b^0,c
  8284   004A94  CFF3 F028          	movff	prodl,___flmul@temp
  8285   004A98  CFF4 F029          	movff	prodh,___flmul@temp+1
  8286   004A9C  5028               	movf	___flmul@temp^0,w,c
  8287   004A9E  261E               	addwf	___flmul@grs^0,f,c
  8288   004AA0  5029               	movf	(___flmul@temp+1)^0,w,c
  8289   004AA2  221F               	addwfc	(___flmul@grs+1)^0,f,c
  8290   004AA4  0E00               	movlw	0
  8291   004AA6  2220               	addwfc	(___flmul@grs+2)^0,f,c
  8292   004AA8  0E00               	movlw	0
  8293   004AAA  2221               	addwfc	(___flmul@grs+3)^0,f,c
  8294   004AAC  C020  F021         	movff	___flmul@grs+2,___flmul@grs+3
  8295   004AB0  C01F  F020         	movff	___flmul@grs+1,___flmul@grs+2
  8296   004AB4  C01E  F01F         	movff	___flmul@grs,___flmul@grs+1
  8297   004AB8  6A1E               	clrf	___flmul@grs^0,c
  8298   004ABA  5015               	movf	___flmul@a^0,w,c
  8299   004ABC  0211               	mulwf	___flmul@b^0,c
  8300   004ABE  CFF3 F028          	movff	prodl,___flmul@temp
  8301   004AC2  CFF4 F029          	movff	prodh,___flmul@temp+1
  8302   004AC6  5028               	movf	___flmul@temp^0,w,c
  8303   004AC8  261E               	addwf	___flmul@grs^0,f,c
  8304   004ACA  5029               	movf	(___flmul@temp+1)^0,w,c
  8305   004ACC  221F               	addwfc	(___flmul@grs+1)^0,f,c
  8306   004ACE  0E00               	movlw	0
  8307   004AD0  2220               	addwfc	(___flmul@grs+2)^0,f,c
  8308   004AD2  0E00               	movlw	0
  8309   004AD4  2221               	addwfc	(___flmul@grs+3)^0,f,c
  8310   004AD6  5017               	movf	(___flmul@a+2)^0,w,c
  8311   004AD8  0212               	mulwf	(___flmul@b+1)^0,c
  8312   004ADA  CFF3 F028          	movff	prodl,___flmul@temp
  8313   004ADE  CFF4 F029          	movff	prodh,___flmul@temp+1
  8314   004AE2  5028               	movf	___flmul@temp^0,w,c
  8315   004AE4  2624               	addwf	___flmul@prod^0,f,c
  8316   004AE6  5029               	movf	(___flmul@temp+1)^0,w,c
  8317   004AE8  2225               	addwfc	(___flmul@prod+1)^0,f,c
  8318   004AEA  0E00               	movlw	0
  8319   004AEC  2226               	addwfc	(___flmul@prod+2)^0,f,c
  8320   004AEE  0E00               	movlw	0
  8321   004AF0  2227               	addwfc	(___flmul@prod+3)^0,f,c
  8322   004AF2  5016               	movf	(___flmul@a+1)^0,w,c
  8323   004AF4  0213               	mulwf	(___flmul@b+2)^0,c
  8324   004AF6  CFF3 F028          	movff	prodl,___flmul@temp
  8325   004AFA  CFF4 F029          	movff	prodh,___flmul@temp+1
  8326   004AFE  5028               	movf	___flmul@temp^0,w,c
  8327   004B00  2624               	addwf	___flmul@prod^0,f,c
  8328   004B02  5029               	movf	(___flmul@temp+1)^0,w,c
  8329   004B04  2225               	addwfc	(___flmul@prod+1)^0,f,c
  8330   004B06  0E00               	movlw	0
  8331   004B08  2226               	addwfc	(___flmul@prod+2)^0,f,c
  8332   004B0A  0E00               	movlw	0
  8333   004B0C  2227               	addwfc	(___flmul@prod+3)^0,f,c
  8334   004B0E  5017               	movf	(___flmul@a+2)^0,w,c
  8335   004B10  0213               	mulwf	(___flmul@b+2)^0,c
  8336   004B12  CFF3 F028          	movff	prodl,___flmul@temp
  8337   004B16  CFF4 F029          	movff	prodh,___flmul@temp+1
  8338   004B1A  5028               	movf	___flmul@temp^0,w,c
  8339   004B1C  6E19               	movwf	??___flmul^0,c
  8340   004B1E  5029               	movf	(___flmul@temp+1)^0,w,c
  8341   004B20  6E1A               	movwf	(??___flmul+1)^0,c
  8342   004B22  6A1B               	clrf	(??___flmul+2)^0,c
  8343   004B24  6A1C               	clrf	(??___flmul+3)^0,c
  8344   004B26  C01B  F01C         	movff	??___flmul+2,??___flmul+3
  8345   004B2A  C01A  F01B         	movff	??___flmul+1,??___flmul+2
  8346   004B2E  C019  F01A         	movff	??___flmul,??___flmul+1
  8347   004B32  6A19               	clrf	??___flmul^0,c
  8348   004B34  5019               	movf	??___flmul^0,w,c
  8349   004B36  2624               	addwf	___flmul@prod^0,f,c
  8350   004B38  501A               	movf	(??___flmul+1)^0,w,c
  8351   004B3A  2225               	addwfc	(___flmul@prod+1)^0,f,c
  8352   004B3C  501B               	movf	(??___flmul+2)^0,w,c
  8353   004B3E  2226               	addwfc	(___flmul@prod+2)^0,f,c
  8354   004B40  501C               	movf	(??___flmul+3)^0,w,c
  8355   004B42  2227               	addwfc	(___flmul@prod+3)^0,f,c
  8356   004B44  C01E  F019         	movff	___flmul@grs,??___flmul
  8357   004B48  C01F  F01A         	movff	___flmul@grs+1,??___flmul+1
  8358   004B4C  C020  F01B         	movff	___flmul@grs+2,??___flmul+2
  8359   004B50  C021  F01C         	movff	___flmul@grs+3,??___flmul+3
  8360   004B54  0E19               	movlw	25
  8361   004B56  EFB2  F025         	goto	u2700
  8362   004B5A                     u2705:
  8363   004B5A  90D8               	bcf	status,0,c
  8364   004B5C  321C               	rrcf	(??___flmul+3)^0,f,c
  8365   004B5E  321B               	rrcf	(??___flmul+2)^0,f,c
  8366   004B60  321A               	rrcf	(??___flmul+1)^0,f,c
  8367   004B62  3219               	rrcf	??___flmul^0,f,c
  8368   004B64                     u2700:
  8369   004B64  2EE8               	decfsz	wreg,f,c
  8370   004B66  EFAD  F025         	goto	u2705
  8371   004B6A  5019               	movf	??___flmul^0,w,c
  8372   004B6C  2624               	addwf	___flmul@prod^0,f,c
  8373   004B6E  501A               	movf	(??___flmul+1)^0,w,c
  8374   004B70  2225               	addwfc	(___flmul@prod+1)^0,f,c
  8375   004B72  501B               	movf	(??___flmul+2)^0,w,c
  8376   004B74  2226               	addwfc	(___flmul@prod+2)^0,f,c
  8377   004B76  501C               	movf	(??___flmul+3)^0,w,c
  8378   004B78  2227               	addwfc	(___flmul@prod+3)^0,f,c
  8379   004B7A  C020  F021         	movff	___flmul@grs+2,___flmul@grs+3
  8380   004B7E  C01F  F020         	movff	___flmul@grs+1,___flmul@grs+2
  8381   004B82  C01E  F01F         	movff	___flmul@grs,___flmul@grs+1
  8382   004B86  6A1E               	clrf	___flmul@grs^0,c
  8383   004B88  5022               	movf	___flmul@aexp^0,w,c
  8384   004B8A  C023  F019         	movff	___flmul@bexp,??___flmul
  8385   004B8E  6A1A               	clrf	(??___flmul+1)^0,c
  8386   004B90  2619               	addwf	??___flmul^0,f,c
  8387   004B92  0E00               	movlw	0
  8388   004B94  221A               	addwfc	(??___flmul+1)^0,f,c
  8389   004B96  0E82               	movlw	130
  8390   004B98  2419               	addwf	??___flmul^0,w,c
  8391   004B9A  6E28               	movwf	___flmul@temp^0,c
  8392   004B9C  0EFF               	movlw	255
  8393   004B9E  201A               	addwfc	(??___flmul+1)^0,w,c
  8394   004BA0  6E29               	movwf	(___flmul@temp+1)^0,c
  8395   004BA2  EFE8  F025         	goto	l3199
  8396   004BA6                     l3193:
  8397   004BA6  90D8               	bcf	status,0,c
  8398   004BA8  3624               	rlcf	___flmul@prod^0,f,c
  8399   004BAA  3625               	rlcf	(___flmul@prod+1)^0,f,c
  8400   004BAC  3626               	rlcf	(___flmul@prod+2)^0,f,c
  8401   004BAE  3627               	rlcf	(___flmul@prod+3)^0,f,c
  8402   004BB0  AE21               	btfss	(___flmul@grs+3)^0,7,c
  8403   004BB2  EFDD  F025         	goto	u2711
  8404   004BB6  EFDF  F025         	goto	u2710
  8405   004BBA                     u2711:
  8406   004BBA  EFE0  F025         	goto	l954
  8407   004BBE                     u2710:
  8408   004BBE  8024               	bsf	___flmul@prod^0,0,c
  8409   004BC0                     l954:
  8410   004BC0  90D8               	bcf	status,0,c
  8411   004BC2  361E               	rlcf	___flmul@grs^0,f,c
  8412   004BC4  361F               	rlcf	(___flmul@grs+1)^0,f,c
  8413   004BC6  3620               	rlcf	(___flmul@grs+2)^0,f,c
  8414   004BC8  3621               	rlcf	(___flmul@grs+3)^0,f,c
  8415   004BCA  0628               	decf	___flmul@temp^0,f,c
  8416   004BCC  A0D8               	btfss	status,0,c
  8417   004BCE  0629               	decf	(___flmul@temp+1)^0,f,c
  8418   004BD0                     l3199:
  8419   004BD0  AE26               	btfss	(___flmul@prod+2)^0,7,c
  8420   004BD2  EFED  F025         	goto	u2721
  8421   004BD6  EFEF  F025         	goto	u2720
  8422   004BDA                     u2721:
  8423   004BDA  EFD3  F025         	goto	l3193
  8424   004BDE                     u2720:
  8425   004BDE  0E00               	movlw	0
  8426   004BE0  6E22               	movwf	___flmul@aexp^0,c
  8427   004BE2  AE21               	btfss	(___flmul@grs+3)^0,7,c
  8428   004BE4  EFF6  F025         	goto	u2731
  8429   004BE8  EFF8  F025         	goto	u2730
  8430   004BEC                     u2731:
  8431   004BEC  EF1C  F026         	goto	l956
  8432   004BF0                     u2730:
  8433   004BF0  0EFF               	movlw	255
  8434   004BF2  141E               	andwf	___flmul@grs^0,w,c
  8435   004BF4  6E19               	movwf	??___flmul^0,c
  8436   004BF6  0EFF               	movlw	255
  8437   004BF8  141F               	andwf	(___flmul@grs+1)^0,w,c
  8438   004BFA  6E1A               	movwf	(??___flmul+1)^0,c
  8439   004BFC  0EFF               	movlw	255
  8440   004BFE  1420               	andwf	(___flmul@grs+2)^0,w,c
  8441   004C00  6E1B               	movwf	(??___flmul+2)^0,c
  8442   004C02  0E7F               	movlw	127
  8443   004C04  1421               	andwf	(___flmul@grs+3)^0,w,c
  8444   004C06  6E1C               	movwf	(??___flmul+3)^0,c
  8445   004C08  5019               	movf	??___flmul^0,w,c
  8446   004C0A  101A               	iorwf	(??___flmul+1)^0,w,c
  8447   004C0C  101B               	iorwf	(??___flmul+2)^0,w,c
  8448   004C0E  101C               	iorwf	(??___flmul+3)^0,w,c
  8449   004C10  B4D8               	btfsc	status,2,c
  8450   004C12  EF0D  F026         	goto	u2741
  8451   004C16  EF0F  F026         	goto	u2740
  8452   004C1A                     u2741:
  8453   004C1A  EF13  F026         	goto	l957
  8454   004C1E                     u2740:
  8455   004C1E                     l3207:
  8456   004C1E  0E01               	movlw	1
  8457   004C20  6E22               	movwf	___flmul@aexp^0,c
  8458   004C22  EF1C  F026         	goto	l956
  8459   004C26                     l957:
  8460   004C26  A024               	btfss	___flmul@prod^0,0,c
  8461   004C28  EF18  F026         	goto	u2751
  8462   004C2C  EF1A  F026         	goto	u2750
  8463   004C30                     u2751:
  8464   004C30  EF1C  F026         	goto	l956
  8465   004C34                     u2750:
  8466   004C34  EF0F  F026         	goto	l3207
  8467   004C38                     l956:
  8468   004C38  5022               	movf	___flmul@aexp^0,w,c
  8469   004C3A  B4D8               	btfsc	status,2,c
  8470   004C3C  EF22  F026         	goto	u2761
  8471   004C40  EF24  F026         	goto	u2760
  8472   004C44                     u2761:
  8473   004C44  EF48  F026         	goto	l3219
  8474   004C48                     u2760:
  8475   004C48  0E01               	movlw	1
  8476   004C4A  2624               	addwf	___flmul@prod^0,f,c
  8477   004C4C  0E00               	movlw	0
  8478   004C4E  2225               	addwfc	(___flmul@prod+1)^0,f,c
  8479   004C50  2226               	addwfc	(___flmul@prod+2)^0,f,c
  8480   004C52  2227               	addwfc	(___flmul@prod+3)^0,f,c
  8481   004C54  A027               	btfss	(___flmul@prod+3)^0,0,c
  8482   004C56  EF2F  F026         	goto	u2771
  8483   004C5A  EF31  F026         	goto	u2770
  8484   004C5E                     u2771:
  8485   004C5E  EF48  F026         	goto	l3219
  8486   004C62                     u2770:
  8487   004C62  C024  F019         	movff	___flmul@prod,??___flmul
  8488   004C66  C025  F01A         	movff	___flmul@prod+1,??___flmul+1
  8489   004C6A  C026  F01B         	movff	___flmul@prod+2,??___flmul+2
  8490   004C6E  C027  F01C         	movff	___flmul@prod+3,??___flmul+3
  8491   004C72  341C               	rlcf	(??___flmul+3)^0,w,c
  8492   004C74  321C               	rrcf	(??___flmul+3)^0,f,c
  8493   004C76  321B               	rrcf	(??___flmul+2)^0,f,c
  8494   004C78  321A               	rrcf	(??___flmul+1)^0,f,c
  8495   004C7A  3219               	rrcf	??___flmul^0,f,c
  8496   004C7C  C019  F024         	movff	??___flmul,___flmul@prod
  8497   004C80  C01A  F025         	movff	??___flmul+1,___flmul@prod+1
  8498   004C84  C01B  F026         	movff	??___flmul+2,___flmul@prod+2
  8499   004C88  C01C  F027         	movff	??___flmul+3,___flmul@prod+3
  8500   004C8C  4A28               	infsnz	___flmul@temp^0,f,c
  8501   004C8E  2A29               	incf	(___flmul@temp+1)^0,f,c
  8502   004C90                     l3219:
  8503   004C90  BE29               	btfsc	(___flmul@temp+1)^0,7,c
  8504   004C92  EF53  F026         	goto	u2781
  8505   004C96  5029               	movf	(___flmul@temp+1)^0,w,c
  8506   004C98  E108               	bnz	u2780
  8507   004C9A  2828               	incf	___flmul@temp^0,w,c
  8508   004C9C  A0D8               	btfss	status,0,c
  8509   004C9E  EF53  F026         	goto	u2781
  8510   004CA2  EF55  F026         	goto	u2780
  8511   004CA6                     u2781:
  8512   004CA6  EF5F  F026         	goto	l3223
  8513   004CAA                     u2780:
  8514   004CAA  0E00               	movlw	0
  8515   004CAC  6E24               	movwf	___flmul@prod^0,c
  8516   004CAE  0E00               	movlw	0
  8517   004CB0  6E25               	movwf	(___flmul@prod+1)^0,c
  8518   004CB2  0E80               	movlw	128
  8519   004CB4  6E26               	movwf	(___flmul@prod+2)^0,c
  8520   004CB6  0E7F               	movlw	127
  8521   004CB8  6E27               	movwf	(___flmul@prod+3)^0,c
  8522   004CBA  EF8D  F026         	goto	l3235
  8523   004CBE                     l3223:
  8524   004CBE  BE29               	btfsc	(___flmul@temp+1)^0,7,c
  8525   004CC0  EF6C  F026         	goto	u2790
  8526   004CC4  5029               	movf	(___flmul@temp+1)^0,w,c
  8527   004CC6  E106               	bnz	u2791
  8528   004CC8  0428               	decf	___flmul@temp^0,w,c
  8529   004CCA  B0D8               	btfsc	status,0,c
  8530   004CCC  EF6A  F026         	goto	u2791
  8531   004CD0  EF6C  F026         	goto	u2790
  8532   004CD4                     u2791:
  8533   004CD4  EF78  F026         	goto	l964
  8534   004CD8                     u2790:
  8535   004CD8  0E00               	movlw	0
  8536   004CDA  6E24               	movwf	___flmul@prod^0,c
  8537   004CDC  0E00               	movlw	0
  8538   004CDE  6E25               	movwf	(___flmul@prod+1)^0,c
  8539   004CE0  0E00               	movlw	0
  8540   004CE2  6E26               	movwf	(___flmul@prod+2)^0,c
  8541   004CE4  0E00               	movlw	0
  8542   004CE6  6E27               	movwf	(___flmul@prod+3)^0,c
  8543   004CE8  0E00               	movlw	0
  8544   004CEA  6E1D               	movwf	___flmul@sign^0,c
  8545   004CEC  EF8D  F026         	goto	l3235
  8546   004CF0                     l964:
  8547   004CF0  C028  F023         	movff	___flmul@temp,___flmul@bexp
  8548   004CF4  0EFF               	movlw	255
  8549   004CF6  1624               	andwf	___flmul@prod^0,f,c
  8550   004CF8  0EFF               	movlw	255
  8551   004CFA  1625               	andwf	(___flmul@prod+1)^0,f,c
  8552   004CFC  0E7F               	movlw	127
  8553   004CFE  1626               	andwf	(___flmul@prod+2)^0,f,c
  8554   004D00  0E00               	movlw	0
  8555   004D02  1627               	andwf	(___flmul@prod+3)^0,f,c
  8556   004D04  A023               	btfss	___flmul@bexp^0,0,c
  8557   004D06  EF87  F026         	goto	u2801
  8558   004D0A  EF89  F026         	goto	u2800
  8559   004D0E                     u2801:
  8560   004D0E  EF8A  F026         	goto	l3233
  8561   004D12                     u2800:
  8562   004D12  8E26               	bsf	(___flmul@prod+2)^0,7,c
  8563   004D14                     l3233:
  8564   004D14  90D8               	bcf	status,0,c
  8565   004D16  3023               	rrcf	___flmul@bexp^0,w,c
  8566   004D18  6E27               	movwf	(___flmul@prod+3)^0,c
  8567   004D1A                     l3235:
  8568   004D1A  501D               	movf	___flmul@sign^0,w,c
  8569   004D1C  1227               	iorwf	(___flmul@prod+3)^0,f,c
  8570   004D1E  C024  F011         	movff	___flmul@prod,?___flmul
  8571   004D22  C025  F012         	movff	___flmul@prod+1,?___flmul+1
  8572   004D26  C026  F013         	movff	___flmul@prod+2,?___flmul+2
  8573   004D2A  C027  F014         	movff	___flmul@prod+3,?___flmul+3
  8574   004D2E                     l951:
  8575   004D2E  0012               	return		;funcret
  8576   004D30                     __end_of___flmul:
  8577                           	callstack 0
  8578                           
  8579 ;; *************** function _fabsf *****************
  8580 ;; Defined at:
  8581 ;;		line 4 in file "C:\Program Files\Microchip\xc8\v2.40\pic\sources\c99\common\fabsf.c"
  8582 ;; Parameters:    Size  Location     Type
  8583 ;;  x               4    0[COMRAM] float 
  8584 ;; Auto vars:     Size  Location     Type
  8585 ;;  u               4    4[COMRAM] struct .
  8586 ;; Return value:  Size  Location     Type
  8587 ;;                  4    0[COMRAM] float 
  8588 ;; Registers used:
  8589 ;;		status,2, status,0
  8590 ;; Tracked objects:
  8591 ;;		On entry : 0/0
  8592 ;;		On exit  : 0/0
  8593 ;;		Unchanged: 0/0
  8594 ;; Data sizes:     COMRAM   BANK0   BANK1   BANK2   BANK3   BANK4   BANK5   BANK6   BANK7   BANK8   BANK9  BANK10  BANK1
      +1  BANK12  BANK13  BANK14  BANK15
  8595 ;;      Params:         4       0       0       0       0       0       0       0       0       0       0       0       
      +0       0       0       0       0
  8596 ;;      Locals:         4       0       0       0       0       0       0       0       0       0       0       0       
      +0       0       0       0       0
  8597 ;;      Temps:          0       0       0       0       0       0       0       0       0       0       0       0       
      +0       0       0       0       0
  8598 ;;      Totals:         8       0       0       0       0       0       0       0       0       0       0       0       
      +0       0       0       0       0
  8599 ;;Total ram usage:        8 bytes
  8600 ;; Hardware stack levels used: 1
  8601 ;; This function calls:
  8602 ;;		Nothing
  8603 ;; This function is called by:
  8604 ;;		_powf
  8605 ;; This function uses a non-reentrant model
  8606 ;;
  8607                           
  8608                           	psect	text13
  8609   006168                     __ptext13:
  8610                           	callstack 0
  8611   006168                     _fabsf:
  8612                           	callstack 27
  8613   006168  C0B2  F005         	movff	fabsf@F465,fabsf@u
  8614   00616C  C0B3  F006         	movff	fabsf@F465+1,fabsf@u+1
  8615   006170  C0B4  F007         	movff	fabsf@F465+2,fabsf@u+2
  8616   006174  C0B5  F008         	movff	fabsf@F465+3,fabsf@u+3
  8617   006178  C001  F005         	movff	fabsf@x,fabsf@u
  8618   00617C  C002  F006         	movff	fabsf@x+1,fabsf@u+1
  8619   006180  C003  F007         	movff	fabsf@x+2,fabsf@u+2
  8620   006184  C004  F008         	movff	fabsf@x+3,fabsf@u+3
  8621   006188  9E08               	bcf	(fabsf@u+3)^0,7,c
  8622   00618A  C005  F001         	movff	fabsf@u,?_fabsf
  8623   00618E  C006  F002         	movff	fabsf@u+1,?_fabsf+1
  8624   006192  C007  F003         	movff	fabsf@u+2,?_fabsf+2
  8625   006196  C008  F004         	movff	fabsf@u+3,?_fabsf+3
  8626   00619A  0012               	return		;funcret
  8627   00619C                     __end_of_fabsf:
  8628                           	callstack 0
  8629                           
  8630 ;; *************** function ___xxtofl *****************
  8631 ;; Defined at:
  8632 ;;		line 10 in file "C:\Program Files\Microchip\xc8\v2.40\pic\sources\c99\common\xxtofl.c"
  8633 ;; Parameters:    Size  Location     Type
  8634 ;;  sign            1    wreg     unsigned char 
  8635 ;;  val             4    0[COMRAM] long 
  8636 ;; Auto vars:     Size  Location     Type
  8637 ;;  sign            1    8[COMRAM] unsigned char 
  8638 ;;  arg             4   10[COMRAM] unsigned long 
  8639 ;;  exp             1    9[COMRAM] unsigned char 
  8640 ;; Return value:  Size  Location     Type
  8641 ;;                  4    0[COMRAM] unsigned char 
  8642 ;; Registers used:
  8643 ;;		wreg, status,2, status,0
  8644 ;; Tracked objects:
  8645 ;;		On entry : 0/0
  8646 ;;		On exit  : 0/0
  8647 ;;		Unchanged: 0/0
  8648 ;; Data sizes:     COMRAM   BANK0   BANK1   BANK2   BANK3   BANK4   BANK5   BANK6   BANK7   BANK8   BANK9  BANK10  BANK1
      +1  BANK12  BANK13  BANK14  BANK15
  8649 ;;      Params:         4       0       0       0       0       0       0       0       0       0       0       0       
      +0       0       0       0       0
  8650 ;;      Locals:         6       0       0       0       0       0       0       0       0       0       0       0       
      +0       0       0       0       0
  8651 ;;      Temps:          4       0       0       0       0       0       0       0       0       0       0       0       
      +0       0       0       0       0
  8652 ;;      Totals:        14       0       0       0       0       0       0       0       0       0       0       0       
      +0       0       0       0       0
  8653 ;;Total ram usage:       14 bytes
  8654 ;; Hardware stack levels used: 1
  8655 ;; This function calls:
  8656 ;;		Nothing
  8657 ;; This function is called by:
  8658 ;;		_increment
  8659 ;;		_powf
  8660 ;; This function uses a non-reentrant model
  8661 ;;
  8662                           
  8663                           	psect	text14
  8664   0054E8                     __ptext14:
  8665                           	callstack 0
  8666   0054E8                     ___xxtofl:
  8667                           	callstack 27
  8668                           
  8669                           ;incstack = 0
  8670                           ;___xxtofl@sign stored from wreg
  8671   0054E8  6E09               	movwf	___xxtofl@sign^0,c
  8672   0054EA  5009               	movf	___xxtofl@sign^0,w,c
  8673   0054EC  B4D8               	btfsc	status,2,c
  8674   0054EE  EF7B  F02A         	goto	u3101
  8675   0054F2  EF7D  F02A         	goto	u3100
  8676   0054F6                     u3101:
  8677   0054F6  EF9F  F02A         	goto	l988
  8678   0054FA                     u3100:
  8679   0054FA  BE04               	btfsc	(___xxtofl@val+3)^0,7,c
  8680   0054FC  EF84  F02A         	goto	u3110
  8681   005500  EF82  F02A         	goto	u3111
  8682   005504                     u3111:
  8683   005504  EF9F  F02A         	goto	l988
  8684   005508                     u3110:
  8685   005508  C001  F005         	movff	___xxtofl@val,??___xxtofl
  8686   00550C  C002  F006         	movff	___xxtofl@val+1,??___xxtofl+1
  8687   005510  C003  F007         	movff	___xxtofl@val+2,??___xxtofl+2
  8688   005514  C004  F008         	movff	___xxtofl@val+3,??___xxtofl+3
  8689   005518  1E05               	comf	??___xxtofl^0,f,c
  8690   00551A  1E06               	comf	(??___xxtofl+1)^0,f,c
  8691   00551C  1E07               	comf	(??___xxtofl+2)^0,f,c
  8692   00551E  1E08               	comf	(??___xxtofl+3)^0,f,c
  8693   005520  2A05               	incf	??___xxtofl^0,f,c
  8694   005522  0E00               	movlw	0
  8695   005524  2206               	addwfc	(??___xxtofl+1)^0,f,c
  8696   005526  2207               	addwfc	(??___xxtofl+2)^0,f,c
  8697   005528  2208               	addwfc	(??___xxtofl+3)^0,f,c
  8698   00552A  C005  F00B         	movff	??___xxtofl,___xxtofl@arg
  8699   00552E  C006  F00C         	movff	??___xxtofl+1,___xxtofl@arg+1
  8700   005532  C007  F00D         	movff	??___xxtofl+2,___xxtofl@arg+2
  8701   005536  C008  F00E         	movff	??___xxtofl+3,___xxtofl@arg+3
  8702   00553A  EFA7  F02A         	goto	l3455
  8703   00553E                     l988:
  8704   00553E  C001  F00B         	movff	___xxtofl@val,___xxtofl@arg
  8705   005542  C002  F00C         	movff	___xxtofl@val+1,___xxtofl@arg+1
  8706   005546  C003  F00D         	movff	___xxtofl@val+2,___xxtofl@arg+2
  8707   00554A  C004  F00E         	movff	___xxtofl@val+3,___xxtofl@arg+3
  8708   00554E                     l3455:
  8709   00554E  5001               	movf	___xxtofl@val^0,w,c
  8710   005550  1002               	iorwf	(___xxtofl@val+1)^0,w,c
  8711   005552  1003               	iorwf	(___xxtofl@val+2)^0,w,c
  8712   005554  1004               	iorwf	(___xxtofl@val+3)^0,w,c
  8713   005556  A4D8               	btfss	status,2,c
  8714   005558  EFB0  F02A         	goto	u3121
  8715   00555C  EFB2  F02A         	goto	u3120
  8716   005560                     u3121:
  8717   005560  EFBC  F02A         	goto	l3461
  8718   005564                     u3120:
  8719   005564  0E00               	movlw	0
  8720   005566  6E01               	movwf	?___xxtofl^0,c
  8721   005568  0E00               	movlw	0
  8722   00556A  6E02               	movwf	(?___xxtofl+1)^0,c
  8723   00556C  0E00               	movlw	0
  8724   00556E  6E03               	movwf	(?___xxtofl+2)^0,c
  8725   005570  0E00               	movlw	0
  8726   005572  6E04               	movwf	(?___xxtofl+3)^0,c
  8727   005574  EF4D  F02B         	goto	l991
  8728   005578                     l3461:
  8729   005578  0E96               	movlw	150
  8730   00557A  6E0A               	movwf	___xxtofl@exp^0,c
  8731   00557C  EFC6  F02A         	goto	l3465
  8732   005580                     l3463:
  8733   005580  2A0A               	incf	___xxtofl@exp^0,f,c
  8734   005582  90D8               	bcf	status,0,c
  8735   005584  320E               	rrcf	(___xxtofl@arg+3)^0,f,c
  8736   005586  320D               	rrcf	(___xxtofl@arg+2)^0,f,c
  8737   005588  320C               	rrcf	(___xxtofl@arg+1)^0,f,c
  8738   00558A  320B               	rrcf	___xxtofl@arg^0,f,c
  8739   00558C                     l3465:
  8740   00558C  0E00               	movlw	0
  8741   00558E  140B               	andwf	___xxtofl@arg^0,w,c
  8742   005590  6E05               	movwf	??___xxtofl^0,c
  8743   005592  0E00               	movlw	0
  8744   005594  140C               	andwf	(___xxtofl@arg+1)^0,w,c
  8745   005596  6E06               	movwf	(??___xxtofl+1)^0,c
  8746   005598  0E00               	movlw	0
  8747   00559A  140D               	andwf	(___xxtofl@arg+2)^0,w,c
  8748   00559C  6E07               	movwf	(??___xxtofl+2)^0,c
  8749   00559E  0EFE               	movlw	254
  8750   0055A0  140E               	andwf	(___xxtofl@arg+3)^0,w,c
  8751   0055A2  6E08               	movwf	(??___xxtofl+3)^0,c
  8752   0055A4  5005               	movf	??___xxtofl^0,w,c
  8753   0055A6  1006               	iorwf	(??___xxtofl+1)^0,w,c
  8754   0055A8  1007               	iorwf	(??___xxtofl+2)^0,w,c
  8755   0055AA  1008               	iorwf	(??___xxtofl+3)^0,w,c
  8756   0055AC  A4D8               	btfss	status,2,c
  8757   0055AE  EFDB  F02A         	goto	u3131
  8758   0055B2  EFDD  F02A         	goto	u3130
  8759   0055B6                     u3131:
  8760   0055B6  EFC0  F02A         	goto	l3463
  8761   0055BA                     u3130:
  8762   0055BA  EFEB  F02A         	goto	l995
  8763   0055BE                     l3467:
  8764   0055BE  2A0A               	incf	___xxtofl@exp^0,f,c
  8765   0055C0  0E01               	movlw	1
  8766   0055C2  260B               	addwf	___xxtofl@arg^0,f,c
  8767   0055C4  0E00               	movlw	0
  8768   0055C6  220C               	addwfc	(___xxtofl@arg+1)^0,f,c
  8769   0055C8  220D               	addwfc	(___xxtofl@arg+2)^0,f,c
  8770   0055CA  220E               	addwfc	(___xxtofl@arg+3)^0,f,c
  8771   0055CC  90D8               	bcf	status,0,c
  8772   0055CE  320E               	rrcf	(___xxtofl@arg+3)^0,f,c
  8773   0055D0  320D               	rrcf	(___xxtofl@arg+2)^0,f,c
  8774   0055D2  320C               	rrcf	(___xxtofl@arg+1)^0,f,c
  8775   0055D4  320B               	rrcf	___xxtofl@arg^0,f,c
  8776   0055D6                     l995:
  8777   0055D6  0E00               	movlw	0
  8778   0055D8  140B               	andwf	___xxtofl@arg^0,w,c
  8779   0055DA  6E05               	movwf	??___xxtofl^0,c
  8780   0055DC  0E00               	movlw	0
  8781   0055DE  140C               	andwf	(___xxtofl@arg+1)^0,w,c
  8782   0055E0  6E06               	movwf	(??___xxtofl+1)^0,c
  8783   0055E2  0E00               	movlw	0
  8784   0055E4  140D               	andwf	(___xxtofl@arg+2)^0,w,c
  8785   0055E6  6E07               	movwf	(??___xxtofl+2)^0,c
  8786   0055E8  0EFF               	movlw	255
  8787   0055EA  140E               	andwf	(___xxtofl@arg+3)^0,w,c
  8788   0055EC  6E08               	movwf	(??___xxtofl+3)^0,c
  8789   0055EE  5005               	movf	??___xxtofl^0,w,c
  8790   0055F0  1006               	iorwf	(??___xxtofl+1)^0,w,c
  8791   0055F2  1007               	iorwf	(??___xxtofl+2)^0,w,c
  8792   0055F4  1008               	iorwf	(??___xxtofl+3)^0,w,c
  8793   0055F6  A4D8               	btfss	status,2,c
  8794   0055F8  EF00  F02B         	goto	u3141
  8795   0055FC  EF02  F02B         	goto	u3140
  8796   005600                     u3141:
  8797   005600  EFDF  F02A         	goto	l3467
  8798   005604                     u3140:
  8799   005604  EF0A  F02B         	goto	l3475
  8800   005608                     l3473:
  8801   005608  060A               	decf	___xxtofl@exp^0,f,c
  8802   00560A  90D8               	bcf	status,0,c
  8803   00560C  360B               	rlcf	___xxtofl@arg^0,f,c
  8804   00560E  360C               	rlcf	(___xxtofl@arg+1)^0,f,c
  8805   005610  360D               	rlcf	(___xxtofl@arg+2)^0,f,c
  8806   005612  360E               	rlcf	(___xxtofl@arg+3)^0,f,c
  8807   005614                     l3475:
  8808   005614  BE0D               	btfsc	(___xxtofl@arg+2)^0,7,c
  8809   005616  EF0F  F02B         	goto	u3151
  8810   00561A  EF11  F02B         	goto	u3150
  8811   00561E                     u3151:
  8812   00561E  EF19  F02B         	goto	l1002
  8813   005622                     u3150:
  8814   005622  0E02               	movlw	2
  8815   005624  600A               	cpfslt	___xxtofl@exp^0,c
  8816   005626  EF17  F02B         	goto	u3161
  8817   00562A  EF19  F02B         	goto	u3160
  8818   00562E                     u3161:
  8819   00562E  EF04  F02B         	goto	l3473
  8820   005632                     u3160:
  8821   005632                     l1002:
  8822   005632  B00A               	btfsc	___xxtofl@exp^0,0,c
  8823   005634  EF1E  F02B         	goto	u3171
  8824   005638  EF20  F02B         	goto	u3170
  8825   00563C                     u3171:
  8826   00563C  EF21  F02B         	goto	l3481
  8827   005640                     u3170:
  8828   005640  9E0D               	bcf	(___xxtofl@arg+2)^0,7,c
  8829   005642                     l3481:
  8830   005642  90D8               	bcf	status,0,c
  8831   005644  320A               	rrcf	___xxtofl@exp^0,f,c
  8832   005646  C00A  F005         	movff	___xxtofl@exp,??___xxtofl
  8833   00564A  6A06               	clrf	(??___xxtofl+1)^0,c
  8834   00564C  6A07               	clrf	(??___xxtofl+2)^0,c
  8835   00564E  6A08               	clrf	(??___xxtofl+3)^0,c
  8836   005650  C005  F008         	movff	??___xxtofl,??___xxtofl+3
  8837   005654  6A07               	clrf	(??___xxtofl+2)^0,c
  8838   005656  6A06               	clrf	(??___xxtofl+1)^0,c
  8839   005658  6A05               	clrf	??___xxtofl^0,c
  8840   00565A  5005               	movf	??___xxtofl^0,w,c
  8841   00565C  120B               	iorwf	___xxtofl@arg^0,f,c
  8842   00565E  5006               	movf	(??___xxtofl+1)^0,w,c
  8843   005660  120C               	iorwf	(___xxtofl@arg+1)^0,f,c
  8844   005662  5007               	movf	(??___xxtofl+2)^0,w,c
  8845   005664  120D               	iorwf	(___xxtofl@arg+2)^0,f,c
  8846   005666  5008               	movf	(??___xxtofl+3)^0,w,c
  8847   005668  120E               	iorwf	(___xxtofl@arg+3)^0,f,c
  8848   00566A  5009               	movf	___xxtofl@sign^0,w,c
  8849   00566C  B4D8               	btfsc	status,2,c
  8850   00566E  EF3B  F02B         	goto	u3181
  8851   005672  EF3D  F02B         	goto	u3180
  8852   005676                     u3181:
  8853   005676  EF45  F02B         	goto	l3491
  8854   00567A                     u3180:
  8855   00567A  BE04               	btfsc	(___xxtofl@val+3)^0,7,c
  8856   00567C  EF44  F02B         	goto	u3190
  8857   005680  EF42  F02B         	goto	u3191
  8858   005684                     u3191:
  8859   005684  EF45  F02B         	goto	l3491
  8860   005688                     u3190:
  8861   005688  8E0E               	bsf	(___xxtofl@arg+3)^0,7,c
  8862   00568A                     l3491:
  8863   00568A  C00B  F001         	movff	___xxtofl@arg,?___xxtofl
  8864   00568E  C00C  F002         	movff	___xxtofl@arg+1,?___xxtofl+1
  8865   005692  C00D  F003         	movff	___xxtofl@arg+2,?___xxtofl+2
  8866   005696  C00E  F004         	movff	___xxtofl@arg+3,?___xxtofl+3
  8867   00569A                     l991:
  8868   00569A  0012               	return		;funcret
  8869   00569C                     __end_of___xxtofl:
  8870                           	callstack 0
  8871                           
  8872 ;; *************** function ___flsub *****************
  8873 ;; Defined at:
  8874 ;;		line 245 in file "C:\Program Files\Microchip\xc8\v2.40\pic\sources\c99\common\sprcadd.c"
  8875 ;; Parameters:    Size  Location     Type
  8876 ;;  b               4   41[COMRAM] unsigned char 
  8877 ;;  a               4   45[COMRAM] unsigned char 
  8878 ;; Auto vars:     Size  Location     Type
  8879 ;;		None
  8880 ;; Return value:  Size  Location     Type
  8881 ;;                  4   41[COMRAM] unsigned char 
  8882 ;; Registers used:
  8883 ;;		wreg, status,2, status,0, cstack
  8884 ;; Tracked objects:
  8885 ;;		On entry : 0/0
  8886 ;;		On exit  : 0/0
  8887 ;;		Unchanged: 0/0
  8888 ;; Data sizes:     COMRAM   BANK0   BANK1   BANK2   BANK3   BANK4   BANK5   BANK6   BANK7   BANK8   BANK9  BANK10  BANK1
      +1  BANK12  BANK13  BANK14  BANK15
  8889 ;;      Params:         8       0       0       0       0       0       0       0       0       0       0       0       
      +0       0       0       0       0
  8890 ;;      Locals:         0       0       0       0       0       0       0       0       0       0       0       0       
      +0       0       0       0       0
  8891 ;;      Temps:          0       0       0       0       0       0       0       0       0       0       0       0       
      +0       0       0       0       0
  8892 ;;      Totals:         8       0       0       0       0       0       0       0       0       0       0       0       
      +0       0       0       0       0
  8893 ;;Total ram usage:        8 bytes
  8894 ;; Hardware stack levels used: 1
  8895 ;; Hardware stack levels required when called: 1
  8896 ;; This function calls:
  8897 ;;		___fladd
  8898 ;; This function is called by:
  8899 ;;		_powf
  8900 ;; This function uses a non-reentrant model
  8901 ;;
  8902                           
  8903                           	psect	text15
  8904   006028                     __ptext15:
  8905                           	callstack 0
  8906   006028                     ___flsub:
  8907                           	callstack 26
  8908   006028  0E00               	movlw	0
  8909   00602A  1A2E               	xorwf	___flsub@a^0,f,c
  8910   00602C  0E00               	movlw	0
  8911   00602E  1A2F               	xorwf	(___flsub@a+1)^0,f,c
  8912   006030  0E00               	movlw	0
  8913   006032  1A30               	xorwf	(___flsub@a+2)^0,f,c
  8914   006034  0E80               	movlw	128
  8915   006036  1A31               	xorwf	(___flsub@a+3)^0,f,c
  8916   006038  C02A  F001         	movff	___flsub@b,___fladd@b
  8917   00603C  C02B  F002         	movff	___flsub@b+1,___fladd@b+1
  8918   006040  C02C  F003         	movff	___flsub@b+2,___fladd@b+2
  8919   006044  C02D  F004         	movff	___flsub@b+3,___fladd@b+3
  8920   006048  C02E  F005         	movff	___flsub@a,___fladd@a
  8921   00604C  C02F  F006         	movff	___flsub@a+1,___fladd@a+1
  8922   006050  C030  F007         	movff	___flsub@a+2,___fladd@a+2
  8923   006054  C031  F008         	movff	___flsub@a+3,___fladd@a+3
  8924   006058  EC23  F022         	call	___fladd	;wreg free
  8925   00605C  C001  F02A         	movff	?___fladd,?___flsub
  8926   006060  C002  F02B         	movff	?___fladd+1,?___flsub+1
  8927   006064  C003  F02C         	movff	?___fladd+2,?___flsub+2
  8928   006068  C004  F02D         	movff	?___fladd+3,?___flsub+3
  8929   00606C  0012               	return		;funcret
  8930   00606E                     __end_of___flsub:
  8931                           	callstack 0
  8932                           
  8933 ;; *************** function ___fladd *****************
  8934 ;; Defined at:
  8935 ;;		line 10 in file "C:\Program Files\Microchip\xc8\v2.40\pic\sources\c99\common\sprcadd.c"
  8936 ;; Parameters:    Size  Location     Type
  8937 ;;  b               4    0[COMRAM] unsigned char 
  8938 ;;  a               4    4[COMRAM] unsigned char 
  8939 ;; Auto vars:     Size  Location     Type
  8940 ;;  grs             1   15[COMRAM] unsigned char 
  8941 ;;  bexp            1   14[COMRAM] unsigned char 
  8942 ;;  aexp            1   13[COMRAM] unsigned char 
  8943 ;;  signs           1   12[COMRAM] unsigned char 
  8944 ;; Return value:  Size  Location     Type
  8945 ;;                  4    0[COMRAM] unsigned char 
  8946 ;; Registers used:
  8947 ;;		wreg, status,2, status,0
  8948 ;; Tracked objects:
  8949 ;;		On entry : 0/0
  8950 ;;		On exit  : 0/0
  8951 ;;		Unchanged: 0/0
  8952 ;; Data sizes:     COMRAM   BANK0   BANK1   BANK2   BANK3   BANK4   BANK5   BANK6   BANK7   BANK8   BANK9  BANK10  BANK1
      +1  BANK12  BANK13  BANK14  BANK15
  8953 ;;      Params:         8       0       0       0       0       0       0       0       0       0       0       0       
      +0       0       0       0       0
  8954 ;;      Locals:         4       0       0       0       0       0       0       0       0       0       0       0       
      +0       0       0       0       0
  8955 ;;      Temps:          4       0       0       0       0       0       0       0       0       0       0       0       
      +0       0       0       0       0
  8956 ;;      Totals:        16       0       0       0       0       0       0       0       0       0       0       0       
      +0       0       0       0       0
  8957 ;;Total ram usage:       16 bytes
  8958 ;; Hardware stack levels used: 1
  8959 ;; This function calls:
  8960 ;;		Nothing
  8961 ;; This function is called by:
  8962 ;;		___flsub
  8963 ;;		_powf
  8964 ;;		_sqrtf
  8965 ;; This function uses a non-reentrant model
  8966 ;;
  8967                           
  8968                           	psect	text16
  8969   004446                     __ptext16:
  8970                           	callstack 0
  8971   004446                     ___fladd:
  8972                           	callstack 26
  8973   004446  5004               	movf	(___fladd@b+3)^0,w,c
  8974   004448  0B80               	andlw	128
  8975   00444A  6E0D               	movwf	___fladd@signs^0,c
  8976   00444C  5004               	movf	(___fladd@b+3)^0,w,c
  8977   00444E  2404               	addwf	(___fladd@b+3)^0,w,c
  8978   004450  6E0F               	movwf	___fladd@bexp^0,c
  8979   004452  AE03               	btfss	(___fladd@b+2)^0,7,c
  8980   004454  EF2E  F022         	goto	u2231
  8981   004458  EF30  F022         	goto	u2230
  8982   00445C                     u2231:
  8983   00445C  EF31  F022         	goto	l2915
  8984   004460                     u2230:
  8985   004460  800F               	bsf	___fladd@bexp^0,0,c
  8986   004462                     l2915:
  8987   004462  500F               	movf	___fladd@bexp^0,w,c
  8988   004464  B4D8               	btfsc	status,2,c
  8989   004466  EF37  F022         	goto	u2241
  8990   00446A  EF39  F022         	goto	u2240
  8991   00446E                     u2241:
  8992   00446E  EF4E  F022         	goto	l2925
  8993   004472                     u2240:
  8994   004472  280F               	incf	___fladd@bexp^0,w,c
  8995   004474  A4D8               	btfss	status,2,c
  8996   004476  EF3F  F022         	goto	u2251
  8997   00447A  EF41  F022         	goto	u2250
  8998   00447E                     u2251:
  8999   00447E  EF49  F022         	goto	l2921
  9000   004482                     u2250:
  9001   004482  0E00               	movlw	0
  9002   004484  6E01               	movwf	___fladd@b^0,c
  9003   004486  0E00               	movlw	0
  9004   004488  6E02               	movwf	(___fladd@b+1)^0,c
  9005   00448A  0E00               	movlw	0
  9006   00448C  6E03               	movwf	(___fladd@b+2)^0,c
  9007   00448E  0E00               	movlw	0
  9008   004490  6E04               	movwf	(___fladd@b+3)^0,c
  9009   004492                     l2921:
  9010   004492  8E03               	bsf	(___fladd@b+2)^0,7,c
  9011   004494  0E00               	movlw	0
  9012   004496  6E04               	movwf	(___fladd@b+3)^0,c
  9013   004498  EF56  F022         	goto	l2927
  9014   00449C                     l2925:
  9015   00449C  0E00               	movlw	0
  9016   00449E  6E01               	movwf	___fladd@b^0,c
  9017   0044A0  0E00               	movlw	0
  9018   0044A2  6E02               	movwf	(___fladd@b+1)^0,c
  9019   0044A4  0E00               	movlw	0
  9020   0044A6  6E03               	movwf	(___fladd@b+2)^0,c
  9021   0044A8  0E00               	movlw	0
  9022   0044AA  6E04               	movwf	(___fladd@b+3)^0,c
  9023   0044AC                     l2927:
  9024   0044AC  5008               	movf	(___fladd@a+3)^0,w,c
  9025   0044AE  0B80               	andlw	128
  9026   0044B0  6E0E               	movwf	___fladd@aexp^0,c
  9027   0044B2  500D               	movf	___fladd@signs^0,w,c
  9028   0044B4  180E               	xorwf	___fladd@aexp^0,w,c
  9029   0044B6  B4D8               	btfsc	status,2,c
  9030   0044B8  EF60  F022         	goto	u2261
  9031   0044BC  EF62  F022         	goto	u2260
  9032   0044C0                     u2261:
  9033   0044C0  EF63  F022         	goto	l2933
  9034   0044C4                     u2260:
  9035   0044C4  8C0D               	bsf	___fladd@signs^0,6,c
  9036   0044C6                     l2933:
  9037   0044C6  5008               	movf	(___fladd@a+3)^0,w,c
  9038   0044C8  2408               	addwf	(___fladd@a+3)^0,w,c
  9039   0044CA  6E0E               	movwf	___fladd@aexp^0,c
  9040   0044CC  AE07               	btfss	(___fladd@a+2)^0,7,c
  9041   0044CE  EF6B  F022         	goto	u2271
  9042   0044D2  EF6D  F022         	goto	u2270
  9043   0044D6                     u2271:
  9044   0044D6  EF6E  F022         	goto	l2939
  9045   0044DA                     u2270:
  9046   0044DA  800E               	bsf	___fladd@aexp^0,0,c
  9047   0044DC                     l2939:
  9048   0044DC  500E               	movf	___fladd@aexp^0,w,c
  9049   0044DE  B4D8               	btfsc	status,2,c
  9050   0044E0  EF74  F022         	goto	u2281
  9051   0044E4  EF76  F022         	goto	u2280
  9052   0044E8                     u2281:
  9053   0044E8  EF8B  F022         	goto	l2949
  9054   0044EC                     u2280:
  9055   0044EC  280E               	incf	___fladd@aexp^0,w,c
  9056   0044EE  A4D8               	btfss	status,2,c
  9057   0044F0  EF7C  F022         	goto	u2291
  9058   0044F4  EF7E  F022         	goto	u2290
  9059   0044F8                     u2291:
  9060   0044F8  EF86  F022         	goto	l2945
  9061   0044FC                     u2290:
  9062   0044FC  0E00               	movlw	0
  9063   0044FE  6E05               	movwf	___fladd@a^0,c
  9064   004500  0E00               	movlw	0
  9065   004502  6E06               	movwf	(___fladd@a+1)^0,c
  9066   004504  0E00               	movlw	0
  9067   004506  6E07               	movwf	(___fladd@a+2)^0,c
  9068   004508  0E00               	movlw	0
  9069   00450A  6E08               	movwf	(___fladd@a+3)^0,c
  9070   00450C                     l2945:
  9071   00450C  8E07               	bsf	(___fladd@a+2)^0,7,c
  9072   00450E  0E00               	movlw	0
  9073   004510  6E08               	movwf	(___fladd@a+3)^0,c
  9074   004512  EF93  F022         	goto	l2951
  9075   004516                     l2949:
  9076   004516  0E00               	movlw	0
  9077   004518  6E05               	movwf	___fladd@a^0,c
  9078   00451A  0E00               	movlw	0
  9079   00451C  6E06               	movwf	(___fladd@a+1)^0,c
  9080   00451E  0E00               	movlw	0
  9081   004520  6E07               	movwf	(___fladd@a+2)^0,c
  9082   004522  0E00               	movlw	0
  9083   004524  6E08               	movwf	(___fladd@a+3)^0,c
  9084   004526                     l2951:
  9085   004526  500F               	movf	___fladd@bexp^0,w,c
  9086   004528  5C0E               	subwf	___fladd@aexp^0,w,c
  9087   00452A  B0D8               	btfsc	status,0,c
  9088   00452C  EF9A  F022         	goto	u2301
  9089   004530  EF9C  F022         	goto	u2300
  9090   004534                     u2301:
  9091   004534  EFC3  F022         	goto	l2987
  9092   004538                     u2300:
  9093   004538  AC0D               	btfss	___fladd@signs^0,6,c
  9094   00453A  EFA1  F022         	goto	u2311
  9095   00453E  EFA3  F022         	goto	u2310
  9096   004542                     u2311:
  9097   004542  EFA5  F022         	goto	l2957
  9098   004546                     u2310:
  9099   004546  0E80               	movlw	128
  9100   004548  1A0D               	xorwf	___fladd@signs^0,f,c
  9101   00454A                     l2957:
  9102   00454A  C00F  F010         	movff	___fladd@bexp,___fladd@grs
  9103   00454E  C00E  F00F         	movff	___fladd@aexp,___fladd@bexp
  9104   004552  C010  F00E         	movff	___fladd@grs,___fladd@aexp
  9105   004556  C001  F010         	movff	___fladd@b,___fladd@grs
  9106   00455A  C005  F001         	movff	___fladd@a,___fladd@b
  9107   00455E  C010  F005         	movff	___fladd@grs,___fladd@a
  9108   004562  C002  F010         	movff	___fladd@b+1,___fladd@grs
  9109   004566  C006  F002         	movff	___fladd@a+1,___fladd@b+1
  9110   00456A  C010  F006         	movff	___fladd@grs,___fladd@a+1
  9111   00456E  C003  F010         	movff	___fladd@b+2,___fladd@grs
  9112   004572  C007  F003         	movff	___fladd@a+2,___fladd@b+2
  9113   004576  C010  F007         	movff	___fladd@grs,___fladd@a+2
  9114   00457A  C004  F010         	movff	___fladd@b+3,___fladd@grs
  9115   00457E  C008  F004         	movff	___fladd@a+3,___fladd@b+3
  9116   004582  C010  F008         	movff	___fladd@grs,___fladd@a+3
  9117   004586                     l2987:
  9118   004586  0E00               	movlw	0
  9119   004588  6E10               	movwf	___fladd@grs^0,c
  9120   00458A  500F               	movf	___fladd@bexp^0,w,c
  9121   00458C  C00E  F009         	movff	___fladd@aexp,??___fladd
  9122   004590  6A0A               	clrf	(??___fladd+1)^0,c
  9123   004592  5E09               	subwf	??___fladd^0,f,c
  9124   004594  0E00               	movlw	0
  9125   004596  5A0A               	subwfb	(??___fladd+1)^0,f,c
  9126   004598  BE0A               	btfsc	(??___fladd+1)^0,7,c
  9127   00459A  EFD8  F022         	goto	u2321
  9128   00459E  500A               	movf	(??___fladd+1)^0,w,c
  9129   0045A0  E109               	bnz	u2320
  9130   0045A2  0E1A               	movlw	26
  9131   0045A4  5C09               	subwf	??___fladd^0,w,c
  9132   0045A6  A0D8               	btfss	status,0,c
  9133   0045A8  EFD8  F022         	goto	u2321
  9134   0045AC  EFDA  F022         	goto	u2320
  9135   0045B0                     u2321:
  9136   0045B0  EF11  F023         	goto	l862
  9137   0045B4                     u2320:
  9138   0045B4  5001               	movf	___fladd@b^0,w,c
  9139   0045B6  1002               	iorwf	(___fladd@b+1)^0,w,c
  9140   0045B8  1003               	iorwf	(___fladd@b+2)^0,w,c
  9141   0045BA  1004               	iorwf	(___fladd@b+3)^0,w,c
  9142   0045BC  A4D8               	btfss	status,2,c
  9143   0045BE  EFE3  F022         	goto	u2331
  9144   0045C2  EFE6  F022         	goto	u2330
  9145   0045C6                     u2331:
  9146   0045C6  0E01               	movlw	1
  9147   0045C8  EFE7  F022         	goto	u2340
  9148   0045CC                     u2330:
  9149   0045CC  0E00               	movlw	0
  9150   0045CE                     u2340:
  9151   0045CE  6E10               	movwf	___fladd@grs^0,c
  9152   0045D0  0E00               	movlw	0
  9153   0045D2  6E01               	movwf	___fladd@b^0,c
  9154   0045D4  0E00               	movlw	0
  9155   0045D6  6E02               	movwf	(___fladd@b+1)^0,c
  9156   0045D8  0E00               	movlw	0
  9157   0045DA  6E03               	movwf	(___fladd@b+2)^0,c
  9158   0045DC  0E00               	movlw	0
  9159   0045DE  6E04               	movwf	(___fladd@b+3)^0,c
  9160   0045E0  C00E  F00F         	movff	___fladd@aexp,___fladd@bexp
  9161   0045E4  EF1A  F023         	goto	l861
  9162   0045E8                     l863:
  9163   0045E8  A010               	btfss	___fladd@grs^0,0,c
  9164   0045EA  EFF9  F022         	goto	u2351
  9165   0045EE  EFFB  F022         	goto	u2350
  9166   0045F2                     u2351:
  9167   0045F2  EF01  F023         	goto	l2999
  9168   0045F6                     u2350:
  9169   0045F6  90D8               	bcf	status,0,c
  9170   0045F8  3010               	rrcf	___fladd@grs^0,w,c
  9171   0045FA  0901               	iorlw	1
  9172   0045FC  6E10               	movwf	___fladd@grs^0,c
  9173   0045FE  EF03  F023         	goto	l3001
  9174   004602                     l2999:
  9175   004602  90D8               	bcf	status,0,c
  9176   004604  3210               	rrcf	___fladd@grs^0,f,c
  9177   004606                     l3001:
  9178   004606  A001               	btfss	___fladd@b^0,0,c
  9179   004608  EF08  F023         	goto	u2361
  9180   00460C  EF0A  F023         	goto	u2360
  9181   004610                     u2361:
  9182   004610  EF0B  F023         	goto	l3005
  9183   004614                     u2360:
  9184   004614  8E10               	bsf	___fladd@grs^0,7,c
  9185   004616                     l3005:
  9186   004616  3404               	rlcf	(___fladd@b+3)^0,w,c
  9187   004618  3204               	rrcf	(___fladd@b+3)^0,f,c
  9188   00461A  3203               	rrcf	(___fladd@b+2)^0,f,c
  9189   00461C  3202               	rrcf	(___fladd@b+1)^0,f,c
  9190   00461E  3201               	rrcf	___fladd@b^0,f,c
  9191   004620  2A0F               	incf	___fladd@bexp^0,f,c
  9192   004622                     l862:
  9193   004622  500E               	movf	___fladd@aexp^0,w,c
  9194   004624  5C0F               	subwf	___fladd@bexp^0,w,c
  9195   004626  A0D8               	btfss	status,0,c
  9196   004628  EF18  F023         	goto	u2371
  9197   00462C  EF1A  F023         	goto	u2370
  9198   004630                     u2371:
  9199   004630  EFF4  F022         	goto	l863
  9200   004634                     u2370:
  9201   004634                     l861:
  9202   004634  BC0D               	btfsc	___fladd@signs^0,6,c
  9203   004636  EF1F  F023         	goto	u2381
  9204   00463A  EF21  F023         	goto	u2380
  9205   00463E                     u2381:
  9206   00463E  EF61  F023         	goto	l3033
  9207   004642                     u2380:
  9208   004642  500F               	movf	___fladd@bexp^0,w,c
  9209   004644  A4D8               	btfss	status,2,c
  9210   004646  EF27  F023         	goto	u2391
  9211   00464A  EF29  F023         	goto	u2390
  9212   00464E                     u2391:
  9213   00464E  EF33  F023         	goto	l3015
  9214   004652                     u2390:
  9215   004652  0E00               	movlw	0
  9216   004654  6E01               	movwf	?___fladd^0,c
  9217   004656  0E00               	movlw	0
  9218   004658  6E02               	movwf	(?___fladd+1)^0,c
  9219   00465A  0E00               	movlw	0
  9220   00465C  6E03               	movwf	(?___fladd+2)^0,c
  9221   00465E  0E00               	movlw	0
  9222   004660  6E04               	movwf	(?___fladd+3)^0,c
  9223   004662  EF82  F024         	goto	l870
  9224   004666                     l3015:
  9225   004666  5005               	movf	___fladd@a^0,w,c
  9226   004668  2601               	addwf	___fladd@b^0,f,c
  9227   00466A  5006               	movf	(___fladd@a+1)^0,w,c
  9228   00466C  2202               	addwfc	(___fladd@b+1)^0,f,c
  9229   00466E  5007               	movf	(___fladd@a+2)^0,w,c
  9230   004670  2203               	addwfc	(___fladd@b+2)^0,f,c
  9231   004672  5008               	movf	(___fladd@a+3)^0,w,c
  9232   004674  2204               	addwfc	(___fladd@b+3)^0,f,c
  9233   004676  A004               	btfss	(___fladd@b+3)^0,0,c
  9234   004678  EF40  F023         	goto	u2401
  9235   00467C  EF42  F023         	goto	u2400
  9236   004680                     u2401:
  9237   004680  EFEE  F023         	goto	l3069
  9238   004684                     u2400:
  9239   004684  A010               	btfss	___fladd@grs^0,0,c
  9240   004686  EF47  F023         	goto	u2411
  9241   00468A  EF49  F023         	goto	u2410
  9242   00468E                     u2411:
  9243   00468E  EF4F  F023         	goto	l3023
  9244   004692                     u2410:
  9245   004692  90D8               	bcf	status,0,c
  9246   004694  3010               	rrcf	___fladd@grs^0,w,c
  9247   004696  0901               	iorlw	1
  9248   004698  6E10               	movwf	___fladd@grs^0,c
  9249   00469A  EF51  F023         	goto	l3025
  9250   00469E                     l3023:
  9251   00469E  90D8               	bcf	status,0,c
  9252   0046A0  3210               	rrcf	___fladd@grs^0,f,c
  9253   0046A2                     l3025:
  9254   0046A2  A001               	btfss	___fladd@b^0,0,c
  9255   0046A4  EF56  F023         	goto	u2421
  9256   0046A8  EF58  F023         	goto	u2420
  9257   0046AC                     u2421:
  9258   0046AC  EF59  F023         	goto	l3029
  9259   0046B0                     u2420:
  9260   0046B0  8E10               	bsf	___fladd@grs^0,7,c
  9261   0046B2                     l3029:
  9262   0046B2  3404               	rlcf	(___fladd@b+3)^0,w,c
  9263   0046B4  3204               	rrcf	(___fladd@b+3)^0,f,c
  9264   0046B6  3203               	rrcf	(___fladd@b+2)^0,f,c
  9265   0046B8  3202               	rrcf	(___fladd@b+1)^0,f,c
  9266   0046BA  3201               	rrcf	___fladd@b^0,f,c
  9267   0046BC  2A0F               	incf	___fladd@bexp^0,f,c
  9268   0046BE  EFEE  F023         	goto	l3069
  9269   0046C2                     l3033:
  9270   0046C2  5005               	movf	___fladd@a^0,w,c
  9271   0046C4  5C01               	subwf	___fladd@b^0,w,c
  9272   0046C6  5006               	movf	(___fladd@a+1)^0,w,c
  9273   0046C8  5802               	subwfb	(___fladd@b+1)^0,w,c
  9274   0046CA  5007               	movf	(___fladd@a+2)^0,w,c
  9275   0046CC  5803               	subwfb	(___fladd@b+2)^0,w,c
  9276   0046CE  5004               	movf	(___fladd@b+3)^0,w,c
  9277   0046D0  0A80               	xorlw	128
  9278   0046D2  6E09               	movwf	??___fladd^0,c
  9279   0046D4  5008               	movf	(___fladd@a+3)^0,w,c
  9280   0046D6  0A80               	xorlw	128
  9281   0046D8  5809               	subwfb	??___fladd^0,w,c
  9282   0046DA  B0D8               	btfsc	status,0,c
  9283   0046DC  EF72  F023         	goto	u2431
  9284   0046E0  EF74  F023         	goto	u2430
  9285   0046E4                     u2431:
  9286   0046E4  EF9F  F023         	goto	l3043
  9287   0046E8                     u2430:
  9288   0046E8  5001               	movf	___fladd@b^0,w,c
  9289   0046EA  5C05               	subwf	___fladd@a^0,w,c
  9290   0046EC  6E09               	movwf	??___fladd^0,c
  9291   0046EE  5002               	movf	(___fladd@b+1)^0,w,c
  9292   0046F0  5806               	subwfb	(___fladd@a+1)^0,w,c
  9293   0046F2  6E0A               	movwf	(??___fladd+1)^0,c
  9294   0046F4  5003               	movf	(___fladd@b+2)^0,w,c
  9295   0046F6  5807               	subwfb	(___fladd@a+2)^0,w,c
  9296   0046F8  6E0B               	movwf	(??___fladd+2)^0,c
  9297   0046FA  5004               	movf	(___fladd@b+3)^0,w,c
  9298   0046FC  5808               	subwfb	(___fladd@a+3)^0,w,c
  9299   0046FE  6E0C               	movwf	(??___fladd+3)^0,c
  9300   004700  0EFF               	movlw	255
  9301   004702  2409               	addwf	??___fladd^0,w,c
  9302   004704  6E01               	movwf	___fladd@b^0,c
  9303   004706  0EFF               	movlw	255
  9304   004708  200A               	addwfc	(??___fladd+1)^0,w,c
  9305   00470A  6E02               	movwf	(___fladd@b+1)^0,c
  9306   00470C  0EFF               	movlw	255
  9307   00470E  200B               	addwfc	(??___fladd+2)^0,w,c
  9308   004710  6E03               	movwf	(___fladd@b+2)^0,c
  9309   004712  0EFF               	movlw	255
  9310   004714  200C               	addwfc	(??___fladd+3)^0,w,c
  9311   004716  6E04               	movwf	(___fladd@b+3)^0,c
  9312   004718  0E80               	movlw	128
  9313   00471A  1A0D               	xorwf	___fladd@signs^0,f,c
  9314   00471C  6C10               	negf	___fladd@grs^0,c
  9315   00471E  5010               	movf	___fladd@grs^0,w,c
  9316   004720  A4D8               	btfss	status,2,c
  9317   004722  EF95  F023         	goto	u2441
  9318   004726  EF97  F023         	goto	u2440
  9319   00472A                     u2441:
  9320   00472A  EFA7  F023         	goto	l878
  9321   00472E                     u2440:
  9322   00472E  0E01               	movlw	1
  9323   004730  2601               	addwf	___fladd@b^0,f,c
  9324   004732  0E00               	movlw	0
  9325   004734  2202               	addwfc	(___fladd@b+1)^0,f,c
  9326   004736  2203               	addwfc	(___fladd@b+2)^0,f,c
  9327   004738  2204               	addwfc	(___fladd@b+3)^0,f,c
  9328   00473A  EFA7  F023         	goto	l878
  9329   00473E                     l3043:
  9330   00473E  5005               	movf	___fladd@a^0,w,c
  9331   004740  5E01               	subwf	___fladd@b^0,f,c
  9332   004742  5006               	movf	(___fladd@a+1)^0,w,c
  9333   004744  5A02               	subwfb	(___fladd@b+1)^0,f,c
  9334   004746  5007               	movf	(___fladd@a+2)^0,w,c
  9335   004748  5A03               	subwfb	(___fladd@b+2)^0,f,c
  9336   00474A  5008               	movf	(___fladd@a+3)^0,w,c
  9337   00474C  5A04               	subwfb	(___fladd@b+3)^0,f,c
  9338   00474E                     l878:
  9339   00474E  5001               	movf	___fladd@b^0,w,c
  9340   004750  1002               	iorwf	(___fladd@b+1)^0,w,c
  9341   004752  1003               	iorwf	(___fladd@b+2)^0,w,c
  9342   004754  1004               	iorwf	(___fladd@b+3)^0,w,c
  9343   004756  A4D8               	btfss	status,2,c
  9344   004758  EFB0  F023         	goto	u2451
  9345   00475C  EFB2  F023         	goto	u2450
  9346   004760                     u2451:
  9347   004760  EFE7  F023         	goto	l3067
  9348   004764                     u2450:
  9349   004764  5010               	movf	___fladd@grs^0,w,c
  9350   004766  A4D8               	btfss	status,2,c
  9351   004768  EFB8  F023         	goto	u2461
  9352   00476C  EFBA  F023         	goto	u2460
  9353   004770                     u2461:
  9354   004770  EFE7  F023         	goto	l3067
  9355   004774                     u2460:
  9356   004774  0E00               	movlw	0
  9357   004776  6E01               	movwf	?___fladd^0,c
  9358   004778  0E00               	movlw	0
  9359   00477A  6E02               	movwf	(?___fladd+1)^0,c
  9360   00477C  0E00               	movlw	0
  9361   00477E  6E03               	movwf	(?___fladd+2)^0,c
  9362   004780  0E00               	movlw	0
  9363   004782  6E04               	movwf	(?___fladd+3)^0,c
  9364   004784  EF82  F024         	goto	l870
  9365   004788                     l3051:
  9366   004788  90D8               	bcf	status,0,c
  9367   00478A  3601               	rlcf	___fladd@b^0,f,c
  9368   00478C  3602               	rlcf	(___fladd@b+1)^0,f,c
  9369   00478E  3603               	rlcf	(___fladd@b+2)^0,f,c
  9370   004790  3604               	rlcf	(___fladd@b+3)^0,f,c
  9371   004792  AE10               	btfss	___fladd@grs^0,7,c
  9372   004794  EFCE  F023         	goto	u2471
  9373   004798  EFD0  F023         	goto	u2470
  9374   00479C                     u2471:
  9375   00479C  EFD1  F023         	goto	l3057
  9376   0047A0                     u2470:
  9377   0047A0  8001               	bsf	___fladd@b^0,0,c
  9378   0047A2                     l3057:
  9379   0047A2  A010               	btfss	___fladd@grs^0,0,c
  9380   0047A4  EFD6  F023         	goto	u2481
  9381   0047A8  EFD8  F023         	goto	u2480
  9382   0047AC                     u2481:
  9383   0047AC  EFDC  F023         	goto	l3061
  9384   0047B0                     u2480:
  9385   0047B0  80D8               	bsf	status,0,c
  9386   0047B2  3610               	rlcf	___fladd@grs^0,f,c
  9387   0047B4  EFDE  F023         	goto	l3063
  9388   0047B8                     l3061:
  9389   0047B8  90D8               	bcf	status,0,c
  9390   0047BA  3610               	rlcf	___fladd@grs^0,f,c
  9391   0047BC                     l3063:
  9392   0047BC  500F               	movf	___fladd@bexp^0,w,c
  9393   0047BE  B4D8               	btfsc	status,2,c
  9394   0047C0  EFE4  F023         	goto	u2491
  9395   0047C4  EFE6  F023         	goto	u2490
  9396   0047C8                     u2491:
  9397   0047C8  EFE7  F023         	goto	l3067
  9398   0047CC                     u2490:
  9399   0047CC  060F               	decf	___fladd@bexp^0,f,c
  9400   0047CE                     l3067:
  9401   0047CE  AE03               	btfss	(___fladd@b+2)^0,7,c
  9402   0047D0  EFEC  F023         	goto	u2501
  9403   0047D4  EFEE  F023         	goto	u2500
  9404   0047D8                     u2501:
  9405   0047D8  EFC4  F023         	goto	l3051
  9406   0047DC                     u2500:
  9407   0047DC                     l3069:
  9408   0047DC  0E00               	movlw	0
  9409   0047DE  6E0E               	movwf	___fladd@aexp^0,c
  9410   0047E0  AE10               	btfss	___fladd@grs^0,7,c
  9411   0047E2  EFF5  F023         	goto	u2511
  9412   0047E6  EFF7  F023         	goto	u2510
  9413   0047EA                     u2511:
  9414   0047EA  EF0F  F024         	goto	l887
  9415   0047EE                     u2510:
  9416   0047EE  C010  F009         	movff	___fladd@grs,??___fladd
  9417   0047F2  0E7F               	movlw	127
  9418   0047F4  1609               	andwf	??___fladd^0,f,c
  9419   0047F6  B4D8               	btfsc	status,2,c
  9420   0047F8  EF00  F024         	goto	u2521
  9421   0047FC  EF02  F024         	goto	u2520
  9422   004800                     u2521:
  9423   004800  EF06  F024         	goto	l888
  9424   004804                     u2520:
  9425   004804                     l3075:
  9426   004804  0E01               	movlw	1
  9427   004806  6E0E               	movwf	___fladd@aexp^0,c
  9428   004808  EF0F  F024         	goto	l887
  9429   00480C                     l888:
  9430   00480C  A001               	btfss	___fladd@b^0,0,c
  9431   00480E  EF0B  F024         	goto	u2531
  9432   004812  EF0D  F024         	goto	u2530
  9433   004816                     u2531:
  9434   004816  EF0F  F024         	goto	l887
  9435   00481A                     u2530:
  9436   00481A  EF02  F024         	goto	l3075
  9437   00481E                     l887:
  9438   00481E  500E               	movf	___fladd@aexp^0,w,c
  9439   004820  B4D8               	btfsc	status,2,c
  9440   004822  EF15  F024         	goto	u2541
  9441   004826  EF17  F024         	goto	u2540
  9442   00482A                     u2541:
  9443   00482A  EF42  F024         	goto	l3087
  9444   00482E                     u2540:
  9445   00482E  0E01               	movlw	1
  9446   004830  2601               	addwf	___fladd@b^0,f,c
  9447   004832  0E00               	movlw	0
  9448   004834  2202               	addwfc	(___fladd@b+1)^0,f,c
  9449   004836  2203               	addwfc	(___fladd@b+2)^0,f,c
  9450   004838  2204               	addwfc	(___fladd@b+3)^0,f,c
  9451   00483A  A004               	btfss	(___fladd@b+3)^0,0,c
  9452   00483C  EF22  F024         	goto	u2551
  9453   004840  EF24  F024         	goto	u2550
  9454   004844                     u2551:
  9455   004844  EF42  F024         	goto	l3087
  9456   004848                     u2550:
  9457   004848  C001  F009         	movff	___fladd@b,??___fladd
  9458   00484C  C002  F00A         	movff	___fladd@b+1,??___fladd+1
  9459   004850  C003  F00B         	movff	___fladd@b+2,??___fladd+2
  9460   004854  C004  F00C         	movff	___fladd@b+3,??___fladd+3
  9461   004858  340C               	rlcf	(??___fladd+3)^0,w,c
  9462   00485A  320C               	rrcf	(??___fladd+3)^0,f,c
  9463   00485C  320B               	rrcf	(??___fladd+2)^0,f,c
  9464   00485E  320A               	rrcf	(??___fladd+1)^0,f,c
  9465   004860  3209               	rrcf	??___fladd^0,f,c
  9466   004862  C009  F001         	movff	??___fladd,___fladd@b
  9467   004866  C00A  F002         	movff	??___fladd+1,___fladd@b+1
  9468   00486A  C00B  F003         	movff	??___fladd+2,___fladd@b+2
  9469   00486E  C00C  F004         	movff	??___fladd+3,___fladd@b+3
  9470   004872  280F               	incf	___fladd@bexp^0,w,c
  9471   004874  B4D8               	btfsc	status,2,c
  9472   004876  EF3F  F024         	goto	u2561
  9473   00487A  EF41  F024         	goto	u2560
  9474   00487E                     u2561:
  9475   00487E  EF42  F024         	goto	l3087
  9476   004882                     u2560:
  9477   004882  2A0F               	incf	___fladd@bexp^0,f,c
  9478   004884                     l3087:
  9479   004884  280F               	incf	___fladd@bexp^0,w,c
  9480   004886  B4D8               	btfsc	status,2,c
  9481   004888  EF48  F024         	goto	u2571
  9482   00488C  EF4A  F024         	goto	u2570
  9483   004890                     u2571:
  9484   004890  EF52  F024         	goto	l3091
  9485   004894                     u2570:
  9486   004894  500F               	movf	___fladd@bexp^0,w,c
  9487   004896  A4D8               	btfss	status,2,c
  9488   004898  EF50  F024         	goto	u2581
  9489   00489C  EF52  F024         	goto	u2580
  9490   0048A0                     u2581:
  9491   0048A0  EF64  F024         	goto	l3095
  9492   0048A4                     u2580:
  9493   0048A4                     l3091:
  9494   0048A4  0E00               	movlw	0
  9495   0048A6  6E01               	movwf	___fladd@b^0,c
  9496   0048A8  0E00               	movlw	0
  9497   0048AA  6E02               	movwf	(___fladd@b+1)^0,c
  9498   0048AC  0E00               	movlw	0
  9499   0048AE  6E03               	movwf	(___fladd@b+2)^0,c
  9500   0048B0  0E00               	movlw	0
  9501   0048B2  6E04               	movwf	(___fladd@b+3)^0,c
  9502   0048B4  500F               	movf	___fladd@bexp^0,w,c
  9503   0048B6  A4D8               	btfss	status,2,c
  9504   0048B8  EF60  F024         	goto	u2591
  9505   0048BC  EF62  F024         	goto	u2590
  9506   0048C0                     u2591:
  9507   0048C0  EF64  F024         	goto	l3095
  9508   0048C4                     u2590:
  9509   0048C4  0E00               	movlw	0
  9510   0048C6  6E0D               	movwf	___fladd@signs^0,c
  9511   0048C8                     l3095:
  9512   0048C8  A00F               	btfss	___fladd@bexp^0,0,c
  9513   0048CA  EF69  F024         	goto	u2601
  9514   0048CE  EF6B  F024         	goto	u2600
  9515   0048D2                     u2601:
  9516   0048D2  EF6E  F024         	goto	l3099
  9517   0048D6                     u2600:
  9518   0048D6  8E03               	bsf	(___fladd@b+2)^0,7,c
  9519   0048D8  EF6F  F024         	goto	l3101
  9520   0048DC                     l3099:
  9521   0048DC  9E03               	bcf	(___fladd@b+2)^0,7,c
  9522   0048DE                     l3101:
  9523   0048DE  90D8               	bcf	status,0,c
  9524   0048E0  300F               	rrcf	___fladd@bexp^0,w,c
  9525   0048E2  6E04               	movwf	(___fladd@b+3)^0,c
  9526   0048E4  AE0D               	btfss	___fladd@signs^0,7,c
  9527   0048E6  EF77  F024         	goto	u2611
  9528   0048EA  EF79  F024         	goto	u2610
  9529   0048EE                     u2611:
  9530   0048EE  EF7A  F024         	goto	l3107
  9531   0048F2                     u2610:
  9532   0048F2  8E04               	bsf	(___fladd@b+3)^0,7,c
  9533   0048F4                     l3107:
  9534   0048F4  C001  F001         	movff	___fladd@b,?___fladd
  9535   0048F8  C002  F002         	movff	___fladd@b+1,?___fladd+1
  9536   0048FC  C003  F003         	movff	___fladd@b+2,?___fladd+2
  9537   004900  C004  F004         	movff	___fladd@b+3,?___fladd+3
  9538   004904                     l870:
  9539   004904  0012               	return		;funcret
  9540   004906                     __end_of___fladd:
  9541                           	callstack 0
  9542                           
  9543 ;; *************** function ___flneg *****************
  9544 ;; Defined at:
  9545 ;;		line 15 in file "C:\Program Files\Microchip\xc8\v2.40\pic\sources\c99\common\flneg.c"
  9546 ;; Parameters:    Size  Location     Type
  9547 ;;  f1              4    0[COMRAM] unsigned char 
  9548 ;; Auto vars:     Size  Location     Type
  9549 ;;		None
  9550 ;; Return value:  Size  Location     Type
  9551 ;;                  4    0[COMRAM] unsigned char 
  9552 ;; Registers used:
  9553 ;;		wreg, status,2, status,0
  9554 ;; Tracked objects:
  9555 ;;		On entry : 0/0
  9556 ;;		On exit  : 0/0
  9557 ;;		Unchanged: 0/0
  9558 ;; Data sizes:     COMRAM   BANK0   BANK1   BANK2   BANK3   BANK4   BANK5   BANK6   BANK7   BANK8   BANK9  BANK10  BANK1
      +1  BANK12  BANK13  BANK14  BANK15
  9559 ;;      Params:         4       0       0       0       0       0       0       0       0       0       0       0       
      +0       0       0       0       0
  9560 ;;      Locals:         0       0       0       0       0       0       0       0       0       0       0       0       
      +0       0       0       0       0
  9561 ;;      Temps:          0       0       0       0       0       0       0       0       0       0       0       0       
      +0       0       0       0       0
  9562 ;;      Totals:         4       0       0       0       0       0       0       0       0       0       0       0       
      +0       0       0       0       0
  9563 ;;Total ram usage:        4 bytes
  9564 ;; Hardware stack levels used: 1
  9565 ;; This function calls:
  9566 ;;		Nothing
  9567 ;; This function is called by:
  9568 ;;		_powf
  9569 ;; This function uses a non-reentrant model
  9570 ;;
  9571                           
  9572                           	psect	text17
  9573   006130                     __ptext17:
  9574                           	callstack 0
  9575   006130                     ___flneg:
  9576                           	callstack 27
  9577   006130  5001               	movf	___flneg@f1^0,w,c
  9578   006132  1002               	iorwf	(___flneg@f1+1)^0,w,c
  9579   006134  1003               	iorwf	(___flneg@f1+2)^0,w,c
  9580   006136  1004               	iorwf	(___flneg@f1+3)^0,w,c
  9581   006138  B4D8               	btfsc	status,2,c
  9582   00613A  EFA1  F030         	goto	u3091
  9583   00613E  EFA3  F030         	goto	u3090
  9584   006142                     u3091:
  9585   006142  EFAB  F030         	goto	l3445
  9586   006146                     u3090:
  9587   006146  0E00               	movlw	0
  9588   006148  1A01               	xorwf	___flneg@f1^0,f,c
  9589   00614A  0E00               	movlw	0
  9590   00614C  1A02               	xorwf	(___flneg@f1+1)^0,f,c
  9591   00614E  0E00               	movlw	0
  9592   006150  1A03               	xorwf	(___flneg@f1+2)^0,f,c
  9593   006152  0E80               	movlw	128
  9594   006154  1A04               	xorwf	(___flneg@f1+3)^0,f,c
  9595   006156                     l3445:
  9596   006156  C001  F001         	movff	___flneg@f1,?___flneg
  9597   00615A  C002  F002         	movff	___flneg@f1+1,?___flneg+1
  9598   00615E  C003  F003         	movff	___flneg@f1+2,?___flneg+2
  9599   006162  C004  F004         	movff	___flneg@f1+3,?___flneg+3
  9600   006166  0012               	return		;funcret
  9601   006168                     __end_of___flneg:
  9602                           	callstack 0
  9603                           
  9604 ;; *************** function ___fldiv *****************
  9605 ;; Defined at:
  9606 ;;		line 11 in file "C:\Program Files\Microchip\xc8\v2.40\pic\sources\c99\common\sprcdiv.c"
  9607 ;; Parameters:    Size  Location     Type
  9608 ;;  b               4   49[COMRAM] unsigned char 
  9609 ;;  a               4   53[COMRAM] unsigned char 
  9610 ;; Auto vars:     Size  Location     Type
  9611 ;;  grs             4   68[COMRAM] unsigned long 
  9612 ;;  rem             4   61[COMRAM] unsigned long 
  9613 ;;  new_exp         2   66[COMRAM] short 
  9614 ;;  aexp            1   73[COMRAM] unsigned char 
  9615 ;;  bexp            1   72[COMRAM] unsigned char 
  9616 ;;  sign            1   65[COMRAM] unsigned char 
  9617 ;; Return value:  Size  Location     Type
  9618 ;;                  4   49[COMRAM] unsigned char 
  9619 ;; Registers used:
  9620 ;;		wreg, status,2, status,0
  9621 ;; Tracked objects:
  9622 ;;		On entry : 0/0
  9623 ;;		On exit  : 0/0
  9624 ;;		Unchanged: 0/0
  9625 ;; Data sizes:     COMRAM   BANK0   BANK1   BANK2   BANK3   BANK4   BANK5   BANK6   BANK7   BANK8   BANK9  BANK10  BANK1
      +1  BANK12  BANK13  BANK14  BANK15
  9626 ;;      Params:         8       0       0       0       0       0       0       0       0       0       0       0       
      +0       0       0       0       0
  9627 ;;      Locals:        13       0       0       0       0       0       0       0       0       0       0       0       
      +0       0       0       0       0
  9628 ;;      Temps:          4       0       0       0       0       0       0       0       0       0       0       0       
      +0       0       0       0       0
  9629 ;;      Totals:        25       0       0       0       0       0       0       0       0       0       0       0       
      +0       0       0       0       0
  9630 ;;Total ram usage:       25 bytes
  9631 ;; Hardware stack levels used: 1
  9632 ;; This function calls:
  9633 ;;		Nothing
  9634 ;; This function is called by:
  9635 ;;		_powf
  9636 ;; This function uses a non-reentrant model
  9637 ;;
  9638                           
  9639                           	psect	text18
  9640   004D30                     __ptext18:
  9641                           	callstack 0
  9642   004D30                     ___fldiv:
  9643                           	callstack 27
  9644   004D30  5035               	movf	(___fldiv@b+3)^0,w,c
  9645   004D32  0B80               	andlw	128
  9646   004D34  6E42               	movwf	___fldiv@sign^0,c
  9647   004D36  5035               	movf	(___fldiv@b+3)^0,w,c
  9648   004D38  2435               	addwf	(___fldiv@b+3)^0,w,c
  9649   004D3A  6E49               	movwf	___fldiv@bexp^0,c
  9650   004D3C  AE34               	btfss	(___fldiv@b+2)^0,7,c
  9651   004D3E  EFA3  F026         	goto	u2861
  9652   004D42  EFA5  F026         	goto	u2860
  9653   004D46                     u2861:
  9654   004D46  EFA6  F026         	goto	l3303
  9655   004D4A                     u2860:
  9656   004D4A  8049               	bsf	___fldiv@bexp^0,0,c
  9657   004D4C                     l3303:
  9658   004D4C  5049               	movf	___fldiv@bexp^0,w,c
  9659   004D4E  B4D8               	btfsc	status,2,c
  9660   004D50  EFAC  F026         	goto	u2871
  9661   004D54  EFAE  F026         	goto	u2870
  9662   004D58                     u2871:
  9663   004D58  EFC3  F026         	goto	l3313
  9664   004D5C                     u2870:
  9665   004D5C  2849               	incf	___fldiv@bexp^0,w,c
  9666   004D5E  A4D8               	btfss	status,2,c
  9667   004D60  EFB4  F026         	goto	u2881
  9668   004D64  EFB6  F026         	goto	u2880
  9669   004D68                     u2881:
  9670   004D68  EFBE  F026         	goto	l3309
  9671   004D6C                     u2880:
  9672   004D6C  0E00               	movlw	0
  9673   004D6E  6E32               	movwf	___fldiv@b^0,c
  9674   004D70  0E00               	movlw	0
  9675   004D72  6E33               	movwf	(___fldiv@b+1)^0,c
  9676   004D74  0E00               	movlw	0
  9677   004D76  6E34               	movwf	(___fldiv@b+2)^0,c
  9678   004D78  0E00               	movlw	0
  9679   004D7A  6E35               	movwf	(___fldiv@b+3)^0,c
  9680   004D7C                     l3309:
  9681   004D7C  8E34               	bsf	(___fldiv@b+2)^0,7,c
  9682   004D7E  0E00               	movlw	0
  9683   004D80  6E35               	movwf	(___fldiv@b+3)^0,c
  9684   004D82  EFCB  F026         	goto	l3315
  9685   004D86                     l3313:
  9686   004D86  0E00               	movlw	0
  9687   004D88  6E32               	movwf	___fldiv@b^0,c
  9688   004D8A  0E00               	movlw	0
  9689   004D8C  6E33               	movwf	(___fldiv@b+1)^0,c
  9690   004D8E  0E00               	movlw	0
  9691   004D90  6E34               	movwf	(___fldiv@b+2)^0,c
  9692   004D92  0E00               	movlw	0
  9693   004D94  6E35               	movwf	(___fldiv@b+3)^0,c
  9694   004D96                     l3315:
  9695   004D96  5039               	movf	(___fldiv@a+3)^0,w,c
  9696   004D98  0B80               	andlw	128
  9697   004D9A  1A42               	xorwf	___fldiv@sign^0,f,c
  9698   004D9C  5039               	movf	(___fldiv@a+3)^0,w,c
  9699   004D9E  2439               	addwf	(___fldiv@a+3)^0,w,c
  9700   004DA0  6E4A               	movwf	___fldiv@aexp^0,c
  9701   004DA2  AE38               	btfss	(___fldiv@a+2)^0,7,c
  9702   004DA4  EFD6  F026         	goto	u2891
  9703   004DA8  EFD8  F026         	goto	u2890
  9704   004DAC                     u2891:
  9705   004DAC  EFD9  F026         	goto	l3323
  9706   004DB0                     u2890:
  9707   004DB0  804A               	bsf	___fldiv@aexp^0,0,c
  9708   004DB2                     l3323:
  9709   004DB2  504A               	movf	___fldiv@aexp^0,w,c
  9710   004DB4  B4D8               	btfsc	status,2,c
  9711   004DB6  EFDF  F026         	goto	u2901
  9712   004DBA  EFE1  F026         	goto	u2900
  9713   004DBE                     u2901:
  9714   004DBE  EFF6  F026         	goto	l3333
  9715   004DC2                     u2900:
  9716   004DC2  284A               	incf	___fldiv@aexp^0,w,c
  9717   004DC4  A4D8               	btfss	status,2,c
  9718   004DC6  EFE7  F026         	goto	u2911
  9719   004DCA  EFE9  F026         	goto	u2910
  9720   004DCE                     u2911:
  9721   004DCE  EFF1  F026         	goto	l3329
  9722   004DD2                     u2910:
  9723   004DD2  0E00               	movlw	0
  9724   004DD4  6E36               	movwf	___fldiv@a^0,c
  9725   004DD6  0E00               	movlw	0
  9726   004DD8  6E37               	movwf	(___fldiv@a+1)^0,c
  9727   004DDA  0E00               	movlw	0
  9728   004DDC  6E38               	movwf	(___fldiv@a+2)^0,c
  9729   004DDE  0E00               	movlw	0
  9730   004DE0  6E39               	movwf	(___fldiv@a+3)^0,c
  9731   004DE2                     l3329:
  9732   004DE2  8E38               	bsf	(___fldiv@a+2)^0,7,c
  9733   004DE4  0E00               	movlw	0
  9734   004DE6  6E39               	movwf	(___fldiv@a+3)^0,c
  9735   004DE8  EFFE  F026         	goto	l3335
  9736   004DEC                     l3333:
  9737   004DEC  0E00               	movlw	0
  9738   004DEE  6E36               	movwf	___fldiv@a^0,c
  9739   004DF0  0E00               	movlw	0
  9740   004DF2  6E37               	movwf	(___fldiv@a+1)^0,c
  9741   004DF4  0E00               	movlw	0
  9742   004DF6  6E38               	movwf	(___fldiv@a+2)^0,c
  9743   004DF8  0E00               	movlw	0
  9744   004DFA  6E39               	movwf	(___fldiv@a+3)^0,c
  9745   004DFC                     l3335:
  9746   004DFC  5036               	movf	___fldiv@a^0,w,c
  9747   004DFE  1037               	iorwf	(___fldiv@a+1)^0,w,c
  9748   004E00  1038               	iorwf	(___fldiv@a+2)^0,w,c
  9749   004E02  1039               	iorwf	(___fldiv@a+3)^0,w,c
  9750   004E04  A4D8               	btfss	status,2,c
  9751   004E06  EF07  F027         	goto	u2921
  9752   004E0A  EF09  F027         	goto	u2920
  9753   004E0E                     u2921:
  9754   004E0E  EF21  F027         	goto	l3347
  9755   004E12                     u2920:
  9756   004E12  0E00               	movlw	0
  9757   004E14  6E32               	movwf	___fldiv@b^0,c
  9758   004E16  0E00               	movlw	0
  9759   004E18  6E33               	movwf	(___fldiv@b+1)^0,c
  9760   004E1A  0E00               	movlw	0
  9761   004E1C  6E34               	movwf	(___fldiv@b+2)^0,c
  9762   004E1E  0E00               	movlw	0
  9763   004E20  6E35               	movwf	(___fldiv@b+3)^0,c
  9764   004E22  0E80               	movlw	128
  9765   004E24  1234               	iorwf	(___fldiv@b+2)^0,f,c
  9766   004E26  0E7F               	movlw	127
  9767   004E28  1235               	iorwf	(___fldiv@b+3)^0,f,c
  9768   004E2A                     l3341:
  9769   004E2A  5042               	movf	___fldiv@sign^0,w,c
  9770   004E2C  1235               	iorwf	(___fldiv@b+3)^0,f,c
  9771   004E2E  C032  F032         	movff	___fldiv@b,?___fldiv
  9772   004E32  C033  F033         	movff	___fldiv@b+1,?___fldiv+1
  9773   004E36  C034  F034         	movff	___fldiv@b+2,?___fldiv+2
  9774   004E3A  C035  F035         	movff	___fldiv@b+3,?___fldiv+3
  9775   004E3E  EF64  F028         	goto	l915
  9776   004E42                     l3347:
  9777   004E42  5049               	movf	___fldiv@bexp^0,w,c
  9778   004E44  A4D8               	btfss	status,2,c
  9779   004E46  EF27  F027         	goto	u2931
  9780   004E4A  EF29  F027         	goto	u2930
  9781   004E4E                     u2931:
  9782   004E4E  EF33  F027         	goto	l3355
  9783   004E52                     u2930:
  9784   004E52  0E00               	movlw	0
  9785   004E54  6E32               	movwf	?___fldiv^0,c
  9786   004E56  0E00               	movlw	0
  9787   004E58  6E33               	movwf	(?___fldiv+1)^0,c
  9788   004E5A  0E00               	movlw	0
  9789   004E5C  6E34               	movwf	(?___fldiv+2)^0,c
  9790   004E5E  0E00               	movlw	0
  9791   004E60  6E35               	movwf	(?___fldiv+3)^0,c
  9792   004E62  EF64  F028         	goto	l915
  9793   004E66                     l3355:
  9794   004E66  504A               	movf	___fldiv@aexp^0,w,c
  9795   004E68  C049  F03A         	movff	___fldiv@bexp,??___fldiv
  9796   004E6C  6A3B               	clrf	(??___fldiv+1)^0,c
  9797   004E6E  5E3A               	subwf	??___fldiv^0,f,c
  9798   004E70  0E00               	movlw	0
  9799   004E72  5A3B               	subwfb	(??___fldiv+1)^0,f,c
  9800   004E74  0E7F               	movlw	127
  9801   004E76  243A               	addwf	??___fldiv^0,w,c
  9802   004E78  6E43               	movwf	___fldiv@new_exp^0,c
  9803   004E7A  0E00               	movlw	0
  9804   004E7C  203B               	addwfc	(??___fldiv+1)^0,w,c
  9805   004E7E  6E44               	movwf	(___fldiv@new_exp+1)^0,c
  9806   004E80  C032  F03E         	movff	___fldiv@b,___fldiv@rem
  9807   004E84  C033  F03F         	movff	___fldiv@b+1,___fldiv@rem+1
  9808   004E88  C034  F040         	movff	___fldiv@b+2,___fldiv@rem+2
  9809   004E8C  C035  F041         	movff	___fldiv@b+3,___fldiv@rem+3
  9810   004E90  0E00               	movlw	0
  9811   004E92  6E32               	movwf	___fldiv@b^0,c
  9812   004E94  0E00               	movlw	0
  9813   004E96  6E33               	movwf	(___fldiv@b+1)^0,c
  9814   004E98  0E00               	movlw	0
  9815   004E9A  6E34               	movwf	(___fldiv@b+2)^0,c
  9816   004E9C  0E00               	movlw	0
  9817   004E9E  6E35               	movwf	(___fldiv@b+3)^0,c
  9818   004EA0  0E00               	movlw	0
  9819   004EA2  6E45               	movwf	___fldiv@grs^0,c
  9820   004EA4  0E00               	movlw	0
  9821   004EA6  6E46               	movwf	(___fldiv@grs+1)^0,c
  9822   004EA8  0E00               	movlw	0
  9823   004EAA  6E47               	movwf	(___fldiv@grs+2)^0,c
  9824   004EAC  0E00               	movlw	0
  9825   004EAE  6E48               	movwf	(___fldiv@grs+3)^0,c
  9826   004EB0  0E00               	movlw	0
  9827   004EB2  6E4A               	movwf	___fldiv@aexp^0,c
  9828   004EB4  EF94  F027         	goto	l917
  9829   004EB8                     l3365:
  9830   004EB8  504A               	movf	___fldiv@aexp^0,w,c
  9831   004EBA  B4D8               	btfsc	status,2,c
  9832   004EBC  EF62  F027         	goto	u2941
  9833   004EC0  EF64  F027         	goto	u2940
  9834   004EC4                     u2941:
  9835   004EC4  EF7B  F027         	goto	l3373
  9836   004EC8                     u2940:
  9837   004EC8  90D8               	bcf	status,0,c
  9838   004ECA  363E               	rlcf	___fldiv@rem^0,f,c
  9839   004ECC  363F               	rlcf	(___fldiv@rem+1)^0,f,c
  9840   004ECE  3640               	rlcf	(___fldiv@rem+2)^0,f,c
  9841   004ED0  3641               	rlcf	(___fldiv@rem+3)^0,f,c
  9842   004ED2  90D8               	bcf	status,0,c
  9843   004ED4  3632               	rlcf	___fldiv@b^0,f,c
  9844   004ED6  3633               	rlcf	(___fldiv@b+1)^0,f,c
  9845   004ED8  3634               	rlcf	(___fldiv@b+2)^0,f,c
  9846   004EDA  3635               	rlcf	(___fldiv@b+3)^0,f,c
  9847   004EDC  AE48               	btfss	(___fldiv@grs+3)^0,7,c
  9848   004EDE  EF73  F027         	goto	u2951
  9849   004EE2  EF75  F027         	goto	u2950
  9850   004EE6                     u2951:
  9851   004EE6  EF76  F027         	goto	l920
  9852   004EEA                     u2950:
  9853   004EEA  8032               	bsf	___fldiv@b^0,0,c
  9854   004EEC                     l920:
  9855   004EEC  90D8               	bcf	status,0,c
  9856   004EEE  3645               	rlcf	___fldiv@grs^0,f,c
  9857   004EF0  3646               	rlcf	(___fldiv@grs+1)^0,f,c
  9858   004EF2  3647               	rlcf	(___fldiv@grs+2)^0,f,c
  9859   004EF4  3648               	rlcf	(___fldiv@grs+3)^0,f,c
  9860   004EF6                     l3373:
  9861   004EF6  5036               	movf	___fldiv@a^0,w,c
  9862   004EF8  5C3E               	subwf	___fldiv@rem^0,w,c
  9863   004EFA  5037               	movf	(___fldiv@a+1)^0,w,c
  9864   004EFC  583F               	subwfb	(___fldiv@rem+1)^0,w,c
  9865   004EFE  5038               	movf	(___fldiv@a+2)^0,w,c
  9866   004F00  5840               	subwfb	(___fldiv@rem+2)^0,w,c
  9867   004F02  5039               	movf	(___fldiv@a+3)^0,w,c
  9868   004F04  5841               	subwfb	(___fldiv@rem+3)^0,w,c
  9869   004F06  A0D8               	btfss	status,0,c
  9870   004F08  EF88  F027         	goto	u2961
  9871   004F0C  EF8A  F027         	goto	u2960
  9872   004F10                     u2961:
  9873   004F10  EF93  F027         	goto	l3379
  9874   004F14                     u2960:
  9875   004F14  8C48               	bsf	(___fldiv@grs+3)^0,6,c
  9876   004F16  5036               	movf	___fldiv@a^0,w,c
  9877   004F18  5E3E               	subwf	___fldiv@rem^0,f,c
  9878   004F1A  5037               	movf	(___fldiv@a+1)^0,w,c
  9879   004F1C  5A3F               	subwfb	(___fldiv@rem+1)^0,f,c
  9880   004F1E  5038               	movf	(___fldiv@a+2)^0,w,c
  9881   004F20  5A40               	subwfb	(___fldiv@rem+2)^0,f,c
  9882   004F22  5039               	movf	(___fldiv@a+3)^0,w,c
  9883   004F24  5A41               	subwfb	(___fldiv@rem+3)^0,f,c
  9884   004F26                     l3379:
  9885   004F26  2A4A               	incf	___fldiv@aexp^0,f,c
  9886   004F28                     l917:
  9887   004F28  0E19               	movlw	25
  9888   004F2A  644A               	cpfsgt	___fldiv@aexp^0,c
  9889   004F2C  EF9A  F027         	goto	u2971
  9890   004F30  EF9C  F027         	goto	u2970
  9891   004F34                     u2971:
  9892   004F34  EF5C  F027         	goto	l3365
  9893   004F38                     u2970:
  9894   004F38  503E               	movf	___fldiv@rem^0,w,c
  9895   004F3A  103F               	iorwf	(___fldiv@rem+1)^0,w,c
  9896   004F3C  1040               	iorwf	(___fldiv@rem+2)^0,w,c
  9897   004F3E  1041               	iorwf	(___fldiv@rem+3)^0,w,c
  9898   004F40  B4D8               	btfsc	status,2,c
  9899   004F42  EFA5  F027         	goto	u2981
  9900   004F46  EFA7  F027         	goto	u2980
  9901   004F4A                     u2981:
  9902   004F4A  EFBF  F027         	goto	l3391
  9903   004F4E                     u2980:
  9904   004F4E  8045               	bsf	___fldiv@grs^0,0,c
  9905   004F50  EFBF  F027         	goto	l3391
  9906   004F54                     l3385:
  9907   004F54  90D8               	bcf	status,0,c
  9908   004F56  3632               	rlcf	___fldiv@b^0,f,c
  9909   004F58  3633               	rlcf	(___fldiv@b+1)^0,f,c
  9910   004F5A  3634               	rlcf	(___fldiv@b+2)^0,f,c
  9911   004F5C  3635               	rlcf	(___fldiv@b+3)^0,f,c
  9912   004F5E  AE48               	btfss	(___fldiv@grs+3)^0,7,c
  9913   004F60  EFB4  F027         	goto	u2991
  9914   004F64  EFB6  F027         	goto	u2990
  9915   004F68                     u2991:
  9916   004F68  EFB7  F027         	goto	l926
  9917   004F6C                     u2990:
  9918   004F6C  8032               	bsf	___fldiv@b^0,0,c
  9919   004F6E                     l926:
  9920   004F6E  90D8               	bcf	status,0,c
  9921   004F70  3645               	rlcf	___fldiv@grs^0,f,c
  9922   004F72  3646               	rlcf	(___fldiv@grs+1)^0,f,c
  9923   004F74  3647               	rlcf	(___fldiv@grs+2)^0,f,c
  9924   004F76  3648               	rlcf	(___fldiv@grs+3)^0,f,c
  9925   004F78  0643               	decf	___fldiv@new_exp^0,f,c
  9926   004F7A  A0D8               	btfss	status,0,c
  9927   004F7C  0644               	decf	(___fldiv@new_exp+1)^0,f,c
  9928   004F7E                     l3391:
  9929   004F7E  AE34               	btfss	(___fldiv@b+2)^0,7,c
  9930   004F80  EFC4  F027         	goto	u3001
  9931   004F84  EFC6  F027         	goto	u3000
  9932   004F88                     u3001:
  9933   004F88  EFAA  F027         	goto	l3385
  9934   004F8C                     u3000:
  9935   004F8C  0E00               	movlw	0
  9936   004F8E  6E4A               	movwf	___fldiv@aexp^0,c
  9937   004F90  AE48               	btfss	(___fldiv@grs+3)^0,7,c
  9938   004F92  EFCD  F027         	goto	u3011
  9939   004F96  EFCF  F027         	goto	u3010
  9940   004F9A                     u3011:
  9941   004F9A  EFF3  F027         	goto	l928
  9942   004F9E                     u3010:
  9943   004F9E  0EFF               	movlw	255
  9944   004FA0  1445               	andwf	___fldiv@grs^0,w,c
  9945   004FA2  6E3A               	movwf	??___fldiv^0,c
  9946   004FA4  0EFF               	movlw	255
  9947   004FA6  1446               	andwf	(___fldiv@grs+1)^0,w,c
  9948   004FA8  6E3B               	movwf	(??___fldiv+1)^0,c
  9949   004FAA  0EFF               	movlw	255
  9950   004FAC  1447               	andwf	(___fldiv@grs+2)^0,w,c
  9951   004FAE  6E3C               	movwf	(??___fldiv+2)^0,c
  9952   004FB0  0E7F               	movlw	127
  9953   004FB2  1448               	andwf	(___fldiv@grs+3)^0,w,c
  9954   004FB4  6E3D               	movwf	(??___fldiv+3)^0,c
  9955   004FB6  503A               	movf	??___fldiv^0,w,c
  9956   004FB8  103B               	iorwf	(??___fldiv+1)^0,w,c
  9957   004FBA  103C               	iorwf	(??___fldiv+2)^0,w,c
  9958   004FBC  103D               	iorwf	(??___fldiv+3)^0,w,c
  9959   004FBE  B4D8               	btfsc	status,2,c
  9960   004FC0  EFE4  F027         	goto	u3021
  9961   004FC4  EFE6  F027         	goto	u3020
  9962   004FC8                     u3021:
  9963   004FC8  EFEA  F027         	goto	l929
  9964   004FCC                     u3020:
  9965   004FCC                     l3399:
  9966   004FCC  0E01               	movlw	1
  9967   004FCE  6E4A               	movwf	___fldiv@aexp^0,c
  9968   004FD0  EFF3  F027         	goto	l928
  9969   004FD4                     l929:
  9970   004FD4  A032               	btfss	___fldiv@b^0,0,c
  9971   004FD6  EFEF  F027         	goto	u3031
  9972   004FDA  EFF1  F027         	goto	u3030
  9973   004FDE                     u3031:
  9974   004FDE  EFF3  F027         	goto	l928
  9975   004FE2                     u3030:
  9976   004FE2  EFE6  F027         	goto	l3399
  9977   004FE6                     l928:
  9978   004FE6  504A               	movf	___fldiv@aexp^0,w,c
  9979   004FE8  B4D8               	btfsc	status,2,c
  9980   004FEA  EFF9  F027         	goto	u3041
  9981   004FEE  EFFB  F027         	goto	u3040
  9982   004FF2                     u3041:
  9983   004FF2  EF1F  F028         	goto	l3411
  9984   004FF6                     u3040:
  9985   004FF6  0E01               	movlw	1
  9986   004FF8  2632               	addwf	___fldiv@b^0,f,c
  9987   004FFA  0E00               	movlw	0
  9988   004FFC  2233               	addwfc	(___fldiv@b+1)^0,f,c
  9989   004FFE  2234               	addwfc	(___fldiv@b+2)^0,f,c
  9990   005000  2235               	addwfc	(___fldiv@b+3)^0,f,c
  9991   005002  A035               	btfss	(___fldiv@b+3)^0,0,c
  9992   005004  EF06  F028         	goto	u3051
  9993   005008  EF08  F028         	goto	u3050
  9994   00500C                     u3051:
  9995   00500C  EF1F  F028         	goto	l3411
  9996   005010                     u3050:
  9997   005010  C032  F03A         	movff	___fldiv@b,??___fldiv
  9998   005014  C033  F03B         	movff	___fldiv@b+1,??___fldiv+1
  9999   005018  C034  F03C         	movff	___fldiv@b+2,??___fldiv+2
 10000   00501C  C035  F03D         	movff	___fldiv@b+3,??___fldiv+3
 10001   005020  343D               	rlcf	(??___fldiv+3)^0,w,c
 10002   005022  323D               	rrcf	(??___fldiv+3)^0,f,c
 10003   005024  323C               	rrcf	(??___fldiv+2)^0,f,c
 10004   005026  323B               	rrcf	(??___fldiv+1)^0,f,c
 10005   005028  323A               	rrcf	??___fldiv^0,f,c
 10006   00502A  C03A  F032         	movff	??___fldiv,___fldiv@b
 10007   00502E  C03B  F033         	movff	??___fldiv+1,___fldiv@b+1
 10008   005032  C03C  F034         	movff	??___fldiv+2,___fldiv@b+2
 10009   005036  C03D  F035         	movff	??___fldiv+3,___fldiv@b+3
 10010   00503A  4A43               	infsnz	___fldiv@new_exp^0,f,c
 10011   00503C  2A44               	incf	(___fldiv@new_exp+1)^0,f,c
 10012   00503E                     l3411:
 10013   00503E  BE44               	btfsc	(___fldiv@new_exp+1)^0,7,c
 10014   005040  EF2A  F028         	goto	u3061
 10015   005044  5044               	movf	(___fldiv@new_exp+1)^0,w,c
 10016   005046  E108               	bnz	u3060
 10017   005048  2843               	incf	___fldiv@new_exp^0,w,c
 10018   00504A  A0D8               	btfss	status,0,c
 10019   00504C  EF2A  F028         	goto	u3061
 10020   005050  EF2C  F028         	goto	u3060
 10021   005054                     u3061:
 10022   005054  EF37  F028         	goto	l3415
 10023   005058                     u3060:
 10024   005058  0E00               	movlw	0
 10025   00505A  6E44               	movwf	(___fldiv@new_exp+1)^0,c
 10026   00505C  6843               	setf	___fldiv@new_exp^0,c
 10027   00505E  0E00               	movlw	0
 10028   005060  6E32               	movwf	___fldiv@b^0,c
 10029   005062  0E00               	movlw	0
 10030   005064  6E33               	movwf	(___fldiv@b+1)^0,c
 10031   005066  0E00               	movlw	0
 10032   005068  6E34               	movwf	(___fldiv@b+2)^0,c
 10033   00506A  0E00               	movlw	0
 10034   00506C  6E35               	movwf	(___fldiv@b+3)^0,c
 10035   00506E                     l3415:
 10036   00506E  BE44               	btfsc	(___fldiv@new_exp+1)^0,7,c
 10037   005070  EF44  F028         	goto	u3070
 10038   005074  5044               	movf	(___fldiv@new_exp+1)^0,w,c
 10039   005076  E106               	bnz	u3071
 10040   005078  0443               	decf	___fldiv@new_exp^0,w,c
 10041   00507A  B0D8               	btfsc	status,0,c
 10042   00507C  EF42  F028         	goto	u3071
 10043   005080  EF44  F028         	goto	u3070
 10044   005084                     u3071:
 10045   005084  EF52  F028         	goto	l3419
 10046   005088                     u3070:
 10047   005088  0E00               	movlw	0
 10048   00508A  6E44               	movwf	(___fldiv@new_exp+1)^0,c
 10049   00508C  0E00               	movlw	0
 10050   00508E  6E43               	movwf	___fldiv@new_exp^0,c
 10051   005090  0E00               	movlw	0
 10052   005092  6E32               	movwf	___fldiv@b^0,c
 10053   005094  0E00               	movlw	0
 10054   005096  6E33               	movwf	(___fldiv@b+1)^0,c
 10055   005098  0E00               	movlw	0
 10056   00509A  6E34               	movwf	(___fldiv@b+2)^0,c
 10057   00509C  0E00               	movlw	0
 10058   00509E  6E35               	movwf	(___fldiv@b+3)^0,c
 10059   0050A0  0E00               	movlw	0
 10060   0050A2  6E42               	movwf	___fldiv@sign^0,c
 10061   0050A4                     l3419:
 10062   0050A4  C043  F049         	movff	___fldiv@new_exp,___fldiv@bexp
 10063   0050A8  A049               	btfss	___fldiv@bexp^0,0,c
 10064   0050AA  EF59  F028         	goto	u3081
 10065   0050AE  EF5B  F028         	goto	u3080
 10066   0050B2                     u3081:
 10067   0050B2  EF5E  F028         	goto	l3425
 10068   0050B6                     u3080:
 10069   0050B6  8E34               	bsf	(___fldiv@b+2)^0,7,c
 10070   0050B8  EF5F  F028         	goto	l3427
 10071   0050BC                     l3425:
 10072   0050BC  9E34               	bcf	(___fldiv@b+2)^0,7,c
 10073   0050BE                     l3427:
 10074   0050BE  90D8               	bcf	status,0,c
 10075   0050C0  3049               	rrcf	___fldiv@bexp^0,w,c
 10076   0050C2  6E35               	movwf	(___fldiv@b+3)^0,c
 10077   0050C4  EF15  F027         	goto	l3341
 10078   0050C8                     l915:
 10079   0050C8  0012               	return		;funcret
 10080   0050CA                     __end_of___fldiv:
 10081                           	callstack 0
 10082                           
 10083 ;; *************** function ___fltol *****************
 10084 ;; Defined at:
 10085 ;;		line 43 in file "C:\Program Files\Microchip\xc8\v2.40\pic\sources\c99\common\fltol.c"
 10086 ;; Parameters:    Size  Location     Type
 10087 ;;  f1              4   44[BANK0 ] unsigned char 
 10088 ;; Auto vars:     Size  Location     Type
 10089 ;;  exp1            1   88[COMRAM] unsigned char 
 10090 ;;  sign1           1   87[COMRAM] unsigned char 
 10091 ;; Return value:  Size  Location     Type
 10092 ;;                  4   44[BANK0 ] long 
 10093 ;; Registers used:
 10094 ;;		wreg, status,2, status,0
 10095 ;; Tracked objects:
 10096 ;;		On entry : 0/0
 10097 ;;		On exit  : 0/0
 10098 ;;		Unchanged: 0/0
 10099 ;; Data sizes:     COMRAM   BANK0   BANK1   BANK2   BANK3   BANK4   BANK5   BANK6   BANK7   BANK8   BANK9  BANK10  BANK1
      +1  BANK12  BANK13  BANK14  BANK15
 10100 ;;      Params:         0       4       0       0       0       0       0       0       0       0       0       0       
      +0       0       0       0       0
 10101 ;;      Locals:         2       0       0       0       0       0       0       0       0       0       0       0       
      +0       0       0       0       0
 10102 ;;      Temps:          4       0       0       0       0       0       0       0       0       0       0       0       
      +0       0       0       0       0
 10103 ;;      Totals:         6       4       0       0       0       0       0       0       0       0       0       0       
      +0       0       0       0       0
 10104 ;;Total ram usage:       10 bytes
 10105 ;; Hardware stack levels used: 1
 10106 ;; This function calls:
 10107 ;;		Nothing
 10108 ;; This function is called by:
 10109 ;;		_increment
 10110 ;; This function uses a non-reentrant model
 10111 ;;
 10112                           
 10113                           	psect	text19
 10114   0057F6                     __ptext19:
 10115                           	callstack 0
 10116   0057F6                     ___fltol:
 10117                           	callstack 28
 10118   0057F6  0100               	movlb	0	; () banked
 10119   0057F8  358E               	rlcf	(___fltol@f1+2)& (0+255),w,b
 10120   0057FA  358F               	rlcf	(___fltol@f1+3)& (0+255),w,b
 10121   0057FC  6E59               	movwf	___fltol@exp1^0,c
 10122   0057FE  5059               	movf	___fltol@exp1^0,w,c
 10123   005800  A4D8               	btfss	status,2,c
 10124   005802  EF05  F02C         	goto	u4101
 10125   005806  EF07  F02C         	goto	u4100
 10126   00580A                     u4101:
 10127   00580A  EF11  F02C         	goto	l4129
 10128   00580E                     u4100:
 10129   00580E                     l4125:
 10130                           
 10131                           ; BSR set to: 0
 10132   00580E  0E00               	movlw	0
 10133   005810  6F8C               	movwf	?___fltol& (0+255),b
 10134   005812  0E00               	movlw	0
 10135   005814  6F8D               	movwf	(?___fltol+1)& (0+255),b
 10136   005816  0E00               	movlw	0
 10137   005818  6F8E               	movwf	(?___fltol+2)& (0+255),b
 10138   00581A  0E00               	movlw	0
 10139   00581C  6F8F               	movwf	(?___fltol+3)& (0+255),b
 10140   00581E  EF7E  F02C         	goto	l630
 10141   005822                     l4129:
 10142                           
 10143                           ; BSR set to: 0
 10144   005822  C08C  F054         	movff	___fltol@f1,??___fltol
 10145   005826  C08D  F055         	movff	___fltol@f1+1,??___fltol+1
 10146   00582A  C08E  F056         	movff	___fltol@f1+2,??___fltol+2
 10147   00582E  C08F  F057         	movff	___fltol@f1+3,??___fltol+3
 10148   005832  0E20               	movlw	32
 10149   005834  EF21  F02C         	goto	u4110
 10150   005838                     u4115:
 10151   005838  90D8               	bcf	status,0,c
 10152   00583A  3257               	rrcf	(??___fltol+3)^0,f,c
 10153   00583C  3256               	rrcf	(??___fltol+2)^0,f,c
 10154   00583E  3255               	rrcf	(??___fltol+1)^0,f,c
 10155   005840  3254               	rrcf	??___fltol^0,f,c
 10156   005842                     u4110:
 10157   005842  2EE8               	decfsz	wreg,f,c
 10158   005844  EF1C  F02C         	goto	u4115
 10159   005848  5054               	movf	??___fltol^0,w,c
 10160   00584A  6E58               	movwf	___fltol@sign1^0,c
 10161   00584C                     
 10162                           ; BSR set to: 0
 10163   00584C  8F8E               	bsf	(___fltol@f1+2)& (0+255),7,b
 10164   00584E                     
 10165                           ; BSR set to: 0
 10166   00584E  0EFF               	movlw	255
 10167   005850  178C               	andwf	___fltol@f1& (0+255),f,b
 10168   005852  0EFF               	movlw	255
 10169   005854  178D               	andwf	(___fltol@f1+1)& (0+255),f,b
 10170   005856  0EFF               	movlw	255
 10171   005858  178E               	andwf	(___fltol@f1+2)& (0+255),f,b
 10172   00585A  0E00               	movlw	0
 10173   00585C  178F               	andwf	(___fltol@f1+3)& (0+255),f,b
 10174   00585E                     
 10175                           ; BSR set to: 0
 10176   00585E  0E96               	movlw	150
 10177   005860  5E59               	subwf	___fltol@exp1^0,f,c
 10178   005862                     
 10179                           ; BSR set to: 0
 10180   005862  BE59               	btfsc	___fltol@exp1^0,7,c
 10181   005864  EF38  F02C         	goto	u4120
 10182   005868  EF36  F02C         	goto	u4121
 10183   00586C                     u4121:
 10184   00586C  EF4E  F02C         	goto	l4149
 10185   005870                     u4120:
 10186   005870                     
 10187                           ; BSR set to: 0
 10188   005870  5059               	movf	___fltol@exp1^0,w,c
 10189   005872  0A80               	xorlw	128
 10190   005874  0F97               	addlw	151
 10191   005876  B0D8               	btfsc	status,0,c
 10192   005878  EF40  F02C         	goto	u4131
 10193   00587C  EF42  F02C         	goto	u4130
 10194   005880                     u4131:
 10195   005880  EF44  F02C         	goto	l4145
 10196   005884                     u4130:
 10197   005884  EF07  F02C         	goto	l4125
 10198   005888                     l4145:
 10199                           
 10200                           ; BSR set to: 0
 10201   005888  90D8               	bcf	status,0,c
 10202   00588A  338F               	rrcf	(___fltol@f1+3)& (0+255),f,b
 10203   00588C  338E               	rrcf	(___fltol@f1+2)& (0+255),f,b
 10204   00588E  338D               	rrcf	(___fltol@f1+1)& (0+255),f,b
 10205   005890  338C               	rrcf	___fltol@f1& (0+255),f,b
 10206   005892                     
 10207                           ; BSR set to: 0
 10208   005892  3E59               	incfsz	___fltol@exp1^0,f,c
 10209   005894  EF44  F02C         	goto	l4145
 10210   005898  EF66  F02C         	goto	l4159
 10211   00589C                     l4149:
 10212                           
 10213                           ; BSR set to: 0
 10214   00589C  0E1F               	movlw	31
 10215   00589E  6459               	cpfsgt	___fltol@exp1^0,c
 10216   0058A0  EF54  F02C         	goto	u4141
 10217   0058A4  EF56  F02C         	goto	u4140
 10218   0058A8                     u4141:
 10219   0058A8  EF5E  F02C         	goto	l4157
 10220   0058AC                     u4140:
 10221   0058AC  EF07  F02C         	goto	l4125
 10222   0058B0                     l4155:
 10223                           
 10224                           ; BSR set to: 0
 10225   0058B0  90D8               	bcf	status,0,c
 10226   0058B2  378C               	rlcf	___fltol@f1& (0+255),f,b
 10227   0058B4  378D               	rlcf	(___fltol@f1+1)& (0+255),f,b
 10228   0058B6  378E               	rlcf	(___fltol@f1+2)& (0+255),f,b
 10229   0058B8  378F               	rlcf	(___fltol@f1+3)& (0+255),f,b
 10230   0058BA  0659               	decf	___fltol@exp1^0,f,c
 10231   0058BC                     l4157:
 10232                           
 10233                           ; BSR set to: 0
 10234   0058BC  5059               	movf	___fltol@exp1^0,w,c
 10235   0058BE  A4D8               	btfss	status,2,c
 10236   0058C0  EF64  F02C         	goto	u4151
 10237   0058C4  EF66  F02C         	goto	u4150
 10238   0058C8                     u4151:
 10239   0058C8  EF58  F02C         	goto	l4155
 10240   0058CC                     u4150:
 10241   0058CC                     l4159:
 10242                           
 10243                           ; BSR set to: 0
 10244   0058CC  5058               	movf	___fltol@sign1^0,w,c
 10245   0058CE  B4D8               	btfsc	status,2,c
 10246   0058D0  EF6C  F02C         	goto	u4161
 10247   0058D4  EF6E  F02C         	goto	u4160
 10248   0058D8                     u4161:
 10249   0058D8  EF76  F02C         	goto	l4163
 10250   0058DC                     u4160:
 10251   0058DC                     
 10252                           ; BSR set to: 0
 10253   0058DC  1F8F               	comf	(___fltol@f1+3)& (0+255),f,b
 10254   0058DE  1F8E               	comf	(___fltol@f1+2)& (0+255),f,b
 10255   0058E0  1F8D               	comf	(___fltol@f1+1)& (0+255),f,b
 10256   0058E2  6D8C               	negf	___fltol@f1& (0+255),b
 10257   0058E4  0E00               	movlw	0
 10258   0058E6  238D               	addwfc	(___fltol@f1+1)& (0+255),f,b
 10259   0058E8  238E               	addwfc	(___fltol@f1+2)& (0+255),f,b
 10260   0058EA  238F               	addwfc	(___fltol@f1+3)& (0+255),f,b
 10261   0058EC                     l4163:
 10262                           
 10263                           ; BSR set to: 0
 10264   0058EC  C08C  F08C         	movff	___fltol@f1,?___fltol
 10265   0058F0  C08D  F08D         	movff	___fltol@f1+1,?___fltol+1
 10266   0058F4  C08E  F08E         	movff	___fltol@f1+2,?___fltol+2
 10267   0058F8  C08F  F08F         	movff	___fltol@f1+3,?___fltol+3
 10268   0058FC                     l630:
 10269                           
 10270                           ; BSR set to: 0
 10271   0058FC  0012               	return		;funcret
 10272   0058FE                     __end_of___fltol:
 10273                           	callstack 0
 10274                           
 10275 ;; *************** function _LcdDisplayOnCursorOn *****************
 10276 ;; Defined at:
 10277 ;;		line 187 in file "lcd.c"
 10278 ;; Parameters:    Size  Location     Type
 10279 ;;  RowNum          1    wreg     unsigned char 
 10280 ;;  Pos             1    3[COMRAM] unsigned char 
 10281 ;; Auto vars:     Size  Location     Type
 10282 ;;  RowNum          1    4[COMRAM] unsigned char 
 10283 ;; Return value:  Size  Location     Type
 10284 ;;                  1    wreg      void 
 10285 ;; Registers used:
 10286 ;;		wreg, status,2, status,0, cstack
 10287 ;; Tracked objects:
 10288 ;;		On entry : 0/0
 10289 ;;		On exit  : 0/0
 10290 ;;		Unchanged: 0/0
 10291 ;; Data sizes:     COMRAM   BANK0   BANK1   BANK2   BANK3   BANK4   BANK5   BANK6   BANK7   BANK8   BANK9  BANK10  BANK1
      +1  BANK12  BANK13  BANK14  BANK15
 10292 ;;      Params:         1       0       0       0       0       0       0       0       0       0       0       0       
      +0       0       0       0       0
 10293 ;;      Locals:         1       0       0       0       0       0       0       0       0       0       0       0       
      +0       0       0       0       0
 10294 ;;      Temps:          0       0       0       0       0       0       0       0       0       0       0       0       
      +0       0       0       0       0
 10295 ;;      Totals:         2       0       0       0       0       0       0       0       0       0       0       0       
      +0       0       0       0       0
 10296 ;;Total ram usage:        2 bytes
 10297 ;; Hardware stack levels used: 1
 10298 ;; Hardware stack levels required when called: 1
 10299 ;; This function calls:
 10300 ;;		_SendLcdCommand
 10301 ;; This function is called by:
 10302 ;;		_increment
 10303 ;; This function uses a non-reentrant model
 10304 ;;
 10305                           
 10306                           	psect	text20
 10307   0060F0                     __ptext20:
 10308                           	callstack 0
 10309   0060F0                     _LcdDisplayOnCursorOn:
 10310                           	callstack 27
 10311                           
 10312                           ; BSR set to: 0
 10313                           ;incstack = 0
 10314                           ;LcdDisplayOnCursorOn@RowNum stored from wreg
 10315   0060F0  6E05               	movwf	LcdDisplayOnCursorOn@RowNum^0,c
 10316   0060F2                     
 10317                           ;lcd.c: 187: void LcdDisplayOnCursorOn( unsigned char RowNum, unsigned char Pos );lcd.c:
      +                           188: {;lcd.c: 189:     SendLcdCommand( 0X0F);
 10318   0060F2  0E0F               	movlw	15
 10319   0060F4  ECE9  F02F         	call	_SendLcdCommand
 10320   0060F8                     
 10321                           ;lcd.c: 191:     if( RowNum == 1)
 10322   0060F8  0405               	decf	LcdDisplayOnCursorOn@RowNum^0,w,c
 10323   0060FA  A4D8               	btfss	status,2,c
 10324   0060FC  EF82  F030         	goto	u3511
 10325   006100  EF84  F030         	goto	u3510
 10326   006104                     u3511:
 10327   006104  EF8A  F030         	goto	l3667
 10328   006108                     u3510:
 10329   006108                     
 10330                           ;lcd.c: 192:     {;lcd.c: 193:         SendLcdCommand(0X80 | Pos);
 10331   006108  5004               	movf	LcdDisplayOnCursorOn@Pos^0,w,c
 10332   00610A  0980               	iorlw	128
 10333   00610C  ECE9  F02F         	call	_SendLcdCommand
 10334                           
 10335                           ;lcd.c: 194:     }
 10336   006110  EF97  F030         	goto	l137
 10337   006114                     l3667:
 10338   006114  0E02               	movlw	2
 10339   006116  1805               	xorwf	LcdDisplayOnCursorOn@RowNum^0,w,c
 10340   006118  A4D8               	btfss	status,2,c
 10341   00611A  EF91  F030         	goto	u3521
 10342   00611E  EF93  F030         	goto	u3520
 10343   006122                     u3521:
 10344   006122  EF97  F030         	goto	l137
 10345   006126                     u3520:
 10346   006126                     
 10347                           ;lcd.c: 196:     {;lcd.c: 197:         SendLcdCommand(0XC0 | Pos);
 10348   006126  5004               	movf	LcdDisplayOnCursorOn@Pos^0,w,c
 10349   006128  09C0               	iorlw	192
 10350   00612A  ECE9  F02F         	call	_SendLcdCommand
 10351   00612E                     l137:
 10352   00612E  0012               	return		;funcret
 10353   006130                     __end_of_LcdDisplayOnCursorOn:
 10354                           	callstack 0
 10355                           
 10356 ;; *************** function _LcdDisplayChar *****************
 10357 ;; Defined at:
 10358 ;;		line 92 in file "lcd.c"
 10359 ;; Parameters:    Size  Location     Type
 10360 ;;  RowNum          1    wreg     unsigned char 
 10361 ;;  Pos             1    3[COMRAM] unsigned char 
 10362 ;;  Data            1    4[COMRAM] unsigned char 
 10363 ;; Auto vars:     Size  Location     Type
 10364 ;;  RowNum          1    5[COMRAM] unsigned char 
 10365 ;; Return value:  Size  Location     Type
 10366 ;;                  1    wreg      void 
 10367 ;; Registers used:
 10368 ;;		wreg, status,2, status,0, cstack
 10369 ;; Tracked objects:
 10370 ;;		On entry : 0/0
 10371 ;;		On exit  : 0/0
 10372 ;;		Unchanged: 0/0
 10373 ;; Data sizes:     COMRAM   BANK0   BANK1   BANK2   BANK3   BANK4   BANK5   BANK6   BANK7   BANK8   BANK9  BANK10  BANK1
      +1  BANK12  BANK13  BANK14  BANK15
 10374 ;;      Params:         2       0       0       0       0       0       0       0       0       0       0       0       
      +0       0       0       0       0
 10375 ;;      Locals:         1       0       0       0       0       0       0       0       0       0       0       0       
      +0       0       0       0       0
 10376 ;;      Temps:          0       0       0       0       0       0       0       0       0       0       0       0       
      +0       0       0       0       0
 10377 ;;      Totals:         3       0       0       0       0       0       0       0       0       0       0       0       
      +0       0       0       0       0
 10378 ;;Total ram usage:        3 bytes
 10379 ;; Hardware stack levels used: 1
 10380 ;; Hardware stack levels required when called: 1
 10381 ;; This function calls:
 10382 ;;		_SendLcdCommand
 10383 ;;		_SendLcdData
 10384 ;; This function is called by:
 10385 ;;		_increment
 10386 ;;		_LcdDisplayCharNumber
 10387 ;; This function uses a non-reentrant model
 10388 ;;
 10389                           
 10390                           	psect	text21
 10391   00606E                     __ptext21:
 10392                           	callstack 0
 10393   00606E                     _LcdDisplayChar:
 10394                           	callstack 27
 10395                           
 10396                           ;incstack = 0
 10397                           ;LcdDisplayChar@RowNum stored from wreg
 10398   00606E  6E06               	movwf	LcdDisplayChar@RowNum^0,c
 10399   006070                     
 10400                           ;lcd.c: 92: void LcdDisplayChar(unsigned char RowNum, unsigned char Pos, char Data);lcd.
      +                          c: 93: {;lcd.c: 94:     if( RowNum == 1)
 10401   006070  0406               	decf	LcdDisplayChar@RowNum^0,w,c
 10402   006072  A4D8               	btfss	status,2,c
 10403   006074  EF3E  F030         	goto	u3461
 10404   006078  EF40  F030         	goto	u3460
 10405   00607C                     u3461:
 10406   00607C  EF46  F030         	goto	l3639
 10407   006080                     u3460:
 10408   006080                     
 10409                           ;lcd.c: 95:     {;lcd.c: 96:         SendLcdCommand(0X80 | Pos);
 10410   006080  5004               	movf	LcdDisplayChar@Pos^0,w,c
 10411   006082  0980               	iorlw	128
 10412   006084  ECE9  F02F         	call	_SendLcdCommand
 10413                           
 10414                           ;lcd.c: 97:     }
 10415   006088  EF53  F030         	goto	l97
 10416   00608C                     l3639:
 10417   00608C  0E02               	movlw	2
 10418   00608E  1806               	xorwf	LcdDisplayChar@RowNum^0,w,c
 10419   006090  A4D8               	btfss	status,2,c
 10420   006092  EF4D  F030         	goto	u3471
 10421   006096  EF4F  F030         	goto	u3470
 10422   00609A                     u3471:
 10423   00609A  EF53  F030         	goto	l97
 10424   00609E                     u3470:
 10425   00609E                     
 10426                           ;lcd.c: 99:     {;lcd.c: 100:         SendLcdCommand(0XC0 | Pos);
 10427   00609E  5004               	movf	LcdDisplayChar@Pos^0,w,c
 10428   0060A0  09C0               	iorlw	192
 10429   0060A2  ECE9  F02F         	call	_SendLcdCommand
 10430   0060A6                     l97:
 10431                           
 10432                           ;lcd.c: 103:     SendLcdData(Data+48);
 10433   0060A6  5005               	movf	LcdDisplayChar@Data^0,w,c
 10434   0060A8  0F30               	addlw	48
 10435   0060AA  ECBE  F02F         	call	_SendLcdData
 10436   0060AE  0012               	return		;funcret
 10437   0060B0                     __end_of_LcdDisplayChar:
 10438                           	callstack 0
 10439                           
 10440 ;; *************** function _LcdDisplaytwo *****************
 10441 ;; Defined at:
 10442 ;;		line 150 in file "lcd.c"
 10443 ;; Parameters:    Size  Location     Type
 10444 ;;  RowNum          1    wreg     unsigned char 
 10445 ;;  Pos             1   12[COMRAM] unsigned char 
 10446 ;;  Data            2   13[COMRAM] unsigned short 
 10447 ;; Auto vars:     Size  Location     Type
 10448 ;;  RowNum          1   15[COMRAM] unsigned char 
 10449 ;; Return value:  Size  Location     Type
 10450 ;;                  1    wreg      unsigned char 
 10451 ;; Registers used:
 10452 ;;		wreg, fsr0l, fsr0h, fsr2l, fsr2h, status,2, status,0, tblptrl, tblptrh, tblptru, cstack
 10453 ;; Tracked objects:
 10454 ;;		On entry : 0/0
 10455 ;;		On exit  : 0/0
 10456 ;;		Unchanged: 0/0
 10457 ;; Data sizes:     COMRAM   BANK0   BANK1   BANK2   BANK3   BANK4   BANK5   BANK6   BANK7   BANK8   BANK9  BANK10  BANK1
      +1  BANK12  BANK13  BANK14  BANK15
 10458 ;;      Params:         3       0       0       0       0       0       0       0       0       0       0       0       
      +0       0       0       0       0
 10459 ;;      Locals:         1       0       0       0       0       0       0       0       0       0       0       0       
      +0       0       0       0       0
 10460 ;;      Temps:          0       0       0       0       0       0       0       0       0       0       0       0       
      +0       0       0       0       0
 10461 ;;      Totals:         4       0       0       0       0       0       0       0       0       0       0       0       
      +0       0       0       0       0
 10462 ;;Total ram usage:        4 bytes
 10463 ;; Hardware stack levels used: 1
 10464 ;; Hardware stack levels required when called: 2
 10465 ;; This function calls:
 10466 ;;		_LcdDisplayString
 10467 ;;		_ValidateNumber
 10468 ;;		___lwdiv
 10469 ;;		___lwmod
 10470 ;; This function is called by:
 10471 ;;		_Dothi_settings
 10472 ;; This function uses a non-reentrant model
 10473 ;;
 10474                           
 10475                           	psect	text22
 10476   005D62                     __ptext22:
 10477                           	callstack 0
 10478   005D62                     _LcdDisplaytwo:
 10479                           	callstack 27
 10480                           
 10481                           ;incstack = 0
 10482                           ;LcdDisplaytwo@RowNum stored from wreg
 10483   005D62  6E10               	movwf	LcdDisplaytwo@RowNum^0,c
 10484   005D64                     
 10485                           ;lcd.c: 150: unsigned char LcdDisplaytwo(unsigned char RowNum, unsigned char Pos, unsign
      +                          ed short Data);lcd.c: 151: {;lcd.c: 152:     DataArray2[0] = (unsigned char)(((Data)/10)
      +                          +48);
 10486   005D64  C00E  F001         	movff	LcdDisplaytwo@Data,___lwdiv@dividend
 10487   005D68  C00F  F002         	movff	LcdDisplaytwo@Data+1,___lwdiv@dividend+1
 10488   005D6C  0E00               	movlw	0
 10489   005D6E  6E04               	movwf	(___lwdiv@divisor+1)^0,c
 10490   005D70  0E0A               	movlw	10
 10491   005D72  6E03               	movwf	___lwdiv@divisor^0,c
 10492   005D74  ECF3  F02E         	call	___lwdiv	;wreg free
 10493   005D78  5001               	movf	?___lwdiv^0,w,c
 10494   005D7A  0F30               	addlw	48
 10495   005D7C  0100               	movlb	0	; () banked
 10496   005D7E  6FF2               	movwf	_DataArray2& (0+255),b
 10497                           
 10498                           ;lcd.c: 153:     DataArray2[1] = (unsigned char) ((((Data))%10)+48);
 10499   005D80  C00E  F008         	movff	LcdDisplaytwo@Data,___lwmod@dividend
 10500   005D84  C00F  F009         	movff	LcdDisplaytwo@Data+1,___lwmod@dividend+1
 10501   005D88  0E00               	movlw	0
 10502   005D8A  6E0B               	movwf	(___lwmod@divisor+1)^0,c
 10503   005D8C  0E0A               	movlw	10
 10504   005D8E  6E0A               	movwf	___lwmod@divisor^0,c
 10505   005D90  EC5F  F02F         	call	___lwmod	;wreg free
 10506   005D94  5008               	movf	?___lwmod^0,w,c
 10507   005D96  0F30               	addlw	48
 10508   005D98  0100               	movlb	0	; () banked
 10509   005D9A  6FF3               	movwf	(_DataArray2+1)& (0+255),b
 10510   005D9C                     
 10511                           ; BSR set to: 0
 10512                           ;lcd.c: 154:     DataArray2[2] = 0;
 10513   005D9C  0E00               	movlw	0
 10514   005D9E  6FF4               	movwf	(_DataArray2+2)& (0+255),b
 10515   005DA0                     
 10516                           ; BSR set to: 0
 10517                           ;lcd.c: 155:     if( ValidateNumber(DataArray2))
 10518   005DA0  0EF2               	movlw	low _DataArray2
 10519   005DA2  6E01               	movwf	ValidateNumber@Data^0,c
 10520   005DA4  0E00               	movlw	high _DataArray2
 10521   005DA6  6E02               	movwf	(ValidateNumber@Data+1)^0,c
 10522   005DA8  EC91  F02F         	call	_ValidateNumber	;wreg free
 10523   005DAC  0900               	iorlw	0
 10524   005DAE  B4D8               	btfsc	status,2,c
 10525   005DB0  EFDC  F02E         	goto	u4241
 10526   005DB4  EFDE  F02E         	goto	u4240
 10527   005DB8                     u4241:
 10528   005DB8  EFE9  F02E         	goto	l4233
 10529   005DBC                     u4240:
 10530   005DBC                     
 10531                           ;lcd.c: 156:     {;lcd.c: 157:         LcdDisplayString(RowNum,Pos,DataArray2);
 10532   005DBC  C00D  F004         	movff	LcdDisplaytwo@Pos,LcdDisplayString@Pos
 10533   005DC0  0EF2               	movlw	low _DataArray2
 10534   005DC2  6E05               	movwf	LcdDisplayString@Data^0,c
 10535   005DC4  0E00               	movlw	high _DataArray2
 10536   005DC6  6E06               	movwf	(LcdDisplayString@Data+1)^0,c
 10537   005DC8  5010               	movf	LcdDisplaytwo@RowNum^0,w,c
 10538   005DCA  EC1F  F02E         	call	_LcdDisplayString
 10539   005DCE  EFF2  F02E         	goto	l122
 10540   005DD2                     l4233:
 10541                           
 10542                           ;lcd.c: 161:     {;lcd.c: 162:        LcdDisplayString(RowNum,Pos,"Hello");
 10543   005DD2  C00D  F004         	movff	LcdDisplaytwo@Pos,LcdDisplayString@Pos
 10544   005DD6  0EA5               	movlw	low STR_2
 10545   005DD8  6E05               	movwf	LcdDisplayString@Data^0,c
 10546   005DDA  0E10               	movlw	high STR_2
 10547   005DDC  6E06               	movwf	(LcdDisplayString@Data+1)^0,c
 10548   005DDE  5010               	movf	LcdDisplaytwo@RowNum^0,w,c
 10549   005DE0  EC1F  F02E         	call	_LcdDisplayString
 10550   005DE4                     l122:
 10551   005DE4  0012               	return		;funcret
 10552   005DE6                     __end_of_LcdDisplaytwo:
 10553                           	callstack 0
 10554                           
 10555 ;; *************** function _LcdDisplayNumber *****************
 10556 ;; Defined at:
 10557 ;;		line 131 in file "lcd.c"
 10558 ;; Parameters:    Size  Location     Type
 10559 ;;  RowNum          1    wreg     unsigned char 
 10560 ;;  Pos             1   12[COMRAM] unsigned char 
 10561 ;;  Data            2   13[COMRAM] unsigned short 
 10562 ;; Auto vars:     Size  Location     Type
 10563 ;;  RowNum          1   15[COMRAM] unsigned char 
 10564 ;; Return value:  Size  Location     Type
 10565 ;;                  1    wreg      unsigned char 
 10566 ;; Registers used:
 10567 ;;		wreg, fsr0l, fsr0h, fsr2l, fsr2h, status,2, status,0, tblptrl, tblptrh, tblptru, cstack
 10568 ;; Tracked objects:
 10569 ;;		On entry : 0/0
 10570 ;;		On exit  : 0/0
 10571 ;;		Unchanged: 0/0
 10572 ;; Data sizes:     COMRAM   BANK0   BANK1   BANK2   BANK3   BANK4   BANK5   BANK6   BANK7   BANK8   BANK9  BANK10  BANK1
      +1  BANK12  BANK13  BANK14  BANK15
 10573 ;;      Params:         3       0       0       0       0       0       0       0       0       0       0       0       
      +0       0       0       0       0
 10574 ;;      Locals:         1       0       0       0       0       0       0       0       0       0       0       0       
      +0       0       0       0       0
 10575 ;;      Temps:          0       0       0       0       0       0       0       0       0       0       0       0       
      +0       0       0       0       0
 10576 ;;      Totals:         4       0       0       0       0       0       0       0       0       0       0       0       
      +0       0       0       0       0
 10577 ;;Total ram usage:        4 bytes
 10578 ;; Hardware stack levels used: 1
 10579 ;; Hardware stack levels required when called: 2
 10580 ;; This function calls:
 10581 ;;		_LcdDisplayString
 10582 ;;		_ValidateNumber
 10583 ;;		___lwdiv
 10584 ;;		___lwmod
 10585 ;; This function is called by:
 10586 ;;		_Loom_settings
 10587 ;;		_Dothi_settings
 10588 ;; This function uses a non-reentrant model
 10589 ;;
 10590                           
 10591                           	psect	text23
 10592   005A02                     __ptext23:
 10593                           	callstack 0
 10594   005A02                     _LcdDisplayNumber:
 10595                           	callstack 27
 10596                           
 10597                           ;incstack = 0
 10598                           ;LcdDisplayNumber@RowNum stored from wreg
 10599   005A02  6E10               	movwf	LcdDisplayNumber@RowNum^0,c
 10600   005A04                     
 10601                           ;lcd.c: 131: unsigned char LcdDisplayNumber(unsigned char RowNum, unsigned char Pos, uns
      +                          igned short Data);lcd.c: 132: {;lcd.c: 133:     DataArray[0] = (unsigned char)(((Data)/1
      +                          000)+48);
 10602   005A04  C00E  F001         	movff	LcdDisplayNumber@Data,___lwdiv@dividend
 10603   005A08  C00F  F002         	movff	LcdDisplayNumber@Data+1,___lwdiv@dividend+1
 10604   005A0C  0E03               	movlw	3
 10605   005A0E  6E04               	movwf	(___lwdiv@divisor+1)^0,c
 10606   005A10  0EE8               	movlw	232
 10607   005A12  6E03               	movwf	___lwdiv@divisor^0,c
 10608   005A14  ECF3  F02E         	call	___lwdiv	;wreg free
 10609   005A18  5001               	movf	?___lwdiv^0,w,c
 10610   005A1A  0F30               	addlw	48
 10611   005A1C  0100               	movlb	0	; () banked
 10612   005A1E  6FED               	movwf	_DataArray& (0+255),b
 10613                           
 10614                           ;lcd.c: 134:     DataArray[1] = (unsigned char) ((((Data)/100)%10)+48);
 10615   005A20  0E00               	movlw	0
 10616   005A22  6E04               	movwf	(___lwdiv@divisor+1)^0,c
 10617   005A24  0E64               	movlw	100
 10618   005A26  6E03               	movwf	___lwdiv@divisor^0,c
 10619   005A28  C00E  F001         	movff	LcdDisplayNumber@Data,___lwdiv@dividend
 10620   005A2C  C00F  F002         	movff	LcdDisplayNumber@Data+1,___lwdiv@dividend+1
 10621   005A30  ECF3  F02E         	call	___lwdiv	;wreg free
 10622   005A34  C001  F008         	movff	?___lwdiv,___lwmod@dividend
 10623   005A38  C002  F009         	movff	?___lwdiv+1,___lwmod@dividend+1
 10624   005A3C  0E00               	movlw	0
 10625   005A3E  6E0B               	movwf	(___lwmod@divisor+1)^0,c
 10626   005A40  0E0A               	movlw	10
 10627   005A42  6E0A               	movwf	___lwmod@divisor^0,c
 10628   005A44  EC5F  F02F         	call	___lwmod	;wreg free
 10629   005A48  5008               	movf	?___lwmod^0,w,c
 10630   005A4A  0F30               	addlw	48
 10631   005A4C  0100               	movlb	0	; () banked
 10632   005A4E  6FEE               	movwf	(_DataArray+1)& (0+255),b
 10633                           
 10634                           ;lcd.c: 135:     DataArray[2] = (unsigned char) ((((Data)/10)%10)+48);
 10635   005A50  0E00               	movlw	0
 10636   005A52  6E04               	movwf	(___lwdiv@divisor+1)^0,c
 10637   005A54  0E0A               	movlw	10
 10638   005A56  6E03               	movwf	___lwdiv@divisor^0,c
 10639   005A58  C00E  F001         	movff	LcdDisplayNumber@Data,___lwdiv@dividend
 10640   005A5C  C00F  F002         	movff	LcdDisplayNumber@Data+1,___lwdiv@dividend+1
 10641   005A60  ECF3  F02E         	call	___lwdiv	;wreg free
 10642   005A64  C001  F008         	movff	?___lwdiv,___lwmod@dividend
 10643   005A68  C002  F009         	movff	?___lwdiv+1,___lwmod@dividend+1
 10644   005A6C  0E00               	movlw	0
 10645   005A6E  6E0B               	movwf	(___lwmod@divisor+1)^0,c
 10646   005A70  0E0A               	movlw	10
 10647   005A72  6E0A               	movwf	___lwmod@divisor^0,c
 10648   005A74  EC5F  F02F         	call	___lwmod	;wreg free
 10649   005A78  5008               	movf	?___lwmod^0,w,c
 10650   005A7A  0F30               	addlw	48
 10651   005A7C  0100               	movlb	0	; () banked
 10652   005A7E  6FEF               	movwf	(_DataArray+2)& (0+255),b
 10653                           
 10654                           ;lcd.c: 136:     DataArray[3] = (unsigned char)(((Data)%10)+48);
 10655   005A80  C00E  F008         	movff	LcdDisplayNumber@Data,___lwmod@dividend
 10656   005A84  C00F  F009         	movff	LcdDisplayNumber@Data+1,___lwmod@dividend+1
 10657   005A88  0E00               	movlw	0
 10658   005A8A  6E0B               	movwf	(___lwmod@divisor+1)^0,c
 10659   005A8C  0E0A               	movlw	10
 10660   005A8E  6E0A               	movwf	___lwmod@divisor^0,c
 10661   005A90  EC5F  F02F         	call	___lwmod	;wreg free
 10662   005A94  5008               	movf	?___lwmod^0,w,c
 10663   005A96  0F30               	addlw	48
 10664   005A98  0100               	movlb	0	; () banked
 10665   005A9A  6FF0               	movwf	(_DataArray+3)& (0+255),b
 10666   005A9C                     
 10667                           ; BSR set to: 0
 10668                           ;lcd.c: 137:     DataArray[4] = 0;
 10669   005A9C  0E00               	movlw	0
 10670   005A9E  6FF1               	movwf	(_DataArray+4)& (0+255),b
 10671   005AA0                     
 10672                           ; BSR set to: 0
 10673                           ;lcd.c: 138:     if( ValidateNumber(DataArray))
 10674   005AA0  0EED               	movlw	low _DataArray
 10675   005AA2  6E01               	movwf	ValidateNumber@Data^0,c
 10676   005AA4  0E00               	movlw	high _DataArray
 10677   005AA6  6E02               	movwf	(ValidateNumber@Data+1)^0,c
 10678   005AA8  EC91  F02F         	call	_ValidateNumber	;wreg free
 10679   005AAC  0900               	iorlw	0
 10680   005AAE  B4D8               	btfsc	status,2,c
 10681   005AB0  EF5C  F02D         	goto	u4231
 10682   005AB4  EF5E  F02D         	goto	u4230
 10683   005AB8                     u4231:
 10684   005AB8  EF69  F02D         	goto	l4217
 10685   005ABC                     u4230:
 10686   005ABC                     
 10687                           ;lcd.c: 139:     {;lcd.c: 140:         LcdDisplayString(RowNum,Pos,DataArray);
 10688   005ABC  C00D  F004         	movff	LcdDisplayNumber@Pos,LcdDisplayString@Pos
 10689   005AC0  0EED               	movlw	low _DataArray
 10690   005AC2  6E05               	movwf	LcdDisplayString@Data^0,c
 10691   005AC4  0E00               	movlw	high _DataArray
 10692   005AC6  6E06               	movwf	(LcdDisplayString@Data+1)^0,c
 10693   005AC8  5010               	movf	LcdDisplayNumber@RowNum^0,w,c
 10694   005ACA  EC1F  F02E         	call	_LcdDisplayString
 10695   005ACE  EF72  F02D         	goto	l117
 10696   005AD2                     l4217:
 10697                           
 10698                           ;lcd.c: 144:     {;lcd.c: 145:        LcdDisplayString(RowNum,Pos,"0000");
 10699   005AD2  C00D  F004         	movff	LcdDisplayNumber@Pos,LcdDisplayString@Pos
 10700   005AD6  0EB0               	movlw	low STR_1
 10701   005AD8  6E05               	movwf	LcdDisplayString@Data^0,c
 10702   005ADA  0E10               	movlw	high STR_1
 10703   005ADC  6E06               	movwf	(LcdDisplayString@Data+1)^0,c
 10704   005ADE  5010               	movf	LcdDisplayNumber@RowNum^0,w,c
 10705   005AE0  EC1F  F02E         	call	_LcdDisplayString
 10706   005AE4                     l117:
 10707   005AE4  0012               	return		;funcret
 10708   005AE6                     __end_of_LcdDisplayNumber:
 10709                           	callstack 0
 10710                           
 10711 ;; *************** function ___lwmod *****************
 10712 ;; Defined at:
 10713 ;;		line 7 in file "C:\Program Files\Microchip\xc8\v2.40\pic\sources\c99\common\lwmod.c"
 10714 ;; Parameters:    Size  Location     Type
 10715 ;;  dividend        2    7[COMRAM] unsigned int 
 10716 ;;  divisor         2    9[COMRAM] unsigned int 
 10717 ;; Auto vars:     Size  Location     Type
 10718 ;;  counter         1   11[COMRAM] unsigned char 
 10719 ;; Return value:  Size  Location     Type
 10720 ;;                  2    7[COMRAM] unsigned int 
 10721 ;; Registers used:
 10722 ;;		wreg, status,2, status,0
 10723 ;; Tracked objects:
 10724 ;;		On entry : 0/0
 10725 ;;		On exit  : 0/0
 10726 ;;		Unchanged: 0/0
 10727 ;; Data sizes:     COMRAM   BANK0   BANK1   BANK2   BANK3   BANK4   BANK5   BANK6   BANK7   BANK8   BANK9  BANK10  BANK1
      +1  BANK12  BANK13  BANK14  BANK15
 10728 ;;      Params:         4       0       0       0       0       0       0       0       0       0       0       0       
      +0       0       0       0       0
 10729 ;;      Locals:         1       0       0       0       0       0       0       0       0       0       0       0       
      +0       0       0       0       0
 10730 ;;      Temps:          0       0       0       0       0       0       0       0       0       0       0       0       
      +0       0       0       0       0
 10731 ;;      Totals:         5       0       0       0       0       0       0       0       0       0       0       0       
      +0       0       0       0       0
 10732 ;;Total ram usage:        5 bytes
 10733 ;; Hardware stack levels used: 1
 10734 ;; This function calls:
 10735 ;;		Nothing
 10736 ;; This function is called by:
 10737 ;;		_LcdDisplayNumber
 10738 ;;		_LcdDisplaytwo
 10739 ;; This function uses a non-reentrant model
 10740 ;;
 10741                           
 10742                           	psect	text24
 10743   005EBE                     __ptext24:
 10744                           	callstack 0
 10745   005EBE                     ___lwmod:
 10746                           	callstack 28
 10747   005EBE  500A               	movf	___lwmod@divisor^0,w,c
 10748   005EC0  100B               	iorwf	(___lwmod@divisor+1)^0,w,c
 10749   005EC2  B4D8               	btfsc	status,2,c
 10750   005EC4  EF66  F02F         	goto	u4201
 10751   005EC8  EF68  F02F         	goto	u4200
 10752   005ECC                     u4201:
 10753   005ECC  EF8C  F02F         	goto	l834
 10754   005ED0                     u4200:
 10755   005ED0  0E01               	movlw	1
 10756   005ED2  6E0C               	movwf	___lwmod@counter^0,c
 10757   005ED4  EF70  F02F         	goto	l4195
 10758   005ED8                     l4193:
 10759   005ED8  90D8               	bcf	status,0,c
 10760   005EDA  360A               	rlcf	___lwmod@divisor^0,f,c
 10761   005EDC  360B               	rlcf	(___lwmod@divisor+1)^0,f,c
 10762   005EDE  2A0C               	incf	___lwmod@counter^0,f,c
 10763   005EE0                     l4195:
 10764   005EE0  AE0B               	btfss	(___lwmod@divisor+1)^0,7,c
 10765   005EE2  EF75  F02F         	goto	u4211
 10766   005EE6  EF77  F02F         	goto	u4210
 10767   005EEA                     u4211:
 10768   005EEA  EF6C  F02F         	goto	l4193
 10769   005EEE                     u4210:
 10770   005EEE                     l4197:
 10771   005EEE  500A               	movf	___lwmod@divisor^0,w,c
 10772   005EF0  5C08               	subwf	___lwmod@dividend^0,w,c
 10773   005EF2  500B               	movf	(___lwmod@divisor+1)^0,w,c
 10774   005EF4  5809               	subwfb	(___lwmod@dividend+1)^0,w,c
 10775   005EF6  A0D8               	btfss	status,0,c
 10776   005EF8  EF80  F02F         	goto	u4221
 10777   005EFC  EF82  F02F         	goto	u4220
 10778   005F00                     u4221:
 10779   005F00  EF86  F02F         	goto	l4201
 10780   005F04                     u4220:
 10781   005F04  500A               	movf	___lwmod@divisor^0,w,c
 10782   005F06  5E08               	subwf	___lwmod@dividend^0,f,c
 10783   005F08  500B               	movf	(___lwmod@divisor+1)^0,w,c
 10784   005F0A  5A09               	subwfb	(___lwmod@dividend+1)^0,f,c
 10785   005F0C                     l4201:
 10786   005F0C  90D8               	bcf	status,0,c
 10787   005F0E  320B               	rrcf	(___lwmod@divisor+1)^0,f,c
 10788   005F10  320A               	rrcf	___lwmod@divisor^0,f,c
 10789   005F12  2E0C               	decfsz	___lwmod@counter^0,f,c
 10790   005F14  EF77  F02F         	goto	l4197
 10791   005F18                     l834:
 10792   005F18  C008  F008         	movff	___lwmod@dividend,?___lwmod
 10793   005F1C  C009  F009         	movff	___lwmod@dividend+1,?___lwmod+1
 10794   005F20  0012               	return		;funcret
 10795   005F22                     __end_of___lwmod:
 10796                           	callstack 0
 10797                           
 10798 ;; *************** function ___lwdiv *****************
 10799 ;; Defined at:
 10800 ;;		line 7 in file "C:\Program Files\Microchip\xc8\v2.40\pic\sources\c99\common\lwdiv.c"
 10801 ;; Parameters:    Size  Location     Type
 10802 ;;  dividend        2    0[COMRAM] unsigned int 
 10803 ;;  divisor         2    2[COMRAM] unsigned int 
 10804 ;; Auto vars:     Size  Location     Type
 10805 ;;  quotient        2    4[COMRAM] unsigned int 
 10806 ;;  counter         1    6[COMRAM] unsigned char 
 10807 ;; Return value:  Size  Location     Type
 10808 ;;                  2    0[COMRAM] unsigned int 
 10809 ;; Registers used:
 10810 ;;		wreg, status,2, status,0
 10811 ;; Tracked objects:
 10812 ;;		On entry : 0/0
 10813 ;;		On exit  : 0/0
 10814 ;;		Unchanged: 0/0
 10815 ;; Data sizes:     COMRAM   BANK0   BANK1   BANK2   BANK3   BANK4   BANK5   BANK6   BANK7   BANK8   BANK9  BANK10  BANK1
      +1  BANK12  BANK13  BANK14  BANK15
 10816 ;;      Params:         4       0       0       0       0       0       0       0       0       0       0       0       
      +0       0       0       0       0
 10817 ;;      Locals:         3       0       0       0       0       0       0       0       0       0       0       0       
      +0       0       0       0       0
 10818 ;;      Temps:          0       0       0       0       0       0       0       0       0       0       0       0       
      +0       0       0       0       0
 10819 ;;      Totals:         7       0       0       0       0       0       0       0       0       0       0       0       
      +0       0       0       0       0
 10820 ;;Total ram usage:        7 bytes
 10821 ;; Hardware stack levels used: 1
 10822 ;; This function calls:
 10823 ;;		Nothing
 10824 ;; This function is called by:
 10825 ;;		_LcdDisplayNumber
 10826 ;;		_LcdDisplaytwo
 10827 ;; This function uses a non-reentrant model
 10828 ;;
 10829                           
 10830                           	psect	text25
 10831   005DE6                     __ptext25:
 10832                           	callstack 0
 10833   005DE6                     ___lwdiv:
 10834                           	callstack 28
 10835   005DE6  0E00               	movlw	0
 10836   005DE8  6E06               	movwf	(___lwdiv@quotient+1)^0,c
 10837   005DEA  0E00               	movlw	0
 10838   005DEC  6E05               	movwf	___lwdiv@quotient^0,c
 10839   005DEE  5003               	movf	___lwdiv@divisor^0,w,c
 10840   005DF0  1004               	iorwf	(___lwdiv@divisor+1)^0,w,c
 10841   005DF2  B4D8               	btfsc	status,2,c
 10842   005DF4  EFFE  F02E         	goto	u4171
 10843   005DF8  EF00  F02F         	goto	u4170
 10844   005DFC                     u4171:
 10845   005DFC  EF28  F02F         	goto	l824
 10846   005E00                     u4170:
 10847   005E00  0E01               	movlw	1
 10848   005E02  6E07               	movwf	___lwdiv@counter^0,c
 10849   005E04  EF08  F02F         	goto	l4175
 10850   005E08                     l4173:
 10851   005E08  90D8               	bcf	status,0,c
 10852   005E0A  3603               	rlcf	___lwdiv@divisor^0,f,c
 10853   005E0C  3604               	rlcf	(___lwdiv@divisor+1)^0,f,c
 10854   005E0E  2A07               	incf	___lwdiv@counter^0,f,c
 10855   005E10                     l4175:
 10856   005E10  AE04               	btfss	(___lwdiv@divisor+1)^0,7,c
 10857   005E12  EF0D  F02F         	goto	u4181
 10858   005E16  EF0F  F02F         	goto	u4180
 10859   005E1A                     u4181:
 10860   005E1A  EF04  F02F         	goto	l4173
 10861   005E1E                     u4180:
 10862   005E1E                     l4177:
 10863   005E1E  90D8               	bcf	status,0,c
 10864   005E20  3605               	rlcf	___lwdiv@quotient^0,f,c
 10865   005E22  3606               	rlcf	(___lwdiv@quotient+1)^0,f,c
 10866   005E24  5003               	movf	___lwdiv@divisor^0,w,c
 10867   005E26  5C01               	subwf	___lwdiv@dividend^0,w,c
 10868   005E28  5004               	movf	(___lwdiv@divisor+1)^0,w,c
 10869   005E2A  5802               	subwfb	(___lwdiv@dividend+1)^0,w,c
 10870   005E2C  A0D8               	btfss	status,0,c
 10871   005E2E  EF1B  F02F         	goto	u4191
 10872   005E32  EF1D  F02F         	goto	u4190
 10873   005E36                     u4191:
 10874   005E36  EF22  F02F         	goto	l4185
 10875   005E3A                     u4190:
 10876   005E3A  5003               	movf	___lwdiv@divisor^0,w,c
 10877   005E3C  5E01               	subwf	___lwdiv@dividend^0,f,c
 10878   005E3E  5004               	movf	(___lwdiv@divisor+1)^0,w,c
 10879   005E40  5A02               	subwfb	(___lwdiv@dividend+1)^0,f,c
 10880   005E42  8005               	bsf	___lwdiv@quotient^0,0,c
 10881   005E44                     l4185:
 10882   005E44  90D8               	bcf	status,0,c
 10883   005E46  3204               	rrcf	(___lwdiv@divisor+1)^0,f,c
 10884   005E48  3203               	rrcf	___lwdiv@divisor^0,f,c
 10885   005E4A  2E07               	decfsz	___lwdiv@counter^0,f,c
 10886   005E4C  EF0F  F02F         	goto	l4177
 10887   005E50                     l824:
 10888   005E50  C005  F001         	movff	___lwdiv@quotient,?___lwdiv
 10889   005E54  C006  F002         	movff	___lwdiv@quotient+1,?___lwdiv+1
 10890   005E58  0012               	return		;funcret
 10891   005E5A                     __end_of___lwdiv:
 10892                           	callstack 0
 10893                           
 10894 ;; *************** function _ValidateNumber *****************
 10895 ;; Defined at:
 10896 ;;		line 106 in file "lcd.c"
 10897 ;; Parameters:    Size  Location     Type
 10898 ;;  Data            2    0[COMRAM] PTR unsigned char 
 10899 ;;		 -> RAM(3895), DataArray2(3), DataArray(5), 
 10900 ;; Auto vars:     Size  Location     Type
 10901 ;;		None
 10902 ;; Return value:  Size  Location     Type
 10903 ;;                  1    wreg      unsigned char 
 10904 ;; Registers used:
 10905 ;;		wreg, fsr2l, fsr2h, status,2, status,0
 10906 ;; Tracked objects:
 10907 ;;		On entry : 0/0
 10908 ;;		On exit  : 0/0
 10909 ;;		Unchanged: 0/0
 10910 ;; Data sizes:     COMRAM   BANK0   BANK1   BANK2   BANK3   BANK4   BANK5   BANK6   BANK7   BANK8   BANK9  BANK10  BANK1
      +1  BANK12  BANK13  BANK14  BANK15
 10911 ;;      Params:         2       0       0       0       0       0       0       0       0       0       0       0       
      +0       0       0       0       0
 10912 ;;      Locals:         0       0       0       0       0       0       0       0       0       0       0       0       
      +0       0       0       0       0
 10913 ;;      Temps:          1       0       0       0       0       0       0       0       0       0       0       0       
      +0       0       0       0       0
 10914 ;;      Totals:         3       0       0       0       0       0       0       0       0       0       0       0       
      +0       0       0       0       0
 10915 ;;Total ram usage:        3 bytes
 10916 ;; Hardware stack levels used: 1
 10917 ;; This function calls:
 10918 ;;		Nothing
 10919 ;; This function is called by:
 10920 ;;		_LcdDisplayNumber
 10921 ;;		_LcdDisplaytwo
 10922 ;;		_LcdDisplayone
 10923 ;; This function uses a non-reentrant model
 10924 ;;
 10925                           
 10926                           	psect	text26
 10927   005F22                     __ptext26:
 10928                           	callstack 0
 10929   005F22                     _ValidateNumber:
 10930                           	callstack 28
 10931   005F22                     
 10932                           ;lcd.c: 106: unsigned char ValidateNumber( char *Data );lcd.c: 107: {;lcd.c: 108:     wh
      +                          ile( *Data != 0)
 10933   005F22  EFB0  F02F         	goto	l3655
 10934   005F26                     l3645:
 10935                           
 10936                           ;lcd.c: 109:     {;lcd.c: 110:         if( (*Data < '0') || (*Data>'9') )
 10937   005F26  C001  FFD9         	movff	ValidateNumber@Data,fsr2l
 10938   005F2A  C002  FFDA         	movff	ValidateNumber@Data+1,fsr2h
 10939   005F2E  0E2F               	movlw	47
 10940   005F30  64DF               	cpfsgt	indf2,c
 10941   005F32  EF9D  F02F         	goto	u3481
 10942   005F36  EF9F  F02F         	goto	u3480
 10943   005F3A                     u3481:
 10944   005F3A  EFAB  F02F         	goto	l3649
 10945   005F3E                     u3480:
 10946   005F3E  C001  FFD9         	movff	ValidateNumber@Data,fsr2l
 10947   005F42  C002  FFDA         	movff	ValidateNumber@Data+1,fsr2h
 10948   005F46  0E39               	movlw	57
 10949   005F48  64DF               	cpfsgt	indf2,c
 10950   005F4A  EFA9  F02F         	goto	u3491
 10951   005F4E  EFAB  F02F         	goto	u3490
 10952   005F52                     u3491:
 10953   005F52  EFAE  F02F         	goto	l3653
 10954   005F56                     u3490:
 10955   005F56                     l3649:
 10956                           
 10957                           ;lcd.c: 111:         {;lcd.c: 112:             return 0;
 10958   005F56  0E00               	movlw	0
 10959   005F58  EFBD  F02F         	goto	l107
 10960   005F5C                     l3653:
 10961                           
 10962                           ;lcd.c: 114:         Data++;
 10963   005F5C  4A01               	infsnz	ValidateNumber@Data^0,f,c
 10964   005F5E  2A02               	incf	(ValidateNumber@Data+1)^0,f,c
 10965   005F60                     l3655:
 10966                           
 10967                           ;lcd.c: 108:     while( *Data != 0)
 10968   005F60  C001  FFD9         	movff	ValidateNumber@Data,fsr2l
 10969   005F64  C002  FFDA         	movff	ValidateNumber@Data+1,fsr2h
 10970   005F68  50DF               	movf	indf2,w,c
 10971   005F6A  A4D8               	btfss	status,2,c
 10972   005F6C  EFBA  F02F         	goto	u3501
 10973   005F70  EFBC  F02F         	goto	u3500
 10974   005F74                     u3501:
 10975   005F74  EF93  F02F         	goto	l3645
 10976   005F78                     u3500:
 10977   005F78                     
 10978                           ;lcd.c: 116:     return 1;
 10979   005F78  0E01               	movlw	1
 10980   005F7A                     l107:
 10981   005F7A  0012               	return		;funcret
 10982   005F7C                     __end_of_ValidateNumber:
 10983                           	callstack 0
 10984                           
 10985 ;; *************** function _LcdDisplayString *****************
 10986 ;; Defined at:
 10987 ;;		line 74 in file "lcd.c"
 10988 ;; Parameters:    Size  Location     Type
 10989 ;;  RowNum          1    wreg     unsigned char 
 10990 ;;  Pos             1    3[COMRAM] unsigned char 
 10991 ;;  Data            2    4[COMRAM] PTR unsigned char 
 10992 ;;		 -> NULL(0), STR_15(15), STR_14(10), STR_13(2), 
 10993 ;;		 -> STR_12(10), STR_11(2), STR_10(15), STR_9(3), 
 10994 ;;		 -> STR_8(3), STR_7(3), arr(64), STR_6(5), 
 10995 ;;		 -> STR_5(15), STR_4(15), STR_3(6), RAM(3895), 
 10996 ;;		 -> STR_2(6), DataArray2(3), STR_1(5), DataArray(5), 
 10997 ;; Auto vars:     Size  Location     Type
 10998 ;;  RowNum          1    6[COMRAM] unsigned char 
 10999 ;; Return value:  Size  Location     Type
 11000 ;;                  1    wreg      void 
 11001 ;; Registers used:
 11002 ;;		wreg, fsr0l, fsr0h, status,2, status,0, tblptrl, tblptrh, tblptru, cstack
 11003 ;; Tracked objects:
 11004 ;;		On entry : 0/0
 11005 ;;		On exit  : 0/0
 11006 ;;		Unchanged: 0/0
 11007 ;; Data sizes:     COMRAM   BANK0   BANK1   BANK2   BANK3   BANK4   BANK5   BANK6   BANK7   BANK8   BANK9  BANK10  BANK1
      +1  BANK12  BANK13  BANK14  BANK15
 11008 ;;      Params:         3       0       0       0       0       0       0       0       0       0       0       0       
      +0       0       0       0       0
 11009 ;;      Locals:         1       0       0       0       0       0       0       0       0       0       0       0       
      +0       0       0       0       0
 11010 ;;      Temps:          0       0       0       0       0       0       0       0       0       0       0       0       
      +0       0       0       0       0
 11011 ;;      Totals:         4       0       0       0       0       0       0       0       0       0       0       0       
      +0       0       0       0       0
 11012 ;;Total ram usage:        4 bytes
 11013 ;; Hardware stack levels used: 1
 11014 ;; Hardware stack levels required when called: 1
 11015 ;; This function calls:
 11016 ;;		_SendLcdCommand
 11017 ;;		_SendLcdData
 11018 ;; This function is called by:
 11019 ;;		_LcdDisplayNumber
 11020 ;;		_LcdDisplaytwo
 11021 ;;		_main
 11022 ;;		_main_menu
 11023 ;;		_Loom_settings
 11024 ;;		_Dothi_settings
 11025 ;;		_LcdDisplayone
 11026 ;; This function uses a non-reentrant model
 11027 ;;
 11028                           
 11029                           	psect	text27
 11030   005C3E                     __ptext27:
 11031                           	callstack 0
 11032   005C3E                     _LcdDisplayString:
 11033                           	callstack 28
 11034                           
 11035                           ;incstack = 0
 11036                           ;LcdDisplayString@RowNum stored from wreg
 11037   005C3E  6E07               	movwf	LcdDisplayString@RowNum^0,c
 11038   005C40                     
 11039                           ;lcd.c: 74: void LcdDisplayString(unsigned char RowNum, unsigned char Pos, char * Data);
      +                          lcd.c: 75: {;lcd.c: 76:     if( RowNum == 1)
 11040   005C40  0407               	decf	LcdDisplayString@RowNum^0,w,c
 11041   005C42  A4D8               	btfss	status,2,c
 11042   005C44  EF26  F02E         	goto	u3411
 11043   005C48  EF28  F02E         	goto	u3410
 11044   005C4C                     u3411:
 11045   005C4C  EF2E  F02E         	goto	l3625
 11046   005C50                     u3410:
 11047   005C50                     
 11048                           ;lcd.c: 77:     {;lcd.c: 78:         SendLcdCommand(0X80 | Pos);
 11049   005C50  5004               	movf	LcdDisplayString@Pos^0,w,c
 11050   005C52  0980               	iorlw	128
 11051   005C54  ECE9  F02F         	call	_SendLcdCommand
 11052                           
 11053                           ;lcd.c: 79:     }
 11054   005C58  EF52  F02E         	goto	l3633
 11055   005C5C                     l3625:
 11056   005C5C  0E02               	movlw	2
 11057   005C5E  1807               	xorwf	LcdDisplayString@RowNum^0,w,c
 11058   005C60  A4D8               	btfss	status,2,c
 11059   005C62  EF35  F02E         	goto	u3421
 11060   005C66  EF37  F02E         	goto	u3420
 11061   005C6A                     u3421:
 11062   005C6A  EF52  F02E         	goto	l3633
 11063   005C6E                     u3420:
 11064   005C6E                     
 11065                           ;lcd.c: 81:     {;lcd.c: 82:         SendLcdCommand(0XC0 | Pos);
 11066   005C6E  5004               	movf	LcdDisplayString@Pos^0,w,c
 11067   005C70  09C0               	iorlw	192
 11068   005C72  ECE9  F02F         	call	_SendLcdCommand
 11069   005C76  EF52  F02E         	goto	l3633
 11070   005C7A                     l3629:
 11071                           
 11072                           ;lcd.c: 86:     {;lcd.c: 87:         SendLcdData(*Data);
 11073   005C7A  C005  FFF6         	movff	LcdDisplayString@Data,tblptrl
 11074   005C7E  C006  FFF7         	movff	LcdDisplayString@Data+1,tblptrh
 11075   005C82  0E00               	movlw	low (__smallconst shr (0+16))
 11076   005C84  6EF8               	movwf	tblptru,c
 11077   005C86  0E0F               	movlw	(high __ramtop+-1)
 11078   005C88  64F7               	cpfsgt	tblptrh,c
 11079   005C8A  D003               	bra	u3437
 11080   005C8C  0008               	tblrd		*
 11081   005C8E  50F5               	movf	tablat,w,c
 11082   005C90  D005               	bra	u3430
 11083   005C92                     u3437:
 11084   005C92  CFF6 FFE9          	movff	tblptrl,fsr0l
 11085   005C96  CFF7 FFEA          	movff	tblptrh,fsr0h
 11086   005C9A  50EF               	movf	indf0,w,c
 11087   005C9C                     u3430:
 11088   005C9C  ECBE  F02F         	call	_SendLcdData
 11089   005CA0                     
 11090                           ;lcd.c: 88:         Data++;
 11091   005CA0  4A05               	infsnz	LcdDisplayString@Data^0,f,c
 11092   005CA2  2A06               	incf	(LcdDisplayString@Data+1)^0,f,c
 11093   005CA4                     l3633:
 11094                           
 11095                           ;lcd.c: 85:     while( *Data != '\0')
 11096   005CA4  C005  FFF6         	movff	LcdDisplayString@Data,tblptrl
 11097   005CA8  C006  FFF7         	movff	LcdDisplayString@Data+1,tblptrh
 11098   005CAC  0E00               	movlw	low (__smallconst shr (0+16))
 11099   005CAE  6EF8               	movwf	tblptru,c
 11100   005CB0  0E0F               	movlw	(high __ramtop+-1)
 11101   005CB2  64F7               	cpfsgt	tblptrh,c
 11102   005CB4  D003               	bra	u3447
 11103   005CB6  0008               	tblrd		*
 11104   005CB8  50F5               	movf	tablat,w,c
 11105   005CBA  D005               	bra	u3440
 11106   005CBC                     u3447:
 11107   005CBC  CFF6 FFE9          	movff	tblptrl,fsr0l
 11108   005CC0  CFF7 FFEA          	movff	tblptrh,fsr0h
 11109   005CC4  50EF               	movf	indf0,w,c
 11110   005CC6                     u3440:
 11111   005CC6  0900               	iorlw	0
 11112   005CC8  A4D8               	btfss	status,2,c
 11113   005CCA  EF69  F02E         	goto	u3451
 11114   005CCE  EF6B  F02E         	goto	u3450
 11115   005CD2                     u3451:
 11116   005CD2  EF3D  F02E         	goto	l3629
 11117   005CD6                     u3450:
 11118   005CD6  0012               	return		;funcret
 11119   005CD8                     __end_of_LcdDisplayString:
 11120                           	callstack 0
 11121                           
 11122 ;; *************** function _SendLcdData *****************
 11123 ;; Defined at:
 11124 ;;		line 29 in file "lcd.c"
 11125 ;; Parameters:    Size  Location     Type
 11126 ;;  Data            1    wreg     unsigned char 
 11127 ;; Auto vars:     Size  Location     Type
 11128 ;;  Data            1    2[COMRAM] unsigned char 
 11129 ;; Return value:  Size  Location     Type
 11130 ;;                  1    wreg      void 
 11131 ;; Registers used:
 11132 ;;		wreg, status,2, status,0
 11133 ;; Tracked objects:
 11134 ;;		On entry : 0/0
 11135 ;;		On exit  : 0/0
 11136 ;;		Unchanged: 0/0
 11137 ;; Data sizes:     COMRAM   BANK0   BANK1   BANK2   BANK3   BANK4   BANK5   BANK6   BANK7   BANK8   BANK9  BANK10  BANK1
      +1  BANK12  BANK13  BANK14  BANK15
 11138 ;;      Params:         0       0       0       0       0       0       0       0       0       0       0       0       
      +0       0       0       0       0
 11139 ;;      Locals:         1       0       0       0       0       0       0       0       0       0       0       0       
      +0       0       0       0       0
 11140 ;;      Temps:          2       0       0       0       0       0       0       0       0       0       0       0       
      +0       0       0       0       0
 11141 ;;      Totals:         3       0       0       0       0       0       0       0       0       0       0       0       
      +0       0       0       0       0
 11142 ;;Total ram usage:        3 bytes
 11143 ;; Hardware stack levels used: 1
 11144 ;; This function calls:
 11145 ;;		Nothing
 11146 ;; This function is called by:
 11147 ;;		_LcdDisplayString
 11148 ;;		_LcdDisplayChar
 11149 ;; This function uses a non-reentrant model
 11150 ;;
 11151                           
 11152                           	psect	text28
 11153   005F7C                     __ptext28:
 11154                           	callstack 0
 11155   005F7C                     _SendLcdData:
 11156                           	callstack 28
 11157                           
 11158                           ;incstack = 0
 11159                           ;SendLcdData@Data stored from wreg
 11160   005F7C  6E03               	movwf	SendLcdData@Data^0,c
 11161   005F7E                     
 11162                           ;lcd.c: 29: static void SendLcdData( unsigned char Data);lcd.c: 30: {;lcd.c: 31:     LAT
      +                          D |= (1<<2);
 11163   005F7E  848C               	bsf	140,2,c	;volatile
 11164   005F80                     
 11165                           ;lcd.c: 32:     LATD = (Data & 0XF0) |(LATD &0x0F) ;
 11166   005F80  CF8C F001          	movff	3980,??_SendLcdData	;volatile
 11167   005F84  0E0F               	movlw	15
 11168   005F86  1601               	andwf	??_SendLcdData^0,f,c
 11169   005F88  5003               	movf	SendLcdData@Data^0,w,c
 11170   005F8A  0BF0               	andlw	240
 11171   005F8C  1001               	iorwf	??_SendLcdData^0,w,c
 11172   005F8E  6E8C               	movwf	140,c	;volatile
 11173   005F90                     
 11174                           ;lcd.c: 34:     LATD |= (1<<3);
 11175   005F90  868C               	bsf	140,3,c	;volatile
 11176   005F92                     
 11177                           ;lcd.c: 35:     _delay((unsigned long)((5)*(20000000/4000.0)));
 11178   005F92  0E21               	movlw	33
 11179   005F94  6E01               	movwf	??_SendLcdData^0,c
 11180   005F96  0E76               	movlw	118
 11181   005F98                     u4647:
 11182   005F98  2EE8               	decfsz	wreg,f,c
 11183   005F9A  D7FE               	bra	u4647
 11184   005F9C  2E01               	decfsz	??_SendLcdData^0,f,c
 11185   005F9E  D7FC               	bra	u4647
 11186   005FA0  D000               	nop2	
 11187                           
 11188                           ;lcd.c: 36:     LATD &= ~(1<<3);
 11189   005FA2  968C               	bcf	140,3,c	;volatile
 11190   005FA4                     
 11191                           ;lcd.c: 38:     LATD = (unsigned char)((Data & 0X0F) << 4) |(LATD &0x0F);
 11192   005FA4  CF8C F001          	movff	3980,??_SendLcdData	;volatile
 11193   005FA8  0E0F               	movlw	15
 11194   005FAA  1601               	andwf	??_SendLcdData^0,f,c
 11195   005FAC  C003  F002         	movff	SendLcdData@Data,??_SendLcdData+1
 11196   005FB0  0E0F               	movlw	15
 11197   005FB2  1602               	andwf	(??_SendLcdData+1)^0,f,c
 11198   005FB4  3802               	swapf	(??_SendLcdData+1)^0,w,c
 11199   005FB6  0BF0               	andlw	240
 11200   005FB8  1001               	iorwf	??_SendLcdData^0,w,c
 11201   005FBA  6E8C               	movwf	140,c	;volatile
 11202   005FBC                     
 11203                           ;lcd.c: 40:     LATD |= (1<<3);
 11204   005FBC  868C               	bsf	140,3,c	;volatile
 11205   005FBE                     
 11206                           ;lcd.c: 41:     _delay((unsigned long)((5)*(20000000/4000.0)));
 11207   005FBE  0E21               	movlw	33
 11208   005FC0  6E01               	movwf	??_SendLcdData^0,c
 11209   005FC2  0E76               	movlw	118
 11210   005FC4                     u4657:
 11211   005FC4  2EE8               	decfsz	wreg,f,c
 11212   005FC6  D7FE               	bra	u4657
 11213   005FC8  2E01               	decfsz	??_SendLcdData^0,f,c
 11214   005FCA  D7FC               	bra	u4657
 11215   005FCC  D000               	nop2	
 11216                           
 11217                           ;lcd.c: 42:     LATD &= ~(1<<3);
 11218   005FCE  968C               	bcf	140,3,c	;volatile
 11219   005FD0  0012               	return		;funcret
 11220   005FD2                     __end_of_SendLcdData:
 11221                           	callstack 0
 11222                           
 11223 ;; *************** function _LcdClearDisplay *****************
 11224 ;; Defined at:
 11225 ;;		line 182 in file "lcd.c"
 11226 ;; Parameters:    Size  Location     Type
 11227 ;;		None
 11228 ;; Auto vars:     Size  Location     Type
 11229 ;;		None
 11230 ;; Return value:  Size  Location     Type
 11231 ;;                  1    wreg      void 
 11232 ;; Registers used:
 11233 ;;		wreg, status,2, status,0, cstack
 11234 ;; Tracked objects:
 11235 ;;		On entry : 0/0
 11236 ;;		On exit  : 0/0
 11237 ;;		Unchanged: 0/0
 11238 ;; Data sizes:     COMRAM   BANK0   BANK1   BANK2   BANK3   BANK4   BANK5   BANK6   BANK7   BANK8   BANK9  BANK10  BANK1
      +1  BANK12  BANK13  BANK14  BANK15
 11239 ;;      Params:         0       0       0       0       0       0       0       0       0       0       0       0       
      +0       0       0       0       0
 11240 ;;      Locals:         0       0       0       0       0       0       0       0       0       0       0       0       
      +0       0       0       0       0
 11241 ;;      Temps:          0       0       0       0       0       0       0       0       0       0       0       0       
      +0       0       0       0       0
 11242 ;;      Totals:         0       0       0       0       0       0       0       0       0       0       0       0       
      +0       0       0       0       0
 11243 ;;Total ram usage:        0 bytes
 11244 ;; Hardware stack levels used: 1
 11245 ;; Hardware stack levels required when called: 1
 11246 ;; This function calls:
 11247 ;;		_SendLcdCommand
 11248 ;; This function is called by:
 11249 ;;		_main
 11250 ;;		_main_menu
 11251 ;;		_Loom_settings
 11252 ;;		_Dothi_settings
 11253 ;;		_Reset_settings
 11254 ;; This function uses a non-reentrant model
 11255 ;;
 11256                           
 11257                           	psect	text29
 11258   0061C8                     __ptext29:
 11259                           	callstack 0
 11260   0061C8                     _LcdClearDisplay:
 11261                           	callstack 28
 11262   0061C8                     
 11263                           ;lcd.c: 184:     SendLcdCommand( 0X01);
 11264   0061C8  0E01               	movlw	1
 11265   0061CA  ECE9  F02F         	call	_SendLcdCommand
 11266   0061CE  0012               	return		;funcret
 11267   0061D0                     __end_of_LcdClearDisplay:
 11268                           	callstack 0
 11269                           
 11270 ;; *************** function _SendLcdCommand *****************
 11271 ;; Defined at:
 11272 ;;		line 13 in file "lcd.c"
 11273 ;; Parameters:    Size  Location     Type
 11274 ;;  Command         1    wreg     unsigned char 
 11275 ;; Auto vars:     Size  Location     Type
 11276 ;;  Command         1    2[COMRAM] unsigned char 
 11277 ;; Return value:  Size  Location     Type
 11278 ;;                  1    wreg      void 
 11279 ;; Registers used:
 11280 ;;		wreg, status,2, status,0
 11281 ;; Tracked objects:
 11282 ;;		On entry : 0/0
 11283 ;;		On exit  : 0/0
 11284 ;;		Unchanged: 0/0
 11285 ;; Data sizes:     COMRAM   BANK0   BANK1   BANK2   BANK3   BANK4   BANK5   BANK6   BANK7   BANK8   BANK9  BANK10  BANK1
      +1  BANK12  BANK13  BANK14  BANK15
 11286 ;;      Params:         0       0       0       0       0       0       0       0       0       0       0       0       
      +0       0       0       0       0
 11287 ;;      Locals:         1       0       0       0       0       0       0       0       0       0       0       0       
      +0       0       0       0       0
 11288 ;;      Temps:          2       0       0       0       0       0       0       0       0       0       0       0       
      +0       0       0       0       0
 11289 ;;      Totals:         3       0       0       0       0       0       0       0       0       0       0       0       
      +0       0       0       0       0
 11290 ;;Total ram usage:        3 bytes
 11291 ;; Hardware stack levels used: 1
 11292 ;; This function calls:
 11293 ;;		Nothing
 11294 ;; This function is called by:
 11295 ;;		_LcdInit
 11296 ;;		_LcdDisplayString
 11297 ;;		_LcdDisplayChar
 11298 ;;		_LcdClearDisplay
 11299 ;;		_LcdDisplayOnCursorOn
 11300 ;;		_LcdRefresh
 11301 ;;		_LcdDisplayOnCursorOff
 11302 ;;		_LcdDisplayOffCursorOff
 11303 ;;		_LcdDisplayShiftCursorRight
 11304 ;;		_LcdSetPos
 11305 ;; This function uses a non-reentrant model
 11306 ;;
 11307                           
 11308                           	psect	text30
 11309   005FD2                     __ptext30:
 11310                           	callstack 0
 11311   005FD2                     _SendLcdCommand:
 11312                           	callstack 28
 11313                           
 11314                           ;incstack = 0
 11315                           ;SendLcdCommand@Command stored from wreg
 11316   005FD2  6E03               	movwf	SendLcdCommand@Command^0,c
 11317   005FD4                     
 11318                           ;lcd.c: 13: static void SendLcdCommand( unsigned char Command);lcd.c: 14: {;lcd.c: 15:  
      +                             LATD &= ~(1<<2);
 11319   005FD4  948C               	bcf	140,2,c	;volatile
 11320   005FD6                     
 11321                           ;lcd.c: 16:     LATD = (Command & 0XF0)|(LATD &0x0F) ;
 11322   005FD6  CF8C F001          	movff	3980,??_SendLcdCommand	;volatile
 11323   005FDA  0E0F               	movlw	15
 11324   005FDC  1601               	andwf	??_SendLcdCommand^0,f,c
 11325   005FDE  5003               	movf	SendLcdCommand@Command^0,w,c
 11326   005FE0  0BF0               	andlw	240
 11327   005FE2  1001               	iorwf	??_SendLcdCommand^0,w,c
 11328   005FE4  6E8C               	movwf	140,c	;volatile
 11329   005FE6                     
 11330                           ;lcd.c: 18:     LATD |= (1<<3);
 11331   005FE6  868C               	bsf	140,3,c	;volatile
 11332   005FE8                     
 11333                           ;lcd.c: 19:     _delay((unsigned long)((5)*(20000000/4000.0)));
 11334   005FE8  0E21               	movlw	33
 11335   005FEA  6E01               	movwf	??_SendLcdCommand^0,c
 11336   005FEC  0E76               	movlw	118
 11337   005FEE                     u4667:
 11338   005FEE  2EE8               	decfsz	wreg,f,c
 11339   005FF0  D7FE               	bra	u4667
 11340   005FF2  2E01               	decfsz	??_SendLcdCommand^0,f,c
 11341   005FF4  D7FC               	bra	u4667
 11342   005FF6  D000               	nop2	
 11343                           
 11344                           ;lcd.c: 20:     LATD &= ~(1<<3);
 11345   005FF8  968C               	bcf	140,3,c	;volatile
 11346   005FFA                     
 11347                           ;lcd.c: 22:     LATD = (unsigned char)((Command & 0X0F) << 4) |(LATD &0x0F);
 11348   005FFA  CF8C F001          	movff	3980,??_SendLcdCommand	;volatile
 11349   005FFE  0E0F               	movlw	15
 11350   006000  1601               	andwf	??_SendLcdCommand^0,f,c
 11351   006002  C003  F002         	movff	SendLcdCommand@Command,??_SendLcdCommand+1
 11352   006006  0E0F               	movlw	15
 11353   006008  1602               	andwf	(??_SendLcdCommand+1)^0,f,c
 11354   00600A  3802               	swapf	(??_SendLcdCommand+1)^0,w,c
 11355   00600C  0BF0               	andlw	240
 11356   00600E  1001               	iorwf	??_SendLcdCommand^0,w,c
 11357   006010  6E8C               	movwf	140,c	;volatile
 11358   006012                     
 11359                           ;lcd.c: 24:     LATD |= (1<<3);
 11360   006012  868C               	bsf	140,3,c	;volatile
 11361   006014                     
 11362                           ;lcd.c: 25:     _delay((unsigned long)((5)*(20000000/4000.0)));
 11363   006014  0E21               	movlw	33
 11364   006016  6E01               	movwf	??_SendLcdCommand^0,c
 11365   006018  0E76               	movlw	118
 11366   00601A                     u4677:
 11367   00601A  2EE8               	decfsz	wreg,f,c
 11368   00601C  D7FE               	bra	u4677
 11369   00601E  2E01               	decfsz	??_SendLcdCommand^0,f,c
 11370   006020  D7FC               	bra	u4677
 11371   006022  D000               	nop2	
 11372                           
 11373                           ;lcd.c: 26:     LATD &= ~(1<<3);
 11374   006024  968C               	bcf	140,3,c	;volatile
 11375   006026  0012               	return		;funcret
 11376   006028                     __end_of_SendLcdCommand:
 11377                           	callstack 0
 11378                           
 11379                           	psect	rparam
 11380   000000                     
 11381                           	psect	idloc
 11382                           
 11383                           ;Config register IDLOC0 @ 0x200000
 11384                           ;	unspecified, using default values
 11385   200000                     	org	2097152
 11386   200000  FF                 	db	255
 11387                           
 11388                           ;Config register IDLOC1 @ 0x200001
 11389                           ;	unspecified, using default values
 11390   200001                     	org	2097153
 11391   200001  FF                 	db	255
 11392                           
 11393                           ;Config register IDLOC2 @ 0x200002
 11394                           ;	unspecified, using default values
 11395   200002                     	org	2097154
 11396   200002  FF                 	db	255
 11397                           
 11398                           ;Config register IDLOC3 @ 0x200003
 11399                           ;	unspecified, using default values
 11400   200003                     	org	2097155
 11401   200003  FF                 	db	255
 11402                           
 11403                           ;Config register IDLOC4 @ 0x200004
 11404                           ;	unspecified, using default values
 11405   200004                     	org	2097156
 11406   200004  FF                 	db	255
 11407                           
 11408                           ;Config register IDLOC5 @ 0x200005
 11409                           ;	unspecified, using default values
 11410   200005                     	org	2097157
 11411   200005  FF                 	db	255
 11412                           
 11413                           ;Config register IDLOC6 @ 0x200006
 11414                           ;	unspecified, using default values
 11415   200006                     	org	2097158
 11416   200006  FF                 	db	255
 11417                           
 11418                           ;Config register IDLOC7 @ 0x200007
 11419                           ;	unspecified, using default values
 11420   200007                     	org	2097159
 11421   200007  FF                 	db	255
 11422                           
 11423                           	psect	config
 11424                           
 11425                           ; Padding undefined space
 11426   300000                     	org	3145728
 11427   300000  FF                 	db	255
 11428                           
 11429                           ;Config register CONFIG1H @ 0x300001
 11430                           ;	Oscillator Selection bits
 11431                           ;	FOSC = HSHP, HS oscillator (high power > 16 MHz)
 11432                           ;	4X PLL Enable
 11433                           ;	PLLCFG = OFF, Oscillator used directly
 11434                           ;	Primary clock enable bit
 11435                           ;	PRICLKEN = ON, Primary clock is always enabled
 11436                           ;	Fail-Safe Clock Monitor Enable bit
 11437                           ;	FCMEN = ON, Fail-Safe Clock Monitor enabled
 11438                           ;	Internal/External Oscillator Switchover bit
 11439                           ;	IESO = ON, Oscillator Switchover mode enabled
 11440   300001                     	org	3145729
 11441   300001  E2                 	db	226
 11442                           
 11443                           ;Config register CONFIG2L @ 0x300002
 11444                           ;	Power-up Timer Enable bit
 11445                           ;	PWRTEN = ON, Power up timer enabled
 11446                           ;	Brown-out Reset Enable bits
 11447                           ;	BOREN = OFF, Brown-out Reset disabled in hardware and software
 11448                           ;	Brown Out Reset Voltage bits
 11449                           ;	BORV = 0x96, user specified literal
 11450   300002                     	org	3145730
 11451   300002  B0                 	db	1200
 11452                           
 11453                           ;Config register CONFIG2H @ 0x300003
 11454                           ;	Watchdog Timer Enable bits
 11455                           ;	WDTEN = OFF, Watch dog timer is always disabled. SWDTEN has no effect.
 11456                           ;	Watchdog Timer Postscale Select bits
 11457                           ;	WDTPS = 32768, 1:32768
 11458   300003                     	org	3145731
 11459   300003  3C                 	db	60
 11460                           
 11461                           ; Padding undefined space
 11462   300004                     	org	3145732
 11463   300004  FF                 	db	255
 11464                           
 11465                           ;Config register CONFIG3H @ 0x300005
 11466                           ;	CCP2 MUX bit
 11467                           ;	CCP2MX = PORTC1, CCP2 input/output is multiplexed with RC1
 11468                           ;	PORTB A/D Enable bit
 11469                           ;	PBADEN = OFF, PORTB<5:0> pins are configured as digital I/O on Reset
 11470                           ;	P3A/CCP3 Mux bit
 11471                           ;	CCP3MX = PORTB5, P3A/CCP3 input/output is multiplexed with RB5
 11472                           ;	HFINTOSC Fast Start-up
 11473                           ;	HFOFST = OFF, HFINTOSC output and ready status are delayed by the oscillator stable st
      +                          atus
 11474                           ;	Timer3 Clock input mux bit
 11475                           ;	T3CMX = PORTB5, T3CKI is on RB5
 11476                           ;	ECCP2 B output mux bit
 11477                           ;	P2BMX = PORTD2, P2B is on RD2
 11478                           ;	MCLR Pin Enable bit
 11479                           ;	MCLRE = INTMCLR, RE3 input pin enabled; MCLR disabled
 11480   300005                     	org	3145733
 11481   300005  25                 	db	37
 11482                           
 11483                           ;Config register CONFIG4L @ 0x300006
 11484                           ;	Stack Full/Underflow Reset Enable bit
 11485                           ;	STVREN = ON, Stack full/underflow will cause Reset
 11486                           ;	Single-Supply ICSP Enable bit
 11487                           ;	LVP = ON, Single-Supply ICSP enabled if MCLRE is also 1
 11488                           ;	Extended Instruction Set Enable bit
 11489                           ;	XINST = OFF, Instruction set extension and Indexed Addressing mode disabled (Legacy mo
      +                          de)
 11490                           ;	Background Debug
 11491                           ;	DEBUG = 0x1, unprogrammed default
 11492   300006                     	org	3145734
 11493   300006  85                 	db	133
 11494                           
 11495                           ; Padding undefined space
 11496   300007                     	org	3145735
 11497   300007  FF                 	db	255
 11498                           
 11499                           ;Config register CONFIG5L @ 0x300008
 11500                           ;	Code Protection Block 0
 11501                           ;	CP0 = OFF, Block 0 (000800-003FFFh) not code-protected
 11502                           ;	Code Protection Block 1
 11503                           ;	CP1 = OFF, Block 1 (004000-007FFFh) not code-protected
 11504                           ;	Code Protection Block 2
 11505                           ;	CP2 = OFF, Block 2 (008000-00BFFFh) not code-protected
 11506                           ;	Code Protection Block 3
 11507                           ;	CP3 = OFF, Block 3 (00C000-00FFFFh) not code-protected
 11508   300008                     	org	3145736
 11509   300008  0F                 	db	15
 11510                           
 11511                           ;Config register CONFIG5H @ 0x300009
 11512                           ;	Boot Block Code Protection bit
 11513                           ;	CPB = OFF, Boot block (000000-0007FFh) not code-protected
 11514                           ;	Data EEPROM Code Protection bit
 11515                           ;	CPD = OFF, Data EEPROM not code-protected
 11516   300009                     	org	3145737
 11517   300009  C0                 	db	192
 11518                           
 11519                           ;Config register CONFIG6L @ 0x30000A
 11520                           ;	Write Protection Block 0
 11521                           ;	WRT0 = OFF, Block 0 (000800-003FFFh) not write-protected
 11522                           ;	Write Protection Block 1
 11523                           ;	WRT1 = OFF, Block 1 (004000-007FFFh) not write-protected
 11524                           ;	Write Protection Block 2
 11525                           ;	WRT2 = OFF, Block 2 (008000-00BFFFh) not write-protected
 11526                           ;	Write Protection Block 3
 11527                           ;	WRT3 = OFF, Block 3 (00C000-00FFFFh) not write-protected
 11528   30000A                     	org	3145738
 11529   30000A  0F                 	db	15
 11530                           
 11531                           ;Config register CONFIG6H @ 0x30000B
 11532                           ;	Configuration Register Write Protection bit
 11533                           ;	WRTC = OFF, Configuration registers (300000-3000FFh) not write-protected
 11534                           ;	Boot Block Write Protection bit
 11535                           ;	WRTB = OFF, Boot Block (000000-0007FFh) not write-protected
 11536                           ;	Data EEPROM Write Protection bit
 11537                           ;	WRTD = OFF, Data EEPROM not write-protected
 11538   30000B                     	org	3145739
 11539   30000B  E0                 	db	224
 11540                           
 11541                           ;Config register CONFIG7L @ 0x30000C
 11542                           ;	Table Read Protection Block 0
 11543                           ;	EBTR0 = OFF, Block 0 (000800-003FFFh) not protected from table reads executed in other
      +                           blocks
 11544                           ;	Table Read Protection Block 1
 11545                           ;	EBTR1 = OFF, Block 1 (004000-007FFFh) not protected from table reads executed in other
      +                           blocks
 11546                           ;	Table Read Protection Block 2
 11547                           ;	EBTR2 = OFF, Block 2 (008000-00BFFFh) not protected from table reads executed in other
      +                           blocks
 11548                           ;	Table Read Protection Block 3
 11549                           ;	EBTR3 = OFF, Block 3 (00C000-00FFFFh) not protected from table reads executed in other
      +                           blocks
 11550   30000C                     	org	3145740
 11551   30000C  0F                 	db	15
 11552                           
 11553                           ;Config register CONFIG7H @ 0x30000D
 11554                           ;	Boot Block Table Read Protection bit
 11555                           ;	EBTRB = OFF, Boot Block (000000-0007FFh) not protected from table reads executed in ot
      +                          her blocks
 11556   30000D                     	org	3145741
 11557   30000D  40                 	db	64
 11558                           tosu	equ	0xFFF
 11559                           tosh	equ	0xFFE
 11560                           tosl	equ	0xFFD
 11561                           stkptr	equ	0xFFC
 11562                           pclatu	equ	0xFFB
 11563                           pclath	equ	0xFFA
 11564                           pcl	equ	0xFF9
 11565                           tblptru	equ	0xFF8
 11566                           tblptrh	equ	0xFF7
 11567                           tblptrl	equ	0xFF6
 11568                           tablat	equ	0xFF5
 11569                           prodh	equ	0xFF4
 11570                           prodl	equ	0xFF3
 11571                           indf0	equ	0xFEF
 11572                           postinc0	equ	0xFEE
 11573                           postdec0	equ	0xFED
 11574                           preinc0	equ	0xFEC
 11575                           plusw0	equ	0xFEB
 11576                           fsr0h	equ	0xFEA
 11577                           fsr0l	equ	0xFE9
 11578                           wreg	equ	0xFE8
 11579                           indf1	equ	0xFE7
 11580                           postinc1	equ	0xFE6
 11581                           postdec1	equ	0xFE5
 11582                           preinc1	equ	0xFE4
 11583                           plusw1	equ	0xFE3
 11584                           fsr1h	equ	0xFE2
 11585                           fsr1l	equ	0xFE1
 11586                           bsr	equ	0xFE0
 11587                           indf2	equ	0xFDF
 11588                           postinc2	equ	0xFDE
 11589                           postdec2	equ	0xFDD
 11590                           preinc2	equ	0xFDC
 11591                           plusw2	equ	0xFDB
 11592                           fsr2h	equ	0xFDA
 11593                           fsr2l	equ	0xFD9
 11594                           status	equ	0xFD8

Data Sizes:
    Strings     65
    Constant    124
    Data        66
    BSS         1142
    Persistent  0
    Stack       0

Auto Spaces:
    Space          Size  Autos    Used
    COMRAM           95     94      95
    BANK0           160     82     151
    BANK1           256    188     252
    BANK2           256      0       0
    BANK3           256      0       0
    BANK4           256      0       0
    BANK5           256      0       0
    BANK6           256      0       0
    BANK7           256      0       0
    BANK8           256      0       0
    BANK9           256      0       0
    BANK10          256      0       0
    BANK11          256      0       0
    BANK12          256      0       0
    BANK13          256      0       0
    BANK14          256      0       0
    BANK15           56      0       0

Pointer List with Targets:

    nanf@s	PTR const unsigned char  size(2) Largest target is 1
		 -> STR_16(CODE[1]), 

    ValidateNumber@Data	PTR unsigned char  size(2) Largest target is 3895
		 -> RAM(DATA[3895]), DataArray2(BANK0[3]), DataArray(BANK0[5]), 

    LcdDisplayString@Data	PTR unsigned char  size(2) Largest target is 3895
		 -> NULL(NULL[0]), STR_15(CODE[15]), STR_14(CODE[10]), STR_13(CODE[2]), 
		 -> STR_12(CODE[10]), STR_11(CODE[2]), STR_10(CODE[15]), STR_9(CODE[3]), 
		 -> STR_8(CODE[3]), STR_7(CODE[3]), arr(BANK1[64]), STR_6(CODE[5]), 
		 -> STR_5(CODE[15]), STR_4(CODE[15]), STR_3(CODE[6]), RAM(DATA[3895]), 
		 -> STR_2(CODE[6]), DataArray2(BANK0[3]), STR_1(CODE[5]), DataArray(BANK0[5]), 


Critical Paths under _main in COMRAM

    _main->_Dothi_settings
    _main_menu->_LcdDisplayString
    _Loom_settings->_increment
    _LcdInit->_SendLcdCommand
    _Dothi_settings->_increment
    _increment->___fltol
    _powf->___fldiv
    _sqrtf->___flge
    ___flge->___flsub
    _scalbnf->___flmul
    ___flmul->___fladd
    ___flsub->___flmul
    ___fldiv->___flsub
    ___fltol->_powf
    _LcdDisplayOnCursorOn->_SendLcdCommand
    _LcdDisplayChar->_SendLcdCommand
    _LcdDisplayChar->_SendLcdData
    _LcdDisplaytwo->___lwmod
    _LcdDisplayNumber->___lwmod
    ___lwmod->___lwdiv
    _LcdDisplayString->_SendLcdCommand
    _LcdDisplayString->_SendLcdData
    _LcdClearDisplay->_SendLcdCommand

Critical Paths under _main in BANK0

    _main->_Dothi_settings
    _Loom_settings->_increment
    _Dothi_settings->_increment
    _increment->___fltol
    _powf->_sqrtf
    ___fltol->_powf

Critical Paths under _main in BANK1

    _increment->_powf
    ___fltol->_powf

Critical Paths under _main in BANK2

    None.

Critical Paths under _main in BANK3

    None.

Critical Paths under _main in BANK4

    None.

Critical Paths under _main in BANK5

    None.

Critical Paths under _main in BANK6

    None.

Critical Paths under _main in BANK7

    None.

Critical Paths under _main in BANK8

    None.

Critical Paths under _main in BANK9

    None.

Critical Paths under _main in BANK10

    None.

Critical Paths under _main in BANK11

    None.

Critical Paths under _main in BANK12

    None.

Critical Paths under _main in BANK13

    None.

Critical Paths under _main in BANK14

    None.

Critical Paths under _main in BANK15

    None.

Call Graph Tables:

 ---------------------------------------------------------------------------------
 (Depth) Function   	        Calls       Base Space   Used Autos Params    Refs
 ---------------------------------------------------------------------------------
 (0) _main                                                 4     4      0  219009
                                             78 BANK0      4     4      0
                     _Dothi_settings
                    _LcdClearDisplay
                   _LcdDisplayString
                            _LcdInit
                      _Loom_settings
                     _Reset_settings
                          _main_menu
 ---------------------------------------------------------------------------------
 (1) _main_menu                                            4     2      2    3153
                                              7 COMRAM     4     2      2
                    _LcdClearDisplay
                   _LcdDisplayString
 ---------------------------------------------------------------------------------
 (1) _Reset_settings                                       0     0      0      44
                    _LcdClearDisplay
 ---------------------------------------------------------------------------------
 (1) _Loom_settings                                        9     9      0  103407
                                             90 COMRAM     1     1      0
                                             66 BANK0      8     8      0
                    _LcdClearDisplay
                   _LcdDisplayNumber
                   _LcdDisplayString
                          _increment
 ---------------------------------------------------------------------------------
 (1) _LcdInit                                              1     1      0      44
                                              3 COMRAM     1     1      0
                     _SendLcdCommand
 ---------------------------------------------------------------------------------
 (1) _Dothi_settings                                      16    16      0  109185
                                             90 COMRAM     4     4      0
                                             66 BANK0     12    12      0
                    _LcdClearDisplay
                   _LcdDisplayNumber
                   _LcdDisplayString
                      _LcdDisplaytwo
                          _increment
 ---------------------------------------------------------------------------------
 (2) _increment                                           19    13      6   93650
                                             89 COMRAM     1     1      0
                                             48 BANK0     18    12      6
                     _LcdDisplayChar
               _LcdDisplayOnCursorOn
                            ___flmul
                            ___fltol
                           ___xxtofl
                               _powf
 ---------------------------------------------------------------------------------
 (3) _powf                                               205   197      8   76238
                                             74 COMRAM     9     9      0
                                             36 BANK0      8     0      8
                                              0 BANK1    188   188      0
                            ___fladd
                            ___fldiv
                             ___flge
                            ___flmul
                            ___flneg
                            ___flsub
                           ___xxtofl
                              _fabsf
                            _scalbnf
                              _sqrtf
 ---------------------------------------------------------------------------------
 (4) _sqrtf                                               49    45      4   21037
                                             61 COMRAM     9     5      4
                                              0 BANK0     36    36      0
                            ___fladd
                             ___flge
                            ___flmul
                               _nanf
 ---------------------------------------------------------------------------------
 (5) _nanf                                                 8     4      4      99
                                              0 COMRAM     8     4      4
 ---------------------------------------------------------------------------------
 (5) ___flge                                              12     4      8     790
                                             49 COMRAM    12     4      8
                            ___fladd (ARG)
                            ___flsub (ARG)
 ---------------------------------------------------------------------------------
 (4) _scalbnf                                             18    12      6   12271
                                             41 COMRAM    18    12      6
                            ___flmul
 ---------------------------------------------------------------------------------
 (5) ___flmul                                             25    17      8   11776
                                             16 COMRAM    25    17      8
                            ___fladd (ARG)
                           ___xxtofl (ARG)
 ---------------------------------------------------------------------------------
 (4) _fabsf                                                8     4      4     123
                                              0 COMRAM     8     4      4
 ---------------------------------------------------------------------------------
 (4) ___xxtofl                                            14    10      4     550
                                              0 COMRAM    14    10      4
 ---------------------------------------------------------------------------------
 (4) ___flsub                                              8     0      8   12769
                                             41 COMRAM     8     0      8
                            ___fladd
                            ___flmul (ARG)
 ---------------------------------------------------------------------------------
 (5) ___fladd                                             16     8      8    7430
                                              0 COMRAM    16     8      8
 ---------------------------------------------------------------------------------
 (4) ___flneg                                              4     0      4     197
                                              0 COMRAM     4     0      4
 ---------------------------------------------------------------------------------
 (4) ___fldiv                                             25    17      8    2159
                                             49 COMRAM    25    17      8
                            ___fladd (ARG)
                            ___flmul (ARG)
                            ___flsub (ARG)
 ---------------------------------------------------------------------------------
 (3) ___fltol                                             10     6      4     305
                                             83 COMRAM     6     6      0
                                             44 BANK0      4     0      4
                            ___flmul (ARG)
                           ___xxtofl (ARG)
                               _powf (ARG)
 ---------------------------------------------------------------------------------
 (3) _LcdDisplayOnCursorOn                                 2     1      1     208
                                              3 COMRAM     2     1      1
                     _SendLcdCommand
 ---------------------------------------------------------------------------------
 (3) _LcdDisplayChar                                       3     1      2     654
                                              3 COMRAM     3     1      2
                     _SendLcdCommand
                        _SendLcdData
 ---------------------------------------------------------------------------------
 (2) _LcdDisplaytwo                                        4     1      3    5377
                                             12 COMRAM     4     1      3
                   _LcdDisplayString
                     _ValidateNumber
                            ___lwdiv
                            ___lwmod
 ---------------------------------------------------------------------------------
 (2) _LcdDisplayNumber                                     4     1      3    6333
                                             12 COMRAM     4     1      3
                   _LcdDisplayString
                     _ValidateNumber
                            ___lwdiv
                            ___lwmod
 ---------------------------------------------------------------------------------
 (3) ___lwmod                                              5     1      4     767
                                              7 COMRAM     5     1      4
                            ___lwdiv (ARG)
 ---------------------------------------------------------------------------------
 (3) ___lwdiv                                              7     3      4     770
                                              0 COMRAM     7     3      4
 ---------------------------------------------------------------------------------
 (3) _ValidateNumber                                       3     1      2     295
                                              0 COMRAM     3     1      2
 ---------------------------------------------------------------------------------
 (2) _LcdDisplayString                                     4     1      3    3109
                                              3 COMRAM     4     1      3
                     _SendLcdCommand
                        _SendLcdData
 ---------------------------------------------------------------------------------
 (3) _SendLcdData                                          3     3      0      44
                                              0 COMRAM     3     3      0
 ---------------------------------------------------------------------------------
 (2) _LcdClearDisplay                                      0     0      0      44
                     _SendLcdCommand
 ---------------------------------------------------------------------------------
 (3) _SendLcdCommand                                       3     3      0      44
                                              0 COMRAM     3     3      0
 ---------------------------------------------------------------------------------
 Estimated maximum stack depth 5
 ---------------------------------------------------------------------------------

 Call Graph Graphs:

 _main (ROOT)
   _Dothi_settings
     _LcdClearDisplay
       _SendLcdCommand
     _LcdDisplayNumber
       _LcdDisplayString
         _SendLcdCommand
         _SendLcdData
       _ValidateNumber
       ___lwdiv
       ___lwmod
         ___lwdiv (ARG)
     _LcdDisplayString
     _LcdDisplaytwo
       _LcdDisplayString
       _ValidateNumber
       ___lwdiv
       ___lwmod
     _increment
       _LcdDisplayChar
         _SendLcdCommand
         _SendLcdData
       _LcdDisplayOnCursorOn
         _SendLcdCommand
       ___flmul
         ___fladd (ARG)
         ___xxtofl (ARG)
       ___fltol
         ___flmul (ARG)
         ___xxtofl (ARG)
         _powf (ARG)
           ___fladd
           ___fldiv
             ___fladd (ARG)
             ___flmul (ARG)
             ___flsub (ARG)
               ___fladd
               ___flmul (ARG)
           ___flge
             ___fladd (ARG)
             ___flsub (ARG)
           ___flmul
           ___flneg
           ___flsub
           ___xxtofl
           _fabsf
           _scalbnf
             ___flmul
           _sqrtf
             ___fladd
             ___flge
             ___flmul
             _nanf
       ___xxtofl
       _powf
   _LcdClearDisplay
   _LcdDisplayString
   _LcdInit
     _SendLcdCommand
   _Loom_settings
     _LcdClearDisplay
     _LcdDisplayNumber
     _LcdDisplayString
     _increment
   _Reset_settings
     _LcdClearDisplay
   _main_menu
     _LcdClearDisplay
     _LcdDisplayString

 Address spaces:
Name               Size   Autos  Total    Cost      Usage
BIGRAM             F37      0     432      41       27.6%
EEDATA             400      0       0       0        0.0%
BITBANK14          100      0       0      32        0.0%
BANK14             100      0       0      33        0.0%
BITBANK13          100      0       0      30        0.0%
BANK13             100      0       0      31        0.0%
BITBANK12          100      0       0      28        0.0%
BANK12             100      0       0      29        0.0%
BITBANK11          100      0       0      26        0.0%
BANK11             100      0       0      27        0.0%
BITBANK10          100      0       0      24        0.0%
BANK10             100      0       0      25        0.0%
BITBANK9           100      0       0      22        0.0%
BANK9              100      0       0      23        0.0%
BITBANK8           100      0       0      20        0.0%
BANK8              100      0       0      21        0.0%
BITBANK7           100      0       0      18        0.0%
BANK7              100      0       0      19        0.0%
BITBANK6           100      0       0      16        0.0%
BANK6              100      0       0      17        0.0%
BITBANK5           100      0       0      14        0.0%
BANK5              100      0       0      15        0.0%
BITBANK4           100      0       0      12        0.0%
BANK4              100      0       0      13        0.0%
BITBANK3           100      0       0      10        0.0%
BANK3              100      0       0      11        0.0%
BITBANK2           100      0       0       8        0.0%
BANK2              100      0       0       9        0.0%
BITBANK1           100      0       0       6        0.0%
BANK1              100     BC      FC       7       98.4%
BITBANK0            A0      0       0       4        0.0%
BANK0               A0     52      97       5       94.4%
BITBIGSFRhh         6A      0       0      36        0.0%
BITCOMRAM           5F      0       0       0        0.0%
COMRAM              5F     5E      5F       1      100.0%
BITBIGSFRll         49      0       0      39        0.0%
BITBANK15           38      0       0      34        0.0%
BANK15              38      0       0      35        0.0%
BITBIGSFRlh          9      0       0      38        0.0%
BITBIGSFRhl          8      0       0      37        0.0%
BIGSFR               0      0       0     200        0.0%
BITSFR_1             0      0       0     200        0.0%
SFR_1                0      0       0     200        0.0%
BITSFR               0      0       0     200        0.0%
SFR                  0      0       0     200        0.0%
STACK                0      0       0       2        0.0%
NULL                 0      0       0       0        0.0%
ABS                  0      0     1F2      40        0.0%
DATA                 0      0     624       3        0.0%
CODE                 0      0       0       0        0.0%


Microchip Technology PIC18 Macro Assembler V2.40 build 20220703182018 
Symbol Table                                                                                   Fri Feb 17 14:53:13 2023

                ___fldiv@aexp 004A                  ___fldiv@bexp 0049                  ___fldiv@sign 0042  
             _LcdClearDisplay 61C8                            _L1 1059                            _L2 1055  
                          _L3 1051                            _L4 104D                            _L5 1049  
                          _L6 1045                            _P1 1041                            _P2 103D  
                          _P3 1039                            _P4 1035                            _P5 1031  
                          l75 6026                            l84 5D60                            l93 5CD6  
                          l78 5FD0                            l97 60A6                            l99 60AE  
                          _bp 1069                            _cp 101D                           l122 5DE4  
                         l131 61CE                           l107 5F7A                           l117 5AE4  
                         l310 54E6                           l137 612E                           l307 549E  
                         l324 3F84                           l327 61C2                           l328 61C2  
                         l281 5B9A                           l290 56EE                           l274 5C3A  
                         l603 5A00                           l291 56CE                           l293 57F4  
                         l277 5AE6                           l630 58FC                           l278 5B46  
                         l607 6166                           l279 5B2C                           l831 5E58  
                         l903 606C                           l824 5E50                           l920 4EEC  
                         l841 5F20                           l834 5F18                           l915 50C8  
                         l917 4F28                           l861 4634                           l926 4F6E  
                         l870 4904                           l862 4622                           l598 59BA  
                         l863 45E8                           l951 4D2E                           l928 4FE6  
                         l929 4FD4                           l954 4BC0                           l947 49CA  
                         l964 4CF0                           l956 4C38                           l957 4C26  
                         l878 474E                           l887 481E                           l991 569A  
                         l888 480C                           l995 55D6                           l988 553E  
                         _lg2 102D                           _arr 01BC                           _pos 00C2  
                         _ovt 1021               ?_Dothi_settings 0001                           wreg 000FE8  
                ___flmul@aexp 0022                  ___flmul@bexp 0023                  ___flmul@sign 001D  
                  _DataArray1 00DC                    _DataArray2 00F2                  ___flmul@temp 0028  
                ___flmul@prod 0024                  ___fltol@exp1 0059                          l1002 5632  
                        l1107 15FC                          l1204 52FC                          l1220 4184  
                        l1071 10E0                          l1224 41E2                          l1216 4444  
                        l3001 4606                          l1074 39B6                          l3011 4652  
                        l3003 4614                          l1227 42A6                          l3101 48DE  
                        l3021 4692                          l3005 4616                          l1237 61BC  
                        l1229 43AE                          l1069 10C0                          l3103 48E4  
                        l3031 46BC                          l3023 469E                          l3015 4666  
                        l3007 4620                          l3111 4906                          l1175 31E8  
                        l1079 1380                          l1176 3250                          l3105 48F2  
                        l3041 472E                          l3025 46A2                          l3017 4676  
                        l3009 4642                          l3033 46C2                          l3201 4BDE  
                        l3121 4942                          l3113 4912                          l4001 2C3C  
                        l1089 1414                          l1194 619A                          l1186 3962  
                        l3107 48F4                          l3051 4788                          l3035 46E8  
                        l3043 473E                          l3027 46B0                          l3019 4684  
                        l3211 4C48                          l3203 4BE2                          l3131 4974  
                        l3123 4952                          l3115 4920                          l4011 2D4A  
                        l4003 2C56                          l1099 14D6                          l3301 4D4A  
                        l3061 47B8                          l3053 4792                          l3045 4764  
                        l3037 471C                          l3029 46B2                          l3221 4CAA  
                        l3213 4C54                          l3205 4BF0                          l3141 49B4  
                        l3133 4982                          l3125 4958                          l3117 4922  
                        l4101 379E                          l4013 2D7E                          l4005 2C66  
                        l3311 4D7E                          l3303 4D4C                          l3071 47E0  
                        l3063 47BC                          l3055 47A0                          l3047 4774  
                        l3039 471E                          l3231 4D12                          l3223 4CBE  
                        l3215 4C62                          l3207 4C1E                          l3151 49FE  
                        l3143 49BA                          l3135 4984                          l3127 4968  
                        l3119 4932                          l4111 38A2                          l4103 37F6  
                        l4015 2D8E                          l4007 2CBE                          l4201 5F0C  
                        l3321 4DB0                          l3305 4D5C                          l3313 4D86  
                        l3081 483A                          l3073 47EE                          l3065 47CC  
                        l3057 47A2                          l3233 4D14                          l3225 4CD8  
                        l3217 4C8C                          l3161 4A4E                          l3153 4A0A  
                        l3145 49DA                          l3137 4994                          l3129 496E  
                        l3241 58FE                          l4113 38B2                          l4105 382A  
                        l4041 2FD2                          l4033 2F2C                          l4025 2E2E  
                        l4017 2D9E                          l4009 2D16                          l4203 5F12  
                        l4211 5ABC                          l4131 584C                          l4123 57F6  
                        l3403 4FF6                          l3411 503E                          l3331 4DE4  
                        l3323 4DB2                          l3315 4D96                          l3307 4D6C  
                        l3091 48A4                          l3083 4848                          l3075 4804  
                        l3059 47B0                          l3067 47CE                          l3227 4CF4  
                        l3235 4D1A                          l3219 4C90                          l3171 4A90  
                        l3163 4A5A                          l3155 4A14                          l3147 49EA  
                        l3139 49A4                          l3251 5988                          l3243 592C  
                        l4115 38E6                          l4107 385E                          l4051 3112  
                        l4043 2FEE                          l4035 2F66                          l4027 2E46  
                        l4019 2DC2                          l4205 5A04                          l4221 5D64  
                        l4133 584E                          l4125 580E                          l3421 50A8  
                        l3413 5058                          l3405 5002                          l3341 4E2A  
                        l3325 4DC2                          l3333 4DEC                          l3317 4D9C  
                        l3309 4D7C                          l3093 48C4                          l3085 4882  
                        l3069 47DC                          l3237 4D1E                          l3229 4D04  
                        l3181 4AF2                          l3173 4A9C                          l3165 4A66  
                        l3157 4A2A                          l3253 599A                          l3245 593C  
                        l3501 3FA6                          l4117 3932                          l4109 3892  
                        l4061 32D0                          l4053 3122                          l4045 3044  
                        l4029 2EC0                          l4301 5B8A                          l3271 5FD6  
                        l4207 5A9C                          l4223 5D9C                          l4135 585E  
                        l3423 50B6                          l3415 506E                          l3407 5010  
                        l3351 4E52                          l3343 4E2E                          l3335 4DFC  
                        l3327 4DD2                          l3319 4DA2                          l3095 48C8  
                        l3079 482E                          l3087 4884                          l3191 4B88  
                        l3183 4AFE                          l3175 4AAC                          l3167 4A74  
                        l3159 4A36                          l3255 59A8                          l3247 596A  
                        l3263 619C                          l3511 4084                          l3503 3FDC  
                        l4119 3982                          l4071 3372                          l4055 3144  
                        l4063 3304                          l4311 531E                          l4303 5B92  
                        l3281 6014                          l3273 5FE6                          l4217 5AD2  
                        l4209 5AA0                          l4233 5DD2                          l4225 5DA0  
                        l4161 58DC                          l4145 5888                          l4137 5862  
                        l4129 5822                          l3425 50BC                          l3417 5088  
                        l3409 503A                          l3361 4EA0                          l3337 4E12  
                        l3329 4DE2                          l3441 6130                          l3097 48D6  
                        l3089 4894                          l3193 4BA6                          l3185 4B1A  
                        l3177 4AC6                          l3169 4A80                          l3601 5202  
                        l3257 59F8                          l3249 597A                          l3265 61AC  
                        l3513 4098                          l3521 40CE                          l4081 349A  
                        l4073 3382                          l4065 3338                          l4057 3240  
                        l4049 30B0                          l4241 56AE                          l4401 3A1A  
                        l4321 5378                          l4313 5330                          l4305 52FE  
                        l3275 5FE8                          l3291 5FA4                          l3283 5F7E  
                        l4171 5E00                          l4227 5DBC                          l4163 58EC  
                        l4155 58B0                          l4147 5892                          l4139 5870  
                        l3427 50BE                          l3419 50A4                          l3371 4EEA  
                        l3363 4EB0                          l3355 4E66                          l3339 4E22  
                        l3347 4E42                          l3443 6146                          l3099 48DC  
                        l3435 6028                          l3451 54FA                          l3195 4BB0  
                        l3187 4B44                          l3179 4AD6                          l3611 527E  
                        l3603 520A                          l3259 59FE                          l3531 415C  
                        l3523 4124                          l3515 40A6                          l3507 4038  
                        l4091 35C2                          l4083 34CE                          l4075 33B6  
                        l4067 3348                          l4059 32C0                          l4251 570C  
                        l4243 56BE                          l4411 3A66                          l4403 3A28  
                        l4331 53AE                          l4323 5382                          l4315 5342  
                        l4307 5302                          l3277 5FFA                          l3269 5FD4  
                        l4237 61C8                          l3293 5FBC                          l3285 5F80  
                        l3621 5C40                          l4181 5E3A                          l4173 5E08  
                        l4157 58BC                          l4149 589C                          l3381 4F38  
                        l3373 4EF6                          l3365 4EB8                          l3357 4E80  
                        l3349 4E52                          l3445 6156                          l3437 6038  
                        l3461 5578                          l3453 5508                          l3197 4BBE  
                        l3189 4B7A                          l3605 5226                          l3613 5286  
                        l3541 4230                          l3533 41C4                          l3525 4138  
                        l3517 40AE                          l3509 4056                          l4093 361A  
                        l4085 3502                          l4077 33EA                          l4069 3358  
                        l3701 1276                          l4261 5798                          l4253 572A  
                        l4245 56DC                          l4421 3AB4                          l4413 3A78  
                        l4405 3A44                          l4341 53DE                          l4333 53BC  
                        l4317 5354                          l4309 530C                          l3279 6012  
                        l3295 5FBE                          l3287 5F90                          l3631 5CA0  
                        l3623 5C50                          l4183 5E42                          l4175 5E10  
                        l4167 5DE6                          l4191 5ED0                          l4159 58CC  
                        l3383 4F4E                          l3391 4F7E                          l3375 4F14  
                        l3367 4EC8                          l3359 4E90                          l2911 4452  
                        l3471 55CC                          l3463 5580                          l3455 554E  
                        l3199 4BD0                          l3615 52B8                          l3607 525A  
                        l3551 42EC                          l3543 426E                          l3535 41D2  
                        l3527 4142                          l4095 3672                          l4087 3536  
                        l4079 3442                          l3703 1350                          l4255 5732  
                        l4239 569C                          l4423 3AC6                          l4415 3A8A  
                        l4407 3A50                          l4271 5D06                          l4263 5CD8  
                        l4351 542A                          l4343 53E6                          l4335 53C2  
                        l4319 5366                          l3289 5F92                          l3633 5CA4  
                        l3625 5C5C                          l4185 5E44                          l4177 5E1E  
                        l4169 5DEE                          l4193 5ED8                          l3641 609E  
                        l3393 4F8C                          l3385 4F54                          l3377 4F16  
                        l3369 4EDC                          l3297 4D30                          l2921 4492  
                        l2913 4460                          l3481 5642                          l3473 5608  
                        l3465 558C                          l3457 5564                          l3449 54EA  
                        l3617 52EC                          l3609 5262                          l3561 4384  
                        l3553 42FC                          l3545 42B6                          l3537 41FC  
                        l3529 414E                          l4097 36CA                          l4089 356A  
                        l3801 1920                          l3721 1428                          l3713 13CE  
                        l3705 139C                          l4257 573A                          l4249 56FC  
                        l4441 3B82                          l4425 3AD8                          l4417 3A9C  
                        l4409 3A54                          l4281 5D38                          l4273 5D0C  
                        l4265 5CE0                          l4361 544A                          l4353 5430  
                        l4337 53C8                          l4329 538A                          l3627 5C6E  
                        l3643 5F22                          l4187 5E4A                          l4179 5E24  
                        l4195 5EE0                          l3635 6070                          l3395 4F90  
                        l3387 4F5E                          l3379 4F26                          l3299 4D3C  
                        l2931 44C4                          l2923 4494                          l2915 4462  
                        l3491 568A                          l3483 5646                          l3475 5614  
                        l3467 55BE                          l3571 6168                          l3563 4414  
                        l3555 432E                          l3547 42C0                          l3539 421C  
                        l4099 3722                          l3811 1A3A                          l3731 1490  
                        l3723 1436                          l3715 13F0                          l3707 13B8  
                        l4259 5762                          l4451 3C98                          l4443 3B88  
                        l4435 3AFC                          l4427 3AEA                          l4419 3AA2  
                        l4283 5D48                          l4275 5D1C                          l4267 5CF0  
                        l4371 5494                          l4347 53F8                          l4339 53D6  
                        l4291 5AE6                          l3629 5C7A                          l3653 5F5C  
                        l3645 5F26                          l4197 5EEE                          l4189 5EBE  
                        l3637 6080                          l3661 60F2                          l3397 4F9E  
                        l3389 4F6C                          l2941 44EC                          l2933 44C6  
                        l2917 4472                          l2925 449C                          l2909 4446  
                        l3485 566A                          l3477 5622                          l3469 55C0  
                        l3573 6188                          l3581 50DA                          l3565 4424  
                        l3557 4340                          l3549 42D6                          l3901 21D4  
                        l3821 1B66                          l3805 198C                          l3741 153A  
                        l3733 149E                          l3725 145E                          l3717 13FE  
                        l4453 3D0C                          l4445 3B96                          l4437 3B6E  
                        l4429 3AF4                          l4285 5D4E                          l4277 5D22  
                        l4269 5CF6                          l4381 54D4                          l4365 545C  
                        l4349 541C                          l4357 543A                          l4293 5B3A  
                        l4541 5BB4                          l3647 5F3E                          l3655 5F60  
                        l4199 5F04                          l3639 608C                          l3663 60F8  
                        l3399 4FCC                          l2951 4526                          l2943 44FC  
                        l2935 44CC                          l2927 44AC                          l2919 4482  
                        l3487 567A                          l3479 5640                          l3575 618A  
                        l3591 5182                          l3583 50F6                          l3567 4434  
                        l3559 4372                          l3495 3F86                          l3911 2320  
                        l3903 2208                          l3831 1CE6                          l3823 1BBE  
                        l3807 19B0                          l3815 1AA6                          l3751 15AC  
                        l3743 1552                          l3735 14EA                          l3671 1100  
                        l4471 3DB8                          l4463 3D2C                          l4455 3D1A  
                        l4447 3C08                          l4439 3B7C                          l4383 39B8  
                        l4287 5D54                          l4279 5D32                          l4375 54AC  
                        l4367 5480                          l4359 5442                          l4295 5B54  
                        l4543 5BCA                          l4535 5B9C                          l3657 5F78  
                        l3649 5F56                          l3665 6108                          l2961 4552  
                        l2953 4538                          l2945 450C                          l2937 44DA  
                        l2929 44B2                          l3489 5688                          l3593 518A  
                        l3585 512A                          l3497 3F86                          l3921 24D8  
                        l3913 2378                          l3905 2260                          l3833 1CF6  
                        l3825 1BF2                          l3817 1ADA                          l3809 19CE  
                        l3841 1D8C                          l3761 164E                          l3753 15CA  
                        l3745 1560                          l3737 1502                          l3729 1474  
                        l3673 1148                          l4481 3F3C                          l4473 3DC6  
                        l4465 3D9E                          l4457 3D24                          l4449 3C16  
                        l4393 39DC                          l4385 39CA                          l4289 5D5A  
                        l4377 54B0                          l4369 548E                          l4297 5B64  
                        l4545 5BD2                          l4553 5BF8                          l4537 5BA0  
                        l3667 6114                          l2971 4566                          l2963 4556  
                        l2955 4546                          l2947 450E                          l2939 44DC  
                        l3595 51A6                          l3587 5132                          l3579 50CA  
                        l3499 3F96                          l3931 2600                          l3923 250C  
                        l3915 23D0                          l3907 22B8                          l3851 1E0E  
                        l3843 1D9C                          l3835 1D10                          l3827 1C26  
                        l3819 1B32                          l3771 1744                          l3763 165E  
                        l3755 15E0                          l3691 120C                          l3683 1190  
                        l4475 3E38                          l4467 3DAC                          l4483 3F4A  
                        l4395 3A00                          l4387 39D4                          l4379 54C2  
                        l4299 5B82                          l4547 5BDA                          l4539 5BAC  
                        l3669 6126                          l2981 457A                          l2973 456A  
                        l2965 455A                          l2957 454A                          l2949 4516  
                        l3589 514E                          l3597 51B2                          l3941 26A2  
                        l3933 2634                          l3925 2540                          l3917 2428  
                        l3909 22EC                          l3861 1ECA                          l3845 1DB8  
                        l3853 1E1E                          l3837 1D20                          l3829 1CD6  
                        l3781 179A                          l3765 16A4                          l3773 1768  
                        l3757 160C                          l3749 1588                          l3693 121C  
                        l3685 11B2                          l3677 115E                          l4477 3E46  
                        l4469 3DB2                          l4485 3F6E                          l4397 3A0E  
                        l4549 5BE2                          l2991 45B4                          l2983 457E  
                        l2975 456E                          l2967 455E                          l2959 454E  
                        l3599 51CE                          l3951 2782                          l3943 26B2  
                        l3935 2668                          l3927 2598                          l3919 2480  
                        l3871 1F32                          l3863 1EDE                          l3855 1E76  
                        l3847 1DEC                          l3839 1D54                          l3791 1850  
                        l3783 17B0                          l3767 16AE                          l3759 161A  
                        l3695 122A                          l3687 11D4                          l3679 117A  
                        l4487 3F72                          l4479 3EC8                          l4399 3A14  
                        l2993 45D0                          l2985 4582                          l2977 4572  
                        l2969 4562                          l3961 286C                          l3953 27FE  
                        l3945 26E6                          l3937 2678                          l3929 25CC  
                        l3881 203E                          l3865 1F02                          l3873 1F42  
                        l3857 1E8E                          l3849 1DFE                          l3785 17BA  
                        l3793 1860                          l3769 172E                          l3777 177C  
                        l3697 1246                          l4489 61BE                          l2995 45E0  
                        l2979 4576                          l2987 4586                          l3971 2994  
                        l3963 287C                          l3955 2832                          l3947 271A  
                        l3939 2688                          l3891 20BC                          l3883 2072  
                        l3875 1F52                          l3867 1F16                          l3859 1EA6  
                        l3795 1882                          l3779 178C                          l3699 125A  
                        l4579 5C14                          l2997 45F6                          l2989 458A  
                        l3981 2ADA                          l3973 29F0                          l3965 28B0  
                        l3957 2842                          l3949 274E                          l3893 20CC  
                        l3885 2082                          l3877 1F62                          l3869 1F26  
                        l3797 18A6                          l3789 183A                          l2999 4602  
                        l3991 2B58                          l3983 2AEA                          l3975 2A16  
                        l3967 28E4                          l3959 2852                          l3895 2116  
                        l3887 2092                          l3879 1FBE                          l3799 18B4  
                        l3993 2BB4                          l3985 2AFA                          l3977 2A4A  
                        l3969 2918                          l3897 2168                          l3889 20A2  
                        l3995 2BE8                          l3987 2B14                          l3979 2AA6  
                        l3899 2178                          l3989 2B24                          l3997 2C1C  
                        l3999 2C2C                          STR_1 10B0                          STR_2 10A5  
                        STR_4 108C                          STR_5 108C                          STR_6 10AB  
                        STR_7 10BB                          STR_8 10B8                          STR_9 10B5  
                        u3000 4F8C                          u3001 4F88                          u3010 4F9E  
                        u3011 4F9A                          u3020 4FCC                          u2300 4538  
                        u3100 54FA                          u3021 4FC8                          u2301 4534  
                        u3101 54F6                          u3030 4FE2                          u2310 4546  
                        u2230 4460                          u3110 5508                          u3031 4FDE  
                        u2311 4542                          u2231 445C                          u3111 5504  
                        u3040 4FF6                          u2400 4684                          u2320 45B4  
                        u2240 4472                          u3120 5564                          u3200 3FDC  
                        _LATD 000F8C                          u3041 4FF2                          u2401 4680  
                        u2321 45B0                          u2241 446E                          u3121 5560  
                        u3201 3FD8                          u3050 5010                          u2410 4692  
                        u2330 45CC                          u2250 4482                          u3130 55BA  
                        u3210 4056                          u4010 3144                          u3051 500C  
                        u2411 468E                          u2331 45C6                          u2251 447E  
                        u3131 55B6                          u3211 4052                          u4011 3140  
                        u4100 580E                          u3060 5058                          u2500 47DC  
                        u2420 46B0                          u2340 45CE                          u2260 44C4  
                        u3140 5604                          u3300 42EC                          u3220 4084  
                        u4101 580A                          u3061 5054                          u2501 47D8  
                        u2421 46AC                          u2261 44C0                          u3141 5600  
                        u3301 42E8                          u3221 4080                          u4005 30DE  
                        u4110 5842                          u3070 5088                          u2510 47EE  
                        u2430 46E8                          u2350 45F6                          u2270 44DA  
                        u3150 5622                          u3310 432E                          u3230 40A6  
                        u4006 30E8                          u3071 5084                          u2511 47EA  
                        u2431 46E4                          u2351 45F2                          u2271 44D6  
                        u3151 561E                          u3311 432A                          u3231 40A2  
                        u4007 30F8                          u4200 5ED0                          u4120 5870  
                        u3080 50B6                          u2600 48D6                          u2520 4804  
                        u2440 472E                          u2360 4614                          u2280 44EC  
                        u3160 5632                          u3320 4372                          u4201 5ECC  
                        u4121 586C                          u3081 50B2                          u2601 48D2  
                        u2521 4800                          u2441 472A                          u2361 4610  
                        u2281 44E8                          u3161 562E                          u3321 436E  
                        u4025 315C                          u3410 5C50                          u4210 5EEE  
                        u4130 5884                          u3090 6146                          u2610 48F2  
                        u2530 481A                          u2450 4764                          u2370 4634  
                        u2290 44FC                          u3170 5640                          u3250 4124  
                        u4026 3166                          u3411 5C4C                          u4211 5EEA  
                        u4131 5880                          u4115 5838                          u3091 6142  
                        u2611 48EE                          u2531 4816                          u2451 4760  
                        u2371 4630                          u2291 44F8                          u3171 563C  
                        u3251 4120                          u4035 31B4                          u4027 3176  
                        u3420 5C6E                          u3500 5F78                          u4220 5F04  
                        u4140 58AC                          u2540 482E                          u2460 4774  
                        u2380 4642                          u3180 567A                          u2700 4B64  
                        u2620 4920                          u3340 50F6                          u3260 415C  
                        u4060 32C0                          u4036 31BE                          u4300 5B82  
                        u3421 5C6A                          u3501 5F74                          u4221 5F00  
                        u4141 58A8                          u2541 482A                          u2461 4770  
                        u2381 463E                          u3181 5676                          u2621 491C  
                        u3405 5298                          u3341 50F2                          u3261 4158  
                        u3245 40E2                          u4061 32BC                          u4045 31FC  
                        u4037 31CE                          u4301 5B7E                          u3430 5C9C  
                        u4230 5ABC                          u3510 6108                          u4150 58CC  
                        u2550 4848                          u2470 47A0                          u2390 4652  
                        u3190 5688                          u2710 4BBE                          u2630 4932  
                        u3350 514E                          u3270 41D2                          u3246 40EC  
                        u4046 3206                          u4310 53D6                          u4231 5AB8  
                        u3511 6104                          u4151 58C8                          u2551 4844  
                        u2471 479C                          u2391 464E                          u3191 5684  
                        u2711 4BBA                          u2631 492E                          u3351 514A  
                        u3335 43F4                          u3271 41CE                          u3247 40FC  
                        u4055 3286                          u4047 3216                          u4311 53D2  
                        u3440 5CC6                          u4240 5DBC                          u3520 6126  
                        u4160 58DC                          u2560 4882                          u2480 47B0  
                        u2800 4D12                          u2720 4BDE                          u2640 4942  
                        u3360 51A6                          u3280 426E                          u4056 3290  
                        u4320 53F4                          u4241 5DB8                          u3521 6122  
                        u4161 58D8                          u2561 487E                          u2481 47AC  
                        u2801 4D0E                          u2721 4BDA                          u2705 4B5A  
                        u2641 493E                          u3361 51A2                          u3281 426A  
                        u4057 32A0                          u4321 53F0                          u3450 5CD6  
                        u4170 5E00                          u2570 4894                          u2490 47CC  
                        u2730 4BF0                          u2650 4982                          u3370 51CE  
                        u2810 592C                          u3290 42D6                          u4090 3932  
                        u3530 1148                          u4250 56DC                          u4330 5458  
                        u3451 5CD2                          u4171 5DFC                          u2571 4890  
                        u2491 47C8                          u2731 4BEC                          u2651 497E  
                        u3371 51CA                          u2811 5928                          u3291 42D2  
                        u4091 392E                          u4075 38C4                          u3531 1144  
                        u4251 56D8                          u4331 5454                          u4180 5E1E  
                        u3460 6080                          u2900 4DC2                          u2580 48A4  
                        u2740 4C1E                          u2660 4994                          u3380 5226  
                        u2820 596A                          u3700 149E                          u3620 1326  
                        u3540 117A                          u4260 56FC                          u4340 54AC  
                        u3437 5C92                          u4181 5E1A                          u3461 607C  
                        u2901 4DBE                          u2581 48A0                          u2741 4C1A  
                        u2661 4990                          u3381 5222                          u2821 5966  
                        u4085 38FA                          u3701 149A                          u3605 128A  
                        u3541 1176                          u4261 56F8                          u4341 54A8  
                        u4190 5E3A                          u3470 609E                          u2910 4DD2  
                        u2590 48C4                          u2750 4C34                          u2670 49A4  
                        u3390 527E                          u2830 5988                          u4086 3904  
                        u3710 1502                          u3630 1350                          u3606 1294  
                        u3550 11B2                          u4270 572A                          u4350 3A28  
                        u3447 5CBC                          u4191 5E36                          u3471 609A  
                        u2911 4DCE                          u2591 48C0                          u2751 4C30  
                        u2671 49A0                          u3391 527A                          u2831 5984  
                        u4087 3914                          u3711 14FE                          u3631 134C  
                        u3615 12D4                          u3607 12A4                          u3551 11AE  
                        u4271 5726                          u4351 3A24                          u3480 5F3E  
                        u2920 4E12                          u2760 4C48                          u2680 49DA  
                        u2840 59A8                          u3800 1744                          u3720 1552  
                        u3640 139C                          u3616 12DE                          u3560 11D4  
                        u4360 3A44                          u4280 5B3A                          u3481 5F3A  
                        u2921 4E0E                          u2761 4C44                          u2681 49D6  
                        u2841 59A4                          u3801 1740                          u3721 154E  
                        u3641 1398                          u3625 131C                          u3617 12EE  
                        u3561 11D0                          u4361 3A40                          u4281 5B36  
                        u3490 5F56                          u2930 4E52                          u2770 4C62  
                        u2690 49EA                          u2850 59F8                          u3810 179A  
                        u3730 1560                          u3650 13B8                          u3570 122A  
                        u4370 3B96                          u4290 5B54                          u3491 5F52  
                        u2931 4E4E                          u2771 4C5E                          u2691 49E6  
                        u2851 59F4                          u3811 1796                          u3731 155C  
                        u3651 13B4                          u3571 1226                          u4371 3B92  
                        u4507 5CFC                          u4291 5B50                          u2940 4EC8  
                        u2860 4D4A                          u2780 4CAA                          u3820 17B0  
                        u3740 15CA                          u3660 13F0                          u3580 1246  
                        u4380 3DC6                          u2941 4EC4                          u2861 4D46  
                        u2781 4CA6                          u3821 17AC                          u3741 15C6  
                        u3661 13EC                          u3581 1242                          u4381 3DC2  
                        u4517 5D12                          u2950 4EEA                          u2870 4D5C  
                        u2790 4CD8                          u3910 1ECA                          u3830 1850  
                        u3750 15E0                          u3670 13FE                          u3590 1276  
                        u4390 3F6A                          u2951 4EE6                          u2871 4D58  
                        u2791 4CD4                          u3911 1EC6                          u3831 184C  
                        u3751 15DC                          u3671 13FA                          u3591 1272  
                        u4391 3F66                          u4607 3E3E                          u4527 5D28  
                        u2960 4F14                          u2880 4D6C                          u3920 1F02  
                        u3840 1882                          u3760 15FC                          u3680 1436  
                        u2961 4F10                          u2881 4D68                          u3921 1EFE  
                        u3905 1E32                          u3841 187E                          u3761 15F8  
                        u3681 1432                          u4617 3EC0                          u4537 5D3E  
                        u4457 5B5A                          u2970 4F38                          u2890 4DB0  
                        u3906 1E3C                          u3850 18A6                          u3770 161A  
                        u3690 1490                          u2971 4F34                          u2891 4DAC  
                        u3907 1E4C                          u3851 18A2                          u3771 1616  
                        u3691 148C                          u4627 3F42                          u4547 3A06  
                        u4467 53B4                          u2980 4F4E                          u3940 2DC2  
                        u3860 18B4                          u3780 165E                          u2981 4F4A  
                        u3941 2DBE                          u3861 18B0                          u3781 165A  
                        u4637 5702                          u4557 3B74                          u4477 5422  
                        u2990 4F6C                          u3950 2E46                          u3870 19B0  
                        u3790 16A4                          u4647 5F98                          u2991 4F68  
                        u3951 2E42                          u3935 2128                          u3871 19AC  
                        u3791 16A0                          u4567 3C0E                          u4487 5486  
                        u3960 2EC0                          u3880 19CE                          u4657 5FC4  
                        u3961 2EBC                          u3881 19CA                          u4577 3C90  
                        u4497 5CE6                          u3970 2F66                          u3890 1DB8  
                        u4667 5FEE                          u3971 2F62                          u3891 1DB4  
                        u4587 3D12                          u3980 2FEE                          u4677 601A  
                        u3981 2FEA                          u4597 3DA4                          u3990 3044  
                        u3991 3040                          _cp_h 1079                          _cp_l 1075  
                        _dp_h 1009                          _dp_l 1001                          _main 5B9C  
                        _nanf 619C          LcdDisplayString@Data 0005                          _huge 1061  
                        _powf 10C0                          fsr0h 000FEA                          _tiny 105D  
                        fsr1h 000FE2                          indf0 000FEF                          fsr2h 000FDA  
                        fsr0l 000FE9                          indf2 000FDF                          fsr1l 000FE1  
                        fsr2l 000FD9                          prodh 000FF4                          prodl 000FF3  
                        start 0000           Dothi_settings@k_550 00A8           Dothi_settings@k_552 00AA  
             ___fldiv@new_exp 0043              ??_SendLcdCommand 0001               __end_of_LcdInit 5D62  
                ___param_bank 000000         __end_of_LcdDisplaytwo 5DE6                 ___fltol@sign1 0058  
             __end_of___fladd 4906                         ?_main 0001                         ?_nanf 0001  
             __end_of___fldiv 50CA                _ValidateNumber 5F22               __end_of___flneg 6168  
                       STR_10 107D                         STR_11 10B6                         STR_12 109B  
                       STR_13 10B6                         STR_14 109B                         STR_15 108C  
                       STR_16 10B4               __end_of___flmul 4D30                         ?_powf 0084  
             __end_of___flsub 606E               __end_of___fltol 58FE               __end_of___lwdiv 5E5A  
             __end_of___lwmod 5F22                         _TRISD 000F95                _LcdDisplayChar 606E  
                       _lg2_h 1029                         _lg2_l 1025                         _fabsf 6168  
                       _errno 00B6                         _ivln2 1019               __end_of_ivln2_h 1075  
             __end_of_ivln2_l 1019                         _two24 1065               __end_of_scalbnf 52FE  
        _LcdDisplayOnCursorOn 60F0                         _sqrtf 3F86                         nanf@s 0001  
                       nanf@u 0005                         tablat 000FF5                         powf@i 012C  
                       powf@j 01AC                         powf@k 01A0                         powf@n 017C  
                       powf@r 014C                         powf@s 015C                         powf@t 01B0  
                       powf@u 0174                         powf@v 0178                         powf@w 0144  
                       powf@x 0084                         powf@y 0088                         powf@z 01B4  
                       status 000FD8       __end_of_LcdClearDisplay 61D0                _Reset_settings 61BE  
               ??_SendLcdData 0001               __initialization 5E5A                  __end_of_cp_h 107D  
                __end_of_cp_l 1079                  __end_of_dp_h 1011                  __end_of_dp_l 1009  
                __end_of_main 5C3E                  __end_of_nanf 61BE                  __end_of_huge 1065  
                __end_of_powf 39B8                  __end_of_tiny 1061        __end_of_ValidateNumber 5F7C  
      __end_of_LcdDisplayChar 60B0                        ??_main 00AE                        ??_nanf 0005  
                      ??_powf 004B                 __activetblptr 000002             ___PneumaticSensor 00E3  
                      ?_fabsf 0001         ?_LcdDisplayOnCursorOn 0004                        ?_sqrtf 003E  
                  ___LcdDelay 00C4                     ??_LcdInit 0004              __end_of___xxtofl 569C  
      __end_of_Reset_settings 61C8      ___TotalDhotiSettingCount 005F                        ___flge 58FE  
                   ??___fladd 0009                     ??___fldiv 003A                     ??___flneg 0005  
                   ??___flmul 0019                     ??___flsub 0032                     ??___fltol 0054  
                   ??___lwdiv 0005                     ??___lwmod 000C                        fabsf@u 0005  
                      fabsf@x 0001               ?_ValidateNumber 0001                        clear_0 5E9A  
                      clear_1 5EAC                        _loom_p 00BC                        _loom_s 00C0  
                      _loom_w 00BE                        _value1 00F6                        isa$std 000001  
         __end_of_SendLcdData 5FD2                        _option 00BA               ?_LcdDisplayChar 0004  
      LcdDisplayString@RowNum 0007                     ??_scalbnf 0030                  __mediumconst 0000  
                      powf@s2 018C                        powf@t1 0180                        powf@t2 011C  
                      tblptrh 000FF7                        tblptrl 000FF6                        powf@y1 0128  
                      tblptru 000FF8                        powf@ax 0170                        powf@is 0190  
                      powf@hx 0160                        powf@hy 0184                        powf@ix 01A8  
                      powf@iy 0198                        powf@sn 0188                        sqrtf@i 0064  
                      sqrtf@m 0078                        sqrtf@q 006C                        sqrtf@r 007C  
                      sqrtf@s 0060                        sqrtf@t 0070              _tiny@sqrtf$F1112 1011  
                      sqrtf@x 003E                        sqrtf@z 0074                ___Relay1Timing 00D6  
                  ___flge@ff1 0032                    ___flge@ff2 0036                ___Relay2Timing 00D4  
                ___xxtofl@arg 000B                  ___xxtofl@exp 000A                  ___xxtofl@val 0001  
                  __accesstop 0060       __end_of__initialization 5EB4                    ___flneg@f1 0001  
             ?_Reset_settings 0001                 ___rparam_used 000001             ___RelayOnOffDelay 00C6  
                  ___fltol@f1 008C              ?_LcdClearDisplay 0001                __pcstackCOMRAM 0001  
                __pidataBANK0 61D0                  __pidataBANK1 60B0                 __end_of_lg2_h 102D  
               __end_of_lg2_l 1029                 __end_of_fabsf 619C                 __end_of_ivln2 101D  
       Dothi_settings@pos_553 00A4                 __end_of_two24 1069                 __end_of_sqrtf 4446  
            ??_Dothi_settings 005B                    __end_of_L1 105D                    __end_of_L2 1059  
                  __end_of_L3 1055                    __end_of_L4 1051                    __end_of_L5 104D  
                  __end_of_L6 1049                    __end_of_P1 1045                    __end_of_P2 1041  
                  __end_of_P3 103D                    __end_of_P4 1039                    __end_of_P5 1035  
                  __end_of_bp 1071                    __end_of_cp 1021        ??_LcdDisplayOnCursorOn 0005  
                     ??_fabsf 0005       LcdDisplayOnCursorOn@Pos 0004                Loom_settings@i 00A4  
                     ??_sqrtf 0042                    __pbssBANK0 00B2                   _SendLcdData 5F7C  
                     ?___flge 0032                  increment@pos 0095               ___ms10TickPulse 00E9  
                   ?___xxtofl 0001                       _LcdInit 5CD8              _LcdDisplayNumber 5A02  
            _LcdDisplayString 5C3E                       __Hparam 0000                       __Lparam 0000  
              increment@fixed 0090                increment@count 0092                       ___fladd 4446  
                     ___fldiv 4D30                       ___flneg 6130                       ___flmul 4906  
                     ___flsub 6028                       ___fltol 57F6                _increment$1350 009A  
                     ___lwdiv 5DE6                _increment$1349 0096            ValidateNumber@Data 0001  
                     ___lwmod 5EBE                  __psmallconst 1000                       _address 00F5  
           __end_of_main_menu 5B9C                       __pcinit 5E5A                ___SubMenuState 00DE  
                     __ramtop 1000                       __ptext0 5B9C                       __ptext1 5AE6  
                     __ptext2 61BE                       __ptext3 52FE                       __ptext4 5CD8  
                     __ptext5 39B8                       __ptext6 569C                       __ptext7 10C0  
                     __ptext8 3F86                       __ptext9 619C             __end_of_increment 57F6  
                     _ivln2_h 1071                       _ivln2_l 1015                    ??___xxtofl 0005  
                     _scalbnf 50CA                       main@opt 00B0                 _Loom_settings 52FE  
        end_of_initialization 5EB4                  _dhoti_values 044E                 __Lmediumconst 0000  
            ??_ValidateNumber 0003                       powf@p_h 019C                       powf@p_l 0164  
                     powf@s_h 016C                       powf@t_h 0168                       powf@s_l 0130  
                     powf@t_l 0134                       powf@z_h 0120                       powf@z_l 0124  
         LcdDisplayNumber@Pos 000D                       postdec1 000FE5                       postdec2 000FDD  
            ??_LcdDisplayChar 0006                       postinc0 000FEE                       postinc2 000FDE  
    __end_of_tiny@sqrtf$F1112 1015                       sqrtf@ix 0080              ___StopPulseCount 00D0  
                   _PORTBbits 000F81                     _PORTCbits 000F82                   ___fladd@grs 0010  
               ___xxtofl@sign 0009         SendLcdCommand@Command 0003                   ___fldiv@grs 0045  
                 ___fldiv@rem 003E                ?_Loom_settings 0001              ??_Reset_settings 0004  
                 ___flmul@grs 001E                     _DataArray 00ED           LcdDisplayString@Pos 0004  
              ___PulseTimeOut 00CE                __end_of___flge 5A02                 _LcdDisplaytwo 5D62  
         start_initialization 5E5A                   __end_of_lg2 1031                   __end_of_ovt 1025  
           ___MeterPulseCount 00CA              ___PneumaticIndex 00DD          LcdDisplayChar@RowNum 0006  
                  increment@i 00A0                  ?_SendLcdData 0001                      ??___flge 003A  
                 __pdataBANK0 00F5                   __pdataBANK1 01BC              increment@dynamic 009E  
              ?_LcdDisplaytwo 000D            ___SinglePickTiming 00D8      __end_of_LcdDisplayNumber 5AE6  
                   ___fladd@a 0005                     ___fladd@b 0001      __end_of_LcdDisplayString 5CD8  
                   ___fldiv@a 0036                     ___fldiv@b 0032    LcdDisplayOnCursorOn@RowNum 0005  
                 __pbssBIGRAM 01FC                     ___flmul@a 0015                     ___flmul@b 0011  
                 __pbssCOMRAM 005F                     ___flsub@a 002E                     ___flsub@b 002A  
             ??_Loom_settings 005B                 __pcstackBANK0 0060                 __pcstackBANK1 0100  
          LcdDisplayChar@Data 0005              ___LcdScreenState 00E0          ___MeterPulseSettings 00CC  
               ___LoomStopped 00E8                      ?_LcdInit 0001              ___lwdiv@dividend 0001  
      ___ProtectMultipleWrite 00E2                      ?___fladd 0001                      ?___fldiv 0032  
                    ?___flneg 0001                      ?___flmul 0011                      ?___flsub 002A  
                    ?___fltol 008C                      ?___lwdiv 0001                      ?___lwmod 0008  
              _SendLcdCommand 5FD2                     fabsf@F465 00B2                   __smallconst 1000  
             Dothi_settings@i 00AC               Dothi_settings@k 00A6                     _main_menu 5AE6  
                    ?_scalbnf 002A                     _increment 569C                 increment@line 0094  
            ___lwdiv@quotient 0005              ___PrevPulseState 00EA                     _powf$1351 01A4  
                   _powf$1352 0154                     _powf$1360 0140                     _powf$1353 0148  
                   _powf$1361 0108                     _powf$1354 0194                     _powf$1362 010C  
                   _powf$1355 0138                     _powf$1363 0110                     _powf$1364 0114  
                   _powf$1356 0100                     _powf$1365 0118                     _powf$1357 0104  
                   _powf$1358 0158                     _powf$1359 013C                   _dhoti_steps 00B8  
                ___CoilSensor 00E5               ??_LcdDisplaytwo 0010                    powf@yisint 0150  
      __end_of_SendLcdCommand 6028                    ?_main_menu 0008        LcdDisplayNumber@RowNum 0010  
         LcdDisplaytwo@RowNum 0010             ??_LcdClearDisplay 0004                    ?_increment 0090  
           Dothi_settings@pos 00A2              ___DhotiSetting_t 01FC                     copy_data0 5E6E  
             SendLcdData@Data 0003                  ___MeterCount 00C8                      __Hrparam 0000  
        ___PrevLcdScreenState 00DF                      __Lrparam 0000               ?_SendLcdCommand 0001  
             ___WeftHighOrLow 00E7             LcdDisplayChar@Pos 0004                      ___xxtofl 54E8  
             ___AntiWeftCount 00E4    ___SinglePickNoSensorTiming 00E6               ___lwdiv@divisor 0003  
             ___lwdiv@counter 0007                      __ptext10 58FE                      __ptext11 50CA  
                    __ptext20 60F0                      __ptext12 4906                      __ptext21 606E  
                    __ptext13 6168                      __ptext30 5FD2                      __ptext22 5D62  
                    __ptext14 54E8                      __ptext23 5A02                      __ptext15 6028  
                    __ptext24 5EBE                      __ptext16 4446                      __ptext25 5DE6  
                    __ptext17 6130                      __ptext26 5F22                      __ptext18 4D30  
                    __ptext27 5C3E                      __ptext19 57F6                      __ptext28 5F7C  
                    __ptext29 61C8              ___DispPulseCount 00D2                  ___WeftTiming 00DA  
        powf@__xc8_float_word 01B8                      isa$xinst 000000                  ___PulseCount 00EB  
               ___SystemState 00E1             ?_LcdDisplayNumber 000D                   ??_main_menu 000A  
           ?_LcdDisplayString 0004            ??_LcdDisplayNumber 0010                   ??_increment 005A  
          ??_LcdDisplayString 0007                _Dothi_settings 39B8                      scalbnf@n 002E  
                    scalbnf@u 0034                      scalbnf@x 002A                      scalbnf@y 0038  
            ___lwmod@dividend 0008          LcdDisplayNumber@Data 000E  __end_of_LcdDisplayOnCursorOn 6130  
           LcdDisplaytwo@Data 000E         ___DhotiStepArrayIndex 00EC            Loom_settings@i_531 00A6  
          Loom_settings@i_532 00A8               ___lwmod@divisor 000A        __end_of_Dothi_settings 3F86  
             ___lwmod@counter 000C            Loom_settings@count 00A2              LcdDisplaytwo@Pos 000D  
       __end_of_Loom_settings 54E8                 ___fladd@signs 000D         sqrtf@__xc8_float_word 0068  
                ___fladd@aexp 000E                  ___fladd@bexp 000F  
